   1               		.file	"main.c"
   2               	__SP_H__ = 0x3e
   3               	__SP_L__ = 0x3d
   4               	__SREG__ = 0x3f
   5               	__tmp_reg__ = 0
   6               	__zero_reg__ = 1
   7               		.text
   8               	.Ltext0:
   9               		.cfi_sections	.debug_frame
  10               		.file 0 "/home/files/osdev/platform/avr" "main.c"
  11               	.global	byte_to_hex
  13               	byte_to_hex:
  14               	.LVL0:
  15               	.LFB3:
  16               		.file 1 "main.c"
   1:main.c        **** #include <ps2.h>
   2:main.c        **** #include <serial.h>
   3:main.c        **** #include <adc.h>
   4:main.c        **** #include <random.h>
   5:main.c        **** #include <timer.h>
   6:main.c        **** #include <rtc.h>
   7:main.c        **** #include <xmem.h>
   8:main.c        **** #include <logger.h>
   9:main.c        **** #include <spi.h>
  10:main.c        **** #include <lcd.h>
  11:main.c        **** #include <gpio.h>
  12:main.c        **** #include <sd.h>
  13:main.c        **** #include <avr/pgmspace.h>
  14:main.c        **** 
  15:main.c        **** char byte_to_hex(u8 byte)
  16:main.c        **** {
  17               		.loc 1 16 1 view -0
  18               		.cfi_startproc
  19               	/* prologue: function */
  20               	/* frame size = 0 */
  21               	/* stack size = 0 */
  22               	.L__stack_usage = 0
  17:main.c        **** 	if(byte < 10)
  23               		.loc 1 17 2 view .LVU1
  24               		.loc 1 17 4 is_stmt 0 view .LVU2
  25 0000 8A30      		cpi r24,lo8(10)
  26 0002 00F4      		brsh .L2
  18:main.c        **** 	{
  19:main.c        **** 		return byte + '0';
  27               		.loc 1 19 3 is_stmt 1 view .LVU3
  28               		.loc 1 19 15 is_stmt 0 view .LVU4
  29 0004 805D      		subi r24,lo8(-(48))
  30               	.LVL1:
  31               		.loc 1 19 15 view .LVU5
  32 0006 0895      		ret
  33               	.LVL2:
  34               	.L2:
  20:main.c        **** 	}
  21:main.c        **** 
  22:main.c        **** 	return byte - 10 + 'A';
  35               		.loc 1 22 2 is_stmt 1 view .LVU6
  36               		.loc 1 22 19 is_stmt 0 view .LVU7
  37 0008 895C      		subi r24,lo8(-(55))
  38               	.LVL3:
  39               	/* epilogue start */
  23:main.c        **** }
  40               		.loc 1 23 1 view .LVU8
  41 000a 0895      		ret
  42               		.cfi_endproc
  43               	.LFE3:
  45               	.global	ps2_event
  47               	ps2_event:
  48               	.LVL4:
  49               	.LFB4:
  24:main.c        **** 
  25:main.c        **** void ps2_event(u8 byte)
  26:main.c        **** {
  50               		.loc 1 26 1 is_stmt 1 view -0
  51               		.cfi_startproc
  52               	/* prologue: function */
  53               	/* frame size = 0 */
  54               	/* stack size = 0 */
  55               	.L__stack_usage = 0
  27:main.c        **** 	/* Called when a byte is received from the keyboard */
  28:main.c        **** 	/* serial_tx('0'); */
  29:main.c        **** 	/* serial_tx('x'); */
  30:main.c        **** 	/* serial_tx(byte_to_hex((byte >> 4) & 0x0F)); */
  31:main.c        **** 	/* serial_tx(byte_to_hex(byte & 0x0F)); */
  32:main.c        **** }
  56               		.loc 1 32 1 view .LVU10
  57               	/* epilogue start */
  58 000c 0895      		ret
  59               		.cfi_endproc
  60               	.LFE4:
  62               	.global	serial_write
  64               	serial_write:
  65               	.LVL5:
  66               	.LFB5:
  33:main.c        **** 
  34:main.c        **** void serial_write(const void *data, u32 len)
  35:main.c        **** {
  67               		.loc 1 35 1 view -0
  68               		.cfi_startproc
  69               		.loc 1 35 1 is_stmt 0 view .LVU12
  70 000e 8F92      		push r8
  71               		.cfi_def_cfa_offset 3
  72               		.cfi_offset 8, -2
  73 0010 9F92      		push r9
  74               		.cfi_def_cfa_offset 4
  75               		.cfi_offset 9, -3
  76 0012 AF92      		push r10
  77               		.cfi_def_cfa_offset 5
  78               		.cfi_offset 10, -4
  79 0014 BF92      		push r11
  80               		.cfi_def_cfa_offset 6
  81               		.cfi_offset 11, -5
  82 0016 CF92      		push r12
  83               		.cfi_def_cfa_offset 7
  84               		.cfi_offset 12, -6
  85 0018 DF92      		push r13
  86               		.cfi_def_cfa_offset 8
  87               		.cfi_offset 13, -7
  88 001a EF92      		push r14
  89               		.cfi_def_cfa_offset 9
  90               		.cfi_offset 14, -8
  91 001c FF92      		push r15
  92               		.cfi_def_cfa_offset 10
  93               		.cfi_offset 15, -9
  94 001e CF93      		push r28
  95               		.cfi_def_cfa_offset 11
  96               		.cfi_offset 28, -10
  97 0020 DF93      		push r29
  98               		.cfi_def_cfa_offset 12
  99               		.cfi_offset 29, -11
 100               	/* prologue: function */
 101               	/* frame size = 0 */
 102               	/* stack size = 10 */
 103               	.L__stack_usage = 10
 104 0022 6A01      		movw r12,r20
 105 0024 7B01      		movw r14,r22
  36:main.c        **** 	u32 i;
 106               		.loc 1 36 2 is_stmt 1 view .LVU13
  37:main.c        **** 	const char *data8 = data;
 107               		.loc 1 37 2 view .LVU14
 108               	.LVL6:
  38:main.c        **** 	for(i = 0; i < len; ++i)
 109               		.loc 1 38 2 view .LVU15
 110               		.loc 1 38 2 is_stmt 0 view .LVU16
 111 0026 EC01      		movw r28,r24
 112               		.loc 1 38 8 view .LVU17
 113 0028 812C      		mov r8,__zero_reg__
 114 002a 912C      		mov r9,__zero_reg__
 115 002c 5401      		movw r10,r8
 116               	.LVL7:
 117               	.L6:
 118               		.loc 1 38 15 is_stmt 1 discriminator 1 view .LVU18
 119 002e 8C14      		cp r8,r12
 120 0030 9D04      		cpc r9,r13
 121 0032 AE04      		cpc r10,r14
 122 0034 BF04      		cpc r11,r15
 123 0036 01F4      		brne .L7
 124               	/* epilogue start */
  39:main.c        **** 	{
  40:main.c        **** 		serial_tx(data8[i]);
  41:main.c        **** 	}
  42:main.c        **** }
 125               		.loc 1 42 1 is_stmt 0 view .LVU19
 126 0038 DF91      		pop r29
 127 003a CF91      		pop r28
 128 003c FF90      		pop r15
 129 003e EF90      		pop r14
 130 0040 DF90      		pop r13
 131 0042 CF90      		pop r12
 132 0044 BF90      		pop r11
 133 0046 AF90      		pop r10
 134 0048 9F90      		pop r9
 135 004a 8F90      		pop r8
 136               	.LVL8:
 137               		.loc 1 42 1 view .LVU20
 138 004c 0895      		ret
 139               	.LVL9:
 140               	.L7:
  40:main.c        **** 	}
 141               		.loc 1 40 3 is_stmt 1 discriminator 3 view .LVU21
 142 004e 8991      		ld r24,Y+
 143 0050 0E94 0000 		call serial_tx
 144               	.LVL10:
  38:main.c        **** 	for(i = 0; i < len; ++i)
 145               		.loc 1 38 22 discriminator 3 view .LVU22
 146 0054 8FEF      		ldi r24,-1
 147 0056 881A      		sub r8,r24
 148 0058 980A      		sbc r9,r24
 149 005a A80A      		sbc r10,r24
 150 005c B80A      		sbc r11,r24
 151               	.LVL11:
  38:main.c        **** 	for(i = 0; i < len; ++i)
 152               		.loc 1 38 22 is_stmt 0 discriminator 3 view .LVU23
 153 005e 00C0      		rjmp .L6
 154               		.cfi_endproc
 155               	.LFE5:
 157               	.global	memory_size
 159               	memory_size:
 160               	.LFB6:
  43:main.c        **** 
  44:main.c        **** u32 memory_size(void)
  45:main.c        **** {
 161               		.loc 1 45 1 is_stmt 1 view -0
 162               		.cfi_startproc
 163               	/* prologue: function */
 164               	/* frame size = 0 */
 165               	/* stack size = 0 */
 166               	.L__stack_usage = 0
  46:main.c        **** 	return 3UL * 128UL * 1024UL;
 167               		.loc 1 46 2 view .LVU25
  47:main.c        **** }
 168               		.loc 1 47 1 is_stmt 0 view .LVU26
 169 0060 60E0      		ldi r22,0
 170 0062 70E0      		ldi r23,0
 171 0064 86E0      		ldi r24,lo8(6)
 172 0066 90E0      		ldi r25,0
 173               	/* epilogue start */
 174 0068 0895      		ret
 175               		.cfi_endproc
 176               	.LFE6:
 178               	.global	memory_read
 180               	memory_read:
 181               	.LVL12:
 182               	.LFB7:
  48:main.c        **** 
  49:main.c        **** void memory_read(u32 addr, void *data, u32 size)
  50:main.c        **** {
 183               		.loc 1 50 1 is_stmt 1 view -0
 184               		.cfi_startproc
 185               		.loc 1 50 1 is_stmt 0 view .LVU28
 186 006a 0F93      		push r16
 187               		.cfi_def_cfa_offset 3
 188               		.cfi_offset 16, -2
 189 006c 1F93      		push r17
 190               		.cfi_def_cfa_offset 4
 191               		.cfi_offset 17, -3
 192               	/* prologue: function */
 193               	/* frame size = 0 */
 194               	/* stack size = 2 */
 195               	.L__stack_usage = 2
  51:main.c        **** 	xmem_read(addr, data, size);
 196               		.loc 1 51 2 is_stmt 1 view .LVU29
 197 006e 9801      		movw r18,r16
 198               	/* epilogue start */
  52:main.c        **** }
 199               		.loc 1 52 1 is_stmt 0 view .LVU30
 200 0070 1F91      		pop r17
 201 0072 0F91      		pop r16
 202               	.LVL13:
  51:main.c        **** 	xmem_read(addr, data, size);
 203               		.loc 1 51 2 view .LVU31
 204 0074 0C94 0000 		jmp xmem_read
 205               	.LVL14:
  51:main.c        **** 	xmem_read(addr, data, size);
 206               		.loc 1 51 2 view .LVU32
 207               		.cfi_endproc
 208               	.LFE7:
 210               	.global	memory_write
 212               	memory_write:
 213               	.LVL15:
 214               	.LFB8:
  53:main.c        **** 
  54:main.c        **** void memory_write(u32 addr, const void *data, u32 size)
  55:main.c        **** {
 215               		.loc 1 55 1 is_stmt 1 view -0
 216               		.cfi_startproc
 217               		.loc 1 55 1 is_stmt 0 view .LVU34
 218 0078 0F93      		push r16
 219               		.cfi_def_cfa_offset 3
 220               		.cfi_offset 16, -2
 221 007a 1F93      		push r17
 222               		.cfi_def_cfa_offset 4
 223               		.cfi_offset 17, -3
 224               	/* prologue: function */
 225               	/* frame size = 0 */
 226               	/* stack size = 2 */
 227               	.L__stack_usage = 2
  56:main.c        **** 	xmem_write(addr, data, size);
 228               		.loc 1 56 2 is_stmt 1 view .LVU35
 229 007c 9801      		movw r18,r16
 230               	/* epilogue start */
  57:main.c        **** }
 231               		.loc 1 57 1 is_stmt 0 view .LVU36
 232 007e 1F91      		pop r17
 233 0080 0F91      		pop r16
 234               	.LVL16:
  56:main.c        **** 	xmem_write(addr, data, size);
 235               		.loc 1 56 2 view .LVU37
 236 0082 0C94 0000 		jmp xmem_write
 237               	.LVL17:
  56:main.c        **** 	xmem_write(addr, data, size);
 238               		.loc 1 56 2 view .LVU38
 239               		.cfi_endproc
 240               	.LFE8:
 242               	.global	gfx_rect
 244               	gfx_rect:
 245               	.LVL18:
 246               	.LFB9:
  58:main.c        **** 
  59:main.c        **** void gfx_rect(i32 x, i32 y, i32 w, i32 h, u32 color){}
 247               		.loc 1 59 53 is_stmt 1 view -0
 248               		.cfi_startproc
 249               		.loc 1 59 53 is_stmt 0 view .LVU40
 250 0086 CF93      		push r28
 251               		.cfi_def_cfa_offset 3
 252               		.cfi_offset 28, -2
 253 0088 DF93      		push r29
 254               		.cfi_def_cfa_offset 4
 255               		.cfi_offset 29, -3
 256 008a CDB7      		in r28,__SP_L__
 257 008c DEB7      		in r29,__SP_H__
 258               		.cfi_def_cfa_register 28
 259               	/* prologue: function */
 260               	/* frame size = 0 */
 261               	/* stack size = 2 */
 262               	.L__stack_usage = 2
 263               		.loc 1 59 54 is_stmt 1 view .LVU41
 264               	/* epilogue start */
 265 008e DF91      		pop r29
 266 0090 CF91      		pop r28
 267 0092 0895      		ret
 268               		.cfi_endproc
 269               	.LFE9:
 271               	.global	syscall_gfx_image_rgba
 273               	syscall_gfx_image_rgba:
 274               	.LVL19:
 275               	.LFB10:
  60:main.c        **** u32 syscall_gfx_image_rgba(u32 *args){}
 276               		.loc 1 60 38 view -0
 277               		.cfi_startproc
 278               		.loc 1 60 38 is_stmt 0 view .LVU43
 279 0094 CF93      		push r28
 280               		.cfi_def_cfa_offset 3
 281               		.cfi_offset 28, -2
 282 0096 DF93      		push r29
 283               		.cfi_def_cfa_offset 4
 284               		.cfi_offset 29, -3
 285 0098 00D0      		rcall .
 286 009a 00D0      		rcall .
 287               		.cfi_def_cfa_offset 8
 288 009c CDB7      		in r28,__SP_L__
 289 009e DEB7      		in r29,__SP_H__
 290               		.cfi_def_cfa_register 28
 291               	/* prologue: function */
 292               	/* frame size = 4 */
 293               	/* stack size = 6 */
 294               	.L__stack_usage = 6
 295               		.loc 1 60 39 is_stmt 1 view .LVU44
 296 00a0 6981      		ldd r22,Y+1
 297 00a2 7A81      		ldd r23,Y+2
 298 00a4 8B81      		ldd r24,Y+3
 299 00a6 9C81      		ldd r25,Y+4
 300               	/* epilogue start */
 301 00a8 0F90      		pop __tmp_reg__
 302 00aa 0F90      		pop __tmp_reg__
 303 00ac 0F90      		pop __tmp_reg__
 304 00ae 0F90      		pop __tmp_reg__
 305 00b0 DF91      		pop r29
 306 00b2 CF91      		pop r28
 307 00b4 0895      		ret
 308               		.cfi_endproc
 309               	.LFE10:
 311               	.global	syscall_gfx_image_rgb
 313               	syscall_gfx_image_rgb:
 314               	.LFB17:
 315               		.cfi_startproc
  61:main.c        **** u32 syscall_gfx_image_rgb(u32 *args){}
 316               		.loc 1 61 5 view .LVU45
 317 00b6 CF93      		push r28
 318               		.cfi_def_cfa_offset 3
 319               		.cfi_offset 28, -2
 320 00b8 DF93      		push r29
 321               		.cfi_def_cfa_offset 4
 322               		.cfi_offset 29, -3
 323 00ba 00D0      		rcall .
 324 00bc 00D0      		rcall .
 325               		.cfi_def_cfa_offset 8
 326 00be CDB7      		in r28,__SP_L__
 327 00c0 DEB7      		in r29,__SP_H__
 328               		.cfi_def_cfa_register 28
 329               	/* prologue: function */
 330               	/* frame size = 4 */
 331               	/* stack size = 6 */
 332               	.L__stack_usage = 6
 333 00c2 60E0      		ldi r22,0
 334 00c4 70E0      		ldi r23,0
 335 00c6 CB01      		movw r24,r22
 336               	/* epilogue start */
 337 00c8 0F90      		pop __tmp_reg__
 338 00ca 0F90      		pop __tmp_reg__
 339 00cc 0F90      		pop __tmp_reg__
 340 00ce 0F90      		pop __tmp_reg__
 341 00d0 DF91      		pop r29
 342 00d2 CF91      		pop r28
 343 00d4 0895      		ret
 344               		.cfi_endproc
 345               	.LFE17:
 347               	.global	syscall_gfx_image_rgb565
 349               	syscall_gfx_image_rgb565:
 350               	.LFB19:
 351               		.cfi_startproc
  62:main.c        **** u32 syscall_gfx_image_rgb565(u32 *args){}
 352               		.loc 1 62 5 view .LVU46
 353 00d6 CF93      		push r28
 354               		.cfi_def_cfa_offset 3
 355               		.cfi_offset 28, -2
 356 00d8 DF93      		push r29
 357               		.cfi_def_cfa_offset 4
 358               		.cfi_offset 29, -3
 359 00da 00D0      		rcall .
 360 00dc 00D0      		rcall .
 361               		.cfi_def_cfa_offset 8
 362 00de CDB7      		in r28,__SP_L__
 363 00e0 DEB7      		in r29,__SP_H__
 364               		.cfi_def_cfa_register 28
 365               	/* prologue: function */
 366               	/* frame size = 4 */
 367               	/* stack size = 6 */
 368               	.L__stack_usage = 6
 369 00e2 60E0      		ldi r22,0
 370 00e4 70E0      		ldi r23,0
 371 00e6 CB01      		movw r24,r22
 372               	/* epilogue start */
 373 00e8 0F90      		pop __tmp_reg__
 374 00ea 0F90      		pop __tmp_reg__
 375 00ec 0F90      		pop __tmp_reg__
 376 00ee 0F90      		pop __tmp_reg__
 377 00f0 DF91      		pop r29
 378 00f2 CF91      		pop r28
 379 00f4 0895      		ret
 380               		.cfi_endproc
 381               	.LFE19:
 383               	.global	syscall_gfx_image_grayscale
 385               	syscall_gfx_image_grayscale:
 386               	.LFB21:
 387               		.cfi_startproc
  63:main.c        **** u32 syscall_gfx_image_grayscale(u32 *args){}
 388               		.loc 1 63 5 view .LVU47
 389 00f6 CF93      		push r28
 390               		.cfi_def_cfa_offset 3
 391               		.cfi_offset 28, -2
 392 00f8 DF93      		push r29
 393               		.cfi_def_cfa_offset 4
 394               		.cfi_offset 29, -3
 395 00fa 00D0      		rcall .
 396 00fc 00D0      		rcall .
 397               		.cfi_def_cfa_offset 8
 398 00fe CDB7      		in r28,__SP_L__
 399 0100 DEB7      		in r29,__SP_H__
 400               		.cfi_def_cfa_register 28
 401               	/* prologue: function */
 402               	/* frame size = 4 */
 403               	/* stack size = 6 */
 404               	.L__stack_usage = 6
 405 0102 60E0      		ldi r22,0
 406 0104 70E0      		ldi r23,0
 407 0106 CB01      		movw r24,r22
 408               	/* epilogue start */
 409 0108 0F90      		pop __tmp_reg__
 410 010a 0F90      		pop __tmp_reg__
 411 010c 0F90      		pop __tmp_reg__
 412 010e 0F90      		pop __tmp_reg__
 413 0110 DF91      		pop r29
 414 0112 CF91      		pop r28
 415 0114 0895      		ret
 416               		.cfi_endproc
 417               	.LFE21:
 419               	.global	syscall_gfx_image_1bit
 421               	syscall_gfx_image_1bit:
 422               	.LFB23:
 423               		.cfi_startproc
  64:main.c        **** u32 syscall_gfx_image_1bit(u32 *args){}
 424               		.loc 1 64 5 view .LVU48
 425 0116 CF93      		push r28
 426               		.cfi_def_cfa_offset 3
 427               		.cfi_offset 28, -2
 428 0118 DF93      		push r29
 429               		.cfi_def_cfa_offset 4
 430               		.cfi_offset 29, -3
 431 011a 00D0      		rcall .
 432 011c 00D0      		rcall .
 433               		.cfi_def_cfa_offset 8
 434 011e CDB7      		in r28,__SP_L__
 435 0120 DEB7      		in r29,__SP_H__
 436               		.cfi_def_cfa_register 28
 437               	/* prologue: function */
 438               	/* frame size = 4 */
 439               	/* stack size = 6 */
 440               	.L__stack_usage = 6
 441 0122 60E0      		ldi r22,0
 442 0124 70E0      		ldi r23,0
 443 0126 CB01      		movw r24,r22
 444               	/* epilogue start */
 445 0128 0F90      		pop __tmp_reg__
 446 012a 0F90      		pop __tmp_reg__
 447 012c 0F90      		pop __tmp_reg__
 448 012e 0F90      		pop __tmp_reg__
 449 0130 DF91      		pop r29
 450 0132 CF91      		pop r28
 451 0134 0895      		ret
 452               		.cfi_endproc
 453               	.LFE23:
 455               		.section	.text.startup,"ax",@progbits
 456               	.global	main
 458               	main:
 459               	.LFB15:
  65:main.c        **** 
  66:main.c        **** 
  67:main.c        **** int main(void)
  68:main.c        **** {
 460               		.loc 1 68 1 view -0
 461               		.cfi_startproc
 462 0000 CDB7      		in r28,__SP_L__
 463 0002 DEB7      		in r29,__SP_H__
 464               		.cfi_def_cfa_register 28
 465 0004 C450      		subi r28,4
 466 0006 D240      		sbci r29,2
 467               		.cfi_def_cfa_offset 518
 468 0008 0FB6      		in __tmp_reg__,__SREG__
 469 000a F894      		cli
 470 000c DEBF      		out __SP_H__,r29
 471 000e 0FBE      		out __SREG__,__tmp_reg__
 472 0010 CDBF      		out __SP_L__,r28
 473               	/* prologue: function */
 474               	/* frame size = 516 */
 475               	/* stack size = 516 */
 476               	.L__stack_usage = 516
  69:main.c        **** 	/* --- BOOT SEQUENCE --- */
  70:main.c        **** 
  71:main.c        **** 	/* Configure GPIO */
  72:main.c        **** 	gpio_configure();
 477               		.loc 1 72 2 view .LVU50
 478 0012 0E94 0000 		call gpio_configure
 479               	.LVL20:
  73:main.c        **** 
  74:main.c        **** 	/* Initialize serial port */
  75:main.c        **** 	serial_init();
 480               		.loc 1 75 2 view .LVU51
 481 0016 0E94 0000 		call serial_init
 482               	.LVL21:
  76:main.c        **** 
  77:main.c        **** 	/* Enable interrupts */
  78:main.c        **** 	sei();
 483               		.loc 1 78 2 view .LVU52
 484               	/* #APP */
 485               	 ;  78 "main.c" 1
 486 001a 7894      		sei
 487               	 ;  0 "" 2
  79:main.c        **** 
  80:main.c        **** 	/* Print boot message */
  81:main.c        **** 	serial_tx_str_P(PSTR("\nImaginaryOS Version 0.1 Booting ...\n\n"));
 488               		.loc 1 81 2 view .LVU53
 489               	/* #NOAPP */
 490               	.LBB2:
 491               		.loc 1 81 18 view .LVU54
 492               		.loc 1 81 18 view .LVU55
 493               	.LBE2:
 494               		.loc 1 81 2 is_stmt 0 view .LVU56
 495 001c 80E0      		ldi r24,lo8(__c.4)
 496 001e 90E0      		ldi r25,hi8(__c.4)
 497 0020 0E94 0000 		call serial_tx_str_P
 498               	.LVL22:
  82:main.c        **** 
  83:main.c        **** 	/* Initialize timer */
  84:main.c        **** 	timer_init();
 499               		.loc 1 84 2 is_stmt 1 view .LVU57
 500 0024 0E94 0000 		call timer_init
 501               	.LVL23:
  85:main.c        **** 
  86:main.c        **** 	/* Initialize SPI */
  87:main.c        **** 	spi_init();
 502               		.loc 1 87 2 view .LVU58
 503 0028 0E94 0000 		call spi_init
 504               	.LVL24:
  88:main.c        **** 
  89:main.c        **** 	/* Initialize external memory */
  90:main.c        **** 	xmem_init();
 505               		.loc 1 90 2 view .LVU59
 506 002c 0E94 0000 		call xmem_init
 507               	.LVL25:
  91:main.c        **** 
  92:main.c        **** 	/* Initialize LCD driver */
  93:main.c        **** 	lcd_init(0xFF, COLOR_BLACK);
 508               		.loc 1 93 2 view .LVU60
 509 0030 60E0      		ldi r22,0
 510 0032 70E0      		ldi r23,0
 511 0034 8FEF      		ldi r24,lo8(-1)
 512 0036 0E94 0000 		call lcd_init
 513               	.LVL26:
  94:main.c        **** 	lcd_rect(10, 10, 200, 200, COLOR_RED);
 514               		.loc 1 94 2 view .LVU61
 515 003a 00E0      		ldi r16,0
 516 003c 18EF      		ldi r17,lo8(-8)
 517 003e 28EC      		ldi r18,lo8(-56)
 518 0040 30E0      		ldi r19,0
 519 0042 48EC      		ldi r20,lo8(-56)
 520 0044 50E0      		ldi r21,0
 521 0046 6AE0      		ldi r22,lo8(10)
 522 0048 70E0      		ldi r23,0
 523 004a 8AE0      		ldi r24,lo8(10)
 524 004c 90E0      		ldi r25,0
 525 004e 0E94 0000 		call lcd_rect
 526               	.LVL27:
  95:main.c        **** 
  96:main.c        **** 	/* Initialize ADC */
  97:main.c        **** 	adc_init();
 527               		.loc 1 97 2 view .LVU62
 528 0052 0E94 0000 		call adc_init
 529               	.LVL28:
  98:main.c        **** 
  99:main.c        **** 	/* Initialize RNG */
 100:main.c        **** 	random_init();
 530               		.loc 1 100 2 view .LVU63
 531 0056 0E94 0000 		call random_init
 532               	.LVL29:
 101:main.c        **** 
 102:main.c        **** 	/* Initialize keyboard */
 103:main.c        **** 	ps2_init();
 533               		.loc 1 103 2 view .LVU64
 534 005a 0E94 0000 		call ps2_init
 535               	.LVL30:
 104:main.c        **** 
 105:main.c        **** 	/* Initialize RTC driver */
 106:main.c        **** 	rtc_init();
 536               		.loc 1 106 2 view .LVU65
 537 005e 0E94 0000 		call rtc_init
 538               	.LVL31:
 107:main.c        **** 
 108:main.c        **** 	/* Initialize SD card driver */
 109:main.c        **** 	sd_init();
 539               		.loc 1 109 2 view .LVU66
 540 0062 0E94 0000 		call sd_init
 541               	.LVL32:
 110:main.c        **** 
 111:main.c        **** 	serial_tx_str_P(PSTR("\nREADY.\n\n"));
 542               		.loc 1 111 2 view .LVU67
 543               	.LBB3:
 544               		.loc 1 111 18 view .LVU68
 545               		.loc 1 111 18 view .LVU69
 546               	.LBE3:
 547               		.loc 1 111 2 is_stmt 0 view .LVU70
 548 0066 80E0      		ldi r24,lo8(__c.3)
 549 0068 90E0      		ldi r25,hi8(__c.3)
 550 006a 0E94 0000 		call serial_tx_str_P
 551               	.LVL33:
 552               	.LBB4:
 112:main.c        **** 
 113:main.c        **** 	/* --- READY --- */
 114:main.c        **** 
 115:main.c        **** 	{
 116:main.c        **** 		u8 buf[512], i;
 553               		.loc 1 116 3 is_stmt 1 view .LVU71
 117:main.c        **** 		Status ret;
 554               		.loc 1 117 3 view .LVU72
 118:main.c        **** 
 119:main.c        **** 		/* Test */
 120:main.c        **** 		log_boot_P(PSTR("Printing sectors\n"));
 555               		.loc 1 120 3 view .LVU73
 556               	.LBB5:
 557               		.loc 1 120 14 view .LVU74
 558               		.loc 1 120 14 view .LVU75
 559               	.LBE5:
 560               		.loc 1 120 3 is_stmt 0 view .LVU76
 561 006e 80E0      		ldi r24,lo8(__c.2)
 562 0070 90E0      		ldi r25,hi8(__c.2)
 563 0072 9F93      		push r25
 564 0074 8F93      		push r24
 565 0076 0E94 0000 		call log_boot_P
 566               	.LVL34:
 121:main.c        **** 
 122:main.c        **** 		for(i = 32; i < 42; ++i)
 567               		.loc 1 122 3 is_stmt 1 view .LVU77
 568               		.loc 1 122 17 view .LVU78
 120:main.c        **** 
 569               		.loc 1 120 3 is_stmt 0 view .LVU79
 570 007a 0F90      		pop __tmp_reg__
 571 007c 0F90      		pop __tmp_reg__
 572 007e 30E2      		ldi r19,lo8(32)
 573 0080 C32E      		mov r12,r19
 574 0082 D12C      		mov r13,__zero_reg__
 575 0084 E12C      		mov r14,__zero_reg__
 576 0086 F12C      		mov r15,__zero_reg__
 123:main.c        **** 		{
 124:main.c        **** 			if((ret = sd_read(i, &buf)))
 577               		.loc 1 124 14 view .LVU80
 578 0088 8E01      		movw r16,r28
 579 008a 0F5F      		subi r16,-1
 580 008c 1F4F      		sbci r17,-1
 125:main.c        **** 			{
 126:main.c        **** 				log_boot_P(PSTR("error code = %d\n"), ret);
 581               		.loc 1 126 5 view .LVU81
 582 008e 40E0      		ldi r20,lo8(__c.1)
 583 0090 A42E      		mov r10,r20
 584 0092 40E0      		ldi r20,hi8(__c.1)
 585 0094 B42E      		mov r11,r20
 586               	.LVL35:
 587               	.L19:
 124:main.c        **** 			{
 588               		.loc 1 124 4 is_stmt 1 view .LVU82
 124:main.c        **** 			{
 589               		.loc 1 124 14 is_stmt 0 view .LVU83
 590 0096 A801      		movw r20,r16
 591 0098 C701      		movw r24,r14
 592 009a B601      		movw r22,r12
 593 009c 0E94 0000 		call sd_read
 594               	.LVL36:
 124:main.c        **** 			{
 595               		.loc 1 124 14 view .LVU84
 596 00a0 4801      		movw r8,r16
 124:main.c        **** 			{
 597               		.loc 1 124 6 view .LVU85
 598 00a2 8823      		tst r24
 599 00a4 01F0      		breq .L18
 600               		.loc 1 126 5 is_stmt 1 view .LVU86
 601               	.LBB6:
 602               		.loc 1 126 16 view .LVU87
 603               		.loc 1 126 16 view .LVU88
 604               	.LBE6:
 605               		.loc 1 126 5 is_stmt 0 view .LVU89
 606 00a6 1F92      		push __zero_reg__
 607 00a8 8F93      		push r24
 608 00aa BF92      		push r11
 609 00ac AF92      		push r10
 610 00ae 0E94 0000 		call log_boot_P
 611               	.LVL37:
 612               		.loc 1 126 5 view .LVU90
 613 00b2 0F90      		pop __tmp_reg__
 614 00b4 0F90      		pop __tmp_reg__
 615 00b6 0F90      		pop __tmp_reg__
 616 00b8 0F90      		pop __tmp_reg__
 617               	.L18:
 127:main.c        **** 			}
 128:main.c        **** 			memory_dump(i << 9, buf, sizeof(buf));
 618               		.loc 1 128 4 is_stmt 1 discriminator 2 view .LVU91
 619 00ba D701      		movw r26,r14
 620 00bc C601      		movw r24,r12
 621 00be 29E0      		ldi r18,9
 622               		1:
 623 00c0 880F      		lsl r24
 624 00c2 991F      		rol r25
 625 00c4 AA1F      		rol r26
 626 00c6 BB1F      		rol r27
 627 00c8 2A95      		dec r18
 628 00ca 01F4      		brne 1b
 629 00cc 20E0      		ldi r18,0
 630 00ce 32E0      		ldi r19,lo8(2)
 631 00d0 A401      		movw r20,r8
 632 00d2 BC01      		movw r22,r24
 633 00d4 CD01      		movw r24,r26
 634 00d6 0E94 0000 		call memory_dump
 635               	.LVL38:
 122:main.c        **** 		{
 636               		.loc 1 122 23 discriminator 2 view .LVU92
 122:main.c        **** 		{
 637               		.loc 1 122 17 discriminator 2 view .LVU93
 638 00da 9FEF      		ldi r25,-1
 639 00dc C91A      		sub r12,r25
 640 00de D90A      		sbc r13,r25
 641 00e0 E90A      		sbc r14,r25
 642 00e2 F90A      		sbc r15,r25
 643               	.LVL39:
 122:main.c        **** 		{
 644               		.loc 1 122 17 is_stmt 0 discriminator 2 view .LVU94
 645 00e4 AAE2      		ldi r26,42
 646 00e6 CA16      		cp r12,r26
 647 00e8 D104      		cpc r13,__zero_reg__
 648 00ea E104      		cpc r14,__zero_reg__
 649 00ec F104      		cpc r15,__zero_reg__
 650 00ee 01F4      		brne .L19
 651               	.LBE4:
 129:main.c        **** 		}
 130:main.c        **** 	}
 131:main.c        **** 
 132:main.c        **** 	serial_tx_str_P(PSTR("\nStarting RISC-V Emulator Kernel ...\n\n"));
 652               		.loc 1 132 2 is_stmt 1 view .LVU95
 653               	.LBB7:
 654               		.loc 1 132 18 view .LVU96
 655               		.loc 1 132 18 view .LVU97
 656               	.LBE7:
 657               		.loc 1 132 2 is_stmt 0 view .LVU98
 658 00f0 80E0      		ldi r24,lo8(__c.0)
 659 00f2 90E0      		ldi r25,hi8(__c.0)
 660 00f4 0E94 0000 		call serial_tx_str_P
 661               	.LVL40:
 662               	.L20:
 133:main.c        **** 
 134:main.c        **** 	/* Infinite loop */
 135:main.c        **** 	for(;;)
 663               		.loc 1 135 2 is_stmt 1 discriminator 1 view .LVU99
 136:main.c        **** 	{
 137:main.c        **** 	}
 664               		.loc 1 137 2 discriminator 1 view .LVU100
 135:main.c        **** 	{
 665               		.loc 1 135 2 discriminator 1 view .LVU101
 666 00f8 00C0      		rjmp .L20
 667               		.cfi_endproc
 668               	.LFE15:
 670               		.section	.progmem.data,"a",@progbits
 673               	__c.0:
 674 0000 0A53 7461 		.string	"\nStarting RISC-V Emulator Kernel ...\n\n"
 674      7274 696E 
 674      6720 5249 
 674      5343 2D56 
 674      2045 6D75 
 677               	__c.1:
 678 0027 6572 726F 		.string	"error code = %d\n"
 678      7220 636F 
 678      6465 203D 
 678      2025 640A 
 678      00
 681               	__c.2:
 682 0038 5072 696E 		.string	"Printing sectors\n"
 682      7469 6E67 
 682      2073 6563 
 682      746F 7273 
 682      0A00 
 685               	__c.3:
 686 004a 0A52 4541 		.string	"\nREADY.\n\n"
 686      4459 2E0A 
 686      0A00 
 689               	__c.4:
 690 0054 0A49 6D61 		.string	"\nImaginaryOS Version 0.1 Booting ...\n\n"
 690      6769 6E61 
 690      7279 4F53 
 690      2056 6572 
 690      7369 6F6E 
 691               		.text
 692               	.Letext0:
 693               		.file 2 "/usr/lib/gcc/avr/12.2.0/include/stdint-gcc.h"
 694               		.file 3 "../../types/types.h"
 695               		.file 4 "../../status/status.h"
 696               		.file 5 "lcd/lcd.h"
 697               		.file 6 "logger/logger.h"
 698               		.file 7 "sd/sd.h"
 699               		.file 8 "rtc/rtc.h"
 700               		.file 9 "ps2/ps2.h"
 701               		.file 10 "random/random.h"
 702               		.file 11 "adc/adc.h"
 703               		.file 12 "xmem/xmem.h"
 704               		.file 13 "spi/spi.h"
 705               		.file 14 "timer/timer.h"
 706               		.file 15 "serial/serial.h"
 707               		.file 16 "gpio/gpio.h"