   1               		.file	"xmem.c"
   2               	__SP_H__ = 0x3e
   3               	__SP_L__ = 0x3d
   4               	__SREG__ = 0x3f
   5               	__tmp_reg__ = 0
   6               	__zero_reg__ = 1
   7               		.text
   8               	.Ltext0:
   9               		.cfi_sections	.debug_frame
  10               		.file 0 "/home/files/osdev/platform/avr" "xmem/xmem.c"
  11               	.global	xmem_init
  13               	xmem_init:
  14               	.LFB16:
  15               		.file 1 "xmem/xmem.c"
   1:xmem/xmem.c   **** /**
   2:xmem/xmem.c   ****  * @file    xmem.c
   3:xmem/xmem.c   ****  * @author  Tim Gabrikowski, Anton Tchekov
   4:xmem/xmem.c   ****  * @version 0.1
   5:xmem/xmem.c   ****  * @date    01.05.2023
   6:xmem/xmem.c   ****  */
   7:xmem/xmem.c   **** 
   8:xmem/xmem.c   **** #include <xmem.h>
   9:xmem/xmem.c   **** #include <spi.h>
  10:xmem/xmem.c   **** #include <logger.h>
  11:xmem/xmem.c   **** #include <avr/io.h>
  12:xmem/xmem.c   **** #include <avr/pgmspace.h>
  13:xmem/xmem.c   **** #include <stdlib.h>
  14:xmem/xmem.c   **** 
  15:xmem/xmem.c   **** #define XMEM_CS_DIR           DDRB
  16:xmem/xmem.c   **** #define XMEM_CS_OUT           PORTB
  17:xmem/xmem.c   **** #define XMEM_CS_0             0
  18:xmem/xmem.c   **** #define XMEM_CS_1             1
  19:xmem/xmem.c   **** #define XMEM_CS_2             2
  20:xmem/xmem.c   **** 
  21:xmem/xmem.c   **** #define BANK_COUNT            3
  22:xmem/xmem.c   **** #define BANK_SIZE             0x20000UL
  23:xmem/xmem.c   **** #define OUTPUT_INTERVAL       0x2000UL
  24:xmem/xmem.c   **** #define DUMMY                 0xFF
  25:xmem/xmem.c   **** #define SEED                  42
  26:xmem/xmem.c   **** 
  27:xmem/xmem.c   **** /** Write block command */
  28:xmem/xmem.c   **** #define SRAM_COMMAND_WRITE    2
  29:xmem/xmem.c   **** 
  30:xmem/xmem.c   **** /** Read block command */
  31:xmem/xmem.c   **** #define SRAM_COMMAND_READ     3
  32:xmem/xmem.c   **** 
  33:xmem/xmem.c   **** /* --- PRIVATE --- */
  34:xmem/xmem.c   **** static void _xmem_select(u8 bank)
  35:xmem/xmem.c   **** {
  36:xmem/xmem.c   **** 	XMEM_CS_OUT &= ~(1 << bank);
  37:xmem/xmem.c   **** }
  38:xmem/xmem.c   **** 
  39:xmem/xmem.c   **** static void _configure_cs(void)
  40:xmem/xmem.c   **** {
  41:xmem/xmem.c   **** 	/* Chip select pins output */
  42:xmem/xmem.c   **** 	XMEM_CS_DIR |= (1 << XMEM_CS_0) | (1 << XMEM_CS_1) | (1 << XMEM_CS_2);
  43:xmem/xmem.c   **** }
  44:xmem/xmem.c   **** 
  45:xmem/xmem.c   **** static inline void _xmem_deselect_all(void)
  46:xmem/xmem.c   **** {
  47:xmem/xmem.c   **** 	XMEM_CS_OUT |= (1 << XMEM_CS_0) | (1 << XMEM_CS_1) | (1 << XMEM_CS_2);
  48:xmem/xmem.c   **** }
  49:xmem/xmem.c   **** 
  50:xmem/xmem.c   **** static inline void _xmem_deselect(u8 bank)
  51:xmem/xmem.c   **** {
  52:xmem/xmem.c   **** 	XMEM_CS_OUT |= (1 << bank);
  53:xmem/xmem.c   **** }
  54:xmem/xmem.c   **** 
  55:xmem/xmem.c   **** static void _xmem_start(u8 bank, u8 command, u32 addr)
  56:xmem/xmem.c   **** {
  57:xmem/xmem.c   **** 	_xmem_select(bank);
  58:xmem/xmem.c   **** 	spi_xchg(command);
  59:xmem/xmem.c   **** 	spi_xchg(addr >> 16);
  60:xmem/xmem.c   **** 	spi_xchg(addr >> 8);
  61:xmem/xmem.c   **** 	spi_xchg(addr);
  62:xmem/xmem.c   **** }
  63:xmem/xmem.c   **** 
  64:xmem/xmem.c   **** static void _memtest(void)
  65:xmem/xmem.c   **** {
  66:xmem/xmem.c   **** 	u8 bank, w, v;
  67:xmem/xmem.c   **** 	u32 i;
  68:xmem/xmem.c   **** 
  69:xmem/xmem.c   **** 	/* Run checkerboard memory test */
  70:xmem/xmem.c   **** 	log_boot_P(PSTR("Starting complete memory test"));
  71:xmem/xmem.c   **** 
  72:xmem/xmem.c   **** 	spi_fast();
  73:xmem/xmem.c   **** 	for(bank = 0; bank < BANK_COUNT; ++bank)
  74:xmem/xmem.c   **** 	{
  75:xmem/xmem.c   **** 		log_boot_P(PSTR("Testing memory bank [%02d]"), bank + 1);
  76:xmem/xmem.c   **** 
  77:xmem/xmem.c   **** 		/* Write */
  78:xmem/xmem.c   **** 		log_boot_P(PSTR("Writing pattern"));
  79:xmem/xmem.c   **** 		_xmem_start(bank, SRAM_COMMAND_WRITE, 0);
  80:xmem/xmem.c   **** 		/* srand(SEED); */
  81:xmem/xmem.c   **** 		v = 0xAA;
  82:xmem/xmem.c   **** 		for(i = 0; ; ++i)
  83:xmem/xmem.c   **** 		{
  84:xmem/xmem.c   **** 			v = ~v; /* rand(); */
  85:xmem/xmem.c   **** 			if(i % OUTPUT_INTERVAL == 0)
  86:xmem/xmem.c   **** 			{
  87:xmem/xmem.c   **** 				log_boot_P(PSTR("0x%06lX"), i);
  88:xmem/xmem.c   **** 			}
  89:xmem/xmem.c   **** 
  90:xmem/xmem.c   **** 			if(i >= BANK_SIZE)
  91:xmem/xmem.c   **** 			{
  92:xmem/xmem.c   **** 				break;
  93:xmem/xmem.c   **** 			}
  94:xmem/xmem.c   **** 
  95:xmem/xmem.c   **** 			spi_xchg(v);
  96:xmem/xmem.c   **** 		}
  97:xmem/xmem.c   **** 
  98:xmem/xmem.c   **** 		_xmem_deselect(bank);
  99:xmem/xmem.c   **** 
 100:xmem/xmem.c   **** 		/* Read */
 101:xmem/xmem.c   **** 		log_boot_P(PSTR("Verifying pattern"));
 102:xmem/xmem.c   **** 		_xmem_start(bank, SRAM_COMMAND_READ, 0);
 103:xmem/xmem.c   **** 		/* srand(SEED); */
 104:xmem/xmem.c   **** 		v = 0xAA;
 105:xmem/xmem.c   **** 		for(i = 0; ; ++i)
 106:xmem/xmem.c   **** 		{
 107:xmem/xmem.c   **** 			v = ~v; /* rand(); */
 108:xmem/xmem.c   **** 			if(i % OUTPUT_INTERVAL == 0)
 109:xmem/xmem.c   **** 			{
 110:xmem/xmem.c   **** 				log_boot_P(PSTR("0x%06lX"), i);
 111:xmem/xmem.c   **** 			}
 112:xmem/xmem.c   **** 
 113:xmem/xmem.c   **** 			if(i >= BANK_SIZE)
 114:xmem/xmem.c   **** 			{
 115:xmem/xmem.c   **** 				break;
 116:xmem/xmem.c   **** 			}
 117:xmem/xmem.c   **** 
 118:xmem/xmem.c   **** 			w = spi_xchg(DUMMY);
 119:xmem/xmem.c   **** 			if(w != v)
 120:xmem/xmem.c   **** 			{
 121:xmem/xmem.c   **** 				_xmem_deselect(bank);
 122:xmem/xmem.c   **** 				panic(PSTR(
 123:xmem/xmem.c   **** 					"Memory test failed at address 0x%06lX "
 124:xmem/xmem.c   **** 					"[0x%02X != 0x%02X]"),
 125:xmem/xmem.c   **** 					i, w, v);
 126:xmem/xmem.c   **** 			}
 127:xmem/xmem.c   **** 		}
 128:xmem/xmem.c   **** 
 129:xmem/xmem.c   **** 		_xmem_deselect(bank);
 130:xmem/xmem.c   **** 	}
 131:xmem/xmem.c   **** }
 132:xmem/xmem.c   **** 
 133:xmem/xmem.c   **** static void _xmem_read(u8 bank, u16 addr, void *data, u16 size)
 134:xmem/xmem.c   **** {
 135:xmem/xmem.c   **** 	u16 i;
 136:xmem/xmem.c   **** 	u8 *data8 = data;
 137:xmem/xmem.c   **** 	_xmem_start(bank, SRAM_COMMAND_READ, addr);
 138:xmem/xmem.c   **** 	for(i = 0; i < size; ++i)
 139:xmem/xmem.c   **** 	{
 140:xmem/xmem.c   **** 		data8[i] = spi_xchg(DUMMY);
 141:xmem/xmem.c   **** 	}
 142:xmem/xmem.c   **** 
 143:xmem/xmem.c   **** 	_xmem_deselect(bank);
 144:xmem/xmem.c   **** }
 145:xmem/xmem.c   **** 
 146:xmem/xmem.c   **** static void _xmem_write(u8 bank, u16 addr, void *data, u16 size)
 147:xmem/xmem.c   **** {
 148:xmem/xmem.c   **** 	u16 i;
 149:xmem/xmem.c   **** 	u8 *data8 = data;
 150:xmem/xmem.c   **** 	_xmem_start(bank, SRAM_COMMAND_WRITE, addr);
 151:xmem/xmem.c   **** 	for(i = 0; i < size; ++i)
 152:xmem/xmem.c   **** 	{
 153:xmem/xmem.c   **** 		spi_xchg(data8[i]);
 154:xmem/xmem.c   **** 	}
 155:xmem/xmem.c   **** 
 156:xmem/xmem.c   **** 	_xmem_deselect(bank);
 157:xmem/xmem.c   **** }
 158:xmem/xmem.c   **** 
 159:xmem/xmem.c   **** static void _xmem_set(u8 bank, u16 addr, u8 value, u16 size)
 160:xmem/xmem.c   **** {
 161:xmem/xmem.c   **** 	u16 i;
 162:xmem/xmem.c   **** 	_xmem_start(bank, SRAM_COMMAND_WRITE, addr);
 163:xmem/xmem.c   **** 	for(i = 0; i < size; ++i)
 164:xmem/xmem.c   **** 	{
 165:xmem/xmem.c   **** 		spi_xchg(value);
 166:xmem/xmem.c   **** 	}
 167:xmem/xmem.c   **** 
 168:xmem/xmem.c   **** 	_xmem_deselect(bank);
 169:xmem/xmem.c   **** }
 170:xmem/xmem.c   **** 
 171:xmem/xmem.c   **** /* --- PUBLIC --- */
 172:xmem/xmem.c   **** void xmem_init(void)
 173:xmem/xmem.c   **** {
  16               		.loc 1 173 1 view -0
  17               		.cfi_startproc
  18 0000 2F92      		push r2
  19               		.cfi_def_cfa_offset 3
  20               		.cfi_offset 2, -2
  21 0002 3F92      		push r3
  22               		.cfi_def_cfa_offset 4
  23               		.cfi_offset 3, -3
  24 0004 4F92      		push r4
  25               		.cfi_def_cfa_offset 5
  26               		.cfi_offset 4, -4
  27 0006 5F92      		push r5
  28               		.cfi_def_cfa_offset 6
  29               		.cfi_offset 5, -5
  30 0008 6F92      		push r6
  31               		.cfi_def_cfa_offset 7
  32               		.cfi_offset 6, -6
  33 000a 7F92      		push r7
  34               		.cfi_def_cfa_offset 8
  35               		.cfi_offset 7, -7
  36 000c 8F92      		push r8
  37               		.cfi_def_cfa_offset 9
  38               		.cfi_offset 8, -8
  39 000e 9F92      		push r9
  40               		.cfi_def_cfa_offset 10
  41               		.cfi_offset 9, -9
  42 0010 AF92      		push r10
  43               		.cfi_def_cfa_offset 11
  44               		.cfi_offset 10, -10
  45 0012 BF92      		push r11
  46               		.cfi_def_cfa_offset 12
  47               		.cfi_offset 11, -11
  48 0014 CF92      		push r12
  49               		.cfi_def_cfa_offset 13
  50               		.cfi_offset 12, -12
  51 0016 DF92      		push r13
  52               		.cfi_def_cfa_offset 14
  53               		.cfi_offset 13, -13
  54 0018 EF92      		push r14
  55               		.cfi_def_cfa_offset 15
  56               		.cfi_offset 14, -14
  57 001a FF92      		push r15
  58               		.cfi_def_cfa_offset 16
  59               		.cfi_offset 15, -15
  60 001c 0F93      		push r16
  61               		.cfi_def_cfa_offset 17
  62               		.cfi_offset 16, -16
  63 001e 1F93      		push r17
  64               		.cfi_def_cfa_offset 18
  65               		.cfi_offset 17, -17
  66 0020 CF93      		push r28
  67               		.cfi_def_cfa_offset 19
  68               		.cfi_offset 28, -18
  69 0022 DF93      		push r29
  70               		.cfi_def_cfa_offset 20
  71               		.cfi_offset 29, -19
  72               	/* prologue: function */
  73               	/* frame size = 0 */
  74               	/* stack size = 18 */
  75               	.L__stack_usage = 18
 174:xmem/xmem.c   **** 	/* Initialize XMEM */
 175:xmem/xmem.c   **** 	_configure_cs();
  76               		.loc 1 175 2 view .LVU1
  77               	.LBB30:
  78               	.LBI30:
  39:xmem/xmem.c   **** {
  79               		.loc 1 39 13 view .LVU2
  80               	.LBB31:
  42:xmem/xmem.c   **** }
  81               		.loc 1 42 2 view .LVU3
  82 0024 84B1      		in r24,0x4
  42:xmem/xmem.c   **** }
  83               		.loc 1 42 14 is_stmt 0 view .LVU4
  84 0026 8760      		ori r24,lo8(7)
  85 0028 84B9      		out 0x4,r24
  86               	.LBE31:
  87               	.LBE30:
 176:xmem/xmem.c   **** 	_xmem_deselect_all();
  88               		.loc 1 176 2 is_stmt 1 view .LVU5
  89               	.LBB32:
  90               	.LBI32:
  45:xmem/xmem.c   **** {
  91               		.loc 1 45 20 view .LVU6
  92               	.LBB33:
  47:xmem/xmem.c   **** }
  93               		.loc 1 47 2 view .LVU7
  94 002a 85B1      		in r24,0x5
  47:xmem/xmem.c   **** }
  95               		.loc 1 47 14 is_stmt 0 view .LVU8
  96 002c 8760      		ori r24,lo8(7)
  97 002e 85B9      		out 0x5,r24
  98               	.LBE33:
  99               	.LBE32:
 177:xmem/xmem.c   **** 	log_boot_P(PSTR("External memory driver initialized"));
 100               		.loc 1 177 2 is_stmt 1 view .LVU9
 101               	.LBB34:
 102               		.loc 1 177 13 view .LVU10
 103               		.loc 1 177 13 view .LVU11
 104               	.LBE34:
 105               		.loc 1 177 2 is_stmt 0 view .LVU12
 106 0030 80E0      		ldi r24,lo8(__c.7)
 107 0032 90E0      		ldi r25,hi8(__c.7)
 108 0034 9F93      		push r25
 109               		.cfi_def_cfa_offset 21
 110 0036 8F93      		push r24
 111               		.cfi_def_cfa_offset 22
 112 0038 0E94 0000 		call log_boot_P
 178:xmem/xmem.c   **** 	_memtest();
 113               		.loc 1 178 2 is_stmt 1 view .LVU13
 114               	.LBB35:
 115               	.LBI35:
  64:xmem/xmem.c   **** {
 116               		.loc 1 64 13 view .LVU14
 117               	.LBB36:
  66:xmem/xmem.c   **** 	u32 i;
 118               		.loc 1 66 2 view .LVU15
  67:xmem/xmem.c   **** 
 119               		.loc 1 67 2 view .LVU16
  70:xmem/xmem.c   **** 
 120               		.loc 1 70 2 view .LVU17
 121               	.LBE36:
  70:xmem/xmem.c   **** 
 122               		.loc 1 70 13 view .LVU18
  70:xmem/xmem.c   **** 
 123               		.loc 1 70 13 view .LVU19
 124               	.LBB55:
  70:xmem/xmem.c   **** 
 125               		.loc 1 70 2 is_stmt 0 view .LVU20
 126 003c 80E0      		ldi r24,lo8(__c.6)
 127 003e 90E0      		ldi r25,hi8(__c.6)
 128 0040 9F93      		push r25
 129               		.cfi_def_cfa_offset 23
 130 0042 8F93      		push r24
 131               		.cfi_def_cfa_offset 24
 132 0044 0E94 0000 		call log_boot_P
  72:xmem/xmem.c   **** 	for(bank = 0; bank < BANK_COUNT; ++bank)
 133               		.loc 1 72 2 is_stmt 1 view .LVU21
 134 0048 0E94 0000 		call spi_fast
  73:xmem/xmem.c   **** 	{
 135               		.loc 1 73 2 view .LVU22
  73:xmem/xmem.c   **** 	{
 136               		.loc 1 73 21 view .LVU23
  72:xmem/xmem.c   **** 	for(bank = 0; bank < BANK_COUNT; ++bank)
 137               		.loc 1 72 2 is_stmt 0 view .LVU24
 138 004c 0F90      		pop __tmp_reg__
 139 004e 0F90      		pop __tmp_reg__
 140 0050 0F90      		pop __tmp_reg__
 141 0052 0F90      		pop __tmp_reg__
 142               		.cfi_def_cfa_offset 20
 143 0054 C0E0      		ldi r28,0
 144 0056 D0E0      		ldi r29,0
  87:xmem/xmem.c   **** 			}
 145               		.loc 1 87 5 view .LVU25
 146 0058 20E0      		ldi r18,lo8(__c.3)
 147 005a A22E      		mov r10,r18
 148 005c 20E0      		ldi r18,hi8(__c.3)
 149 005e B22E      		mov r11,r18
 101:xmem/xmem.c   **** 		_xmem_start(bank, SRAM_COMMAND_READ, 0);
 150               		.loc 1 101 3 view .LVU26
 151 0060 30E0      		ldi r19,lo8(__c.2)
 152 0062 832E      		mov r8,r19
 153 0064 30E0      		ldi r19,hi8(__c.2)
 154 0066 932E      		mov r9,r19
 110:xmem/xmem.c   **** 			}
 155               		.loc 1 110 5 view .LVU27
 156 0068 40E0      		ldi r20,lo8(__c.1)
 157 006a E42E      		mov r14,r20
 158 006c 40E0      		ldi r20,hi8(__c.1)
 159 006e F42E      		mov r15,r20
 122:xmem/xmem.c   **** 					"Memory test failed at address 0x%06lX "
 160               		.loc 1 122 5 view .LVU28
 161 0070 50E0      		ldi r21,lo8(__c.0)
 162 0072 C52E      		mov r12,r21
 163 0074 50E0      		ldi r21,hi8(__c.0)
 164 0076 D52E      		mov r13,r21
 165               	.L9:
  75:xmem/xmem.c   **** 
 166               		.loc 1 75 3 is_stmt 1 view .LVU29
 167 0078 0C2F      		mov r16,r28
 168 007a 2196      		adiw r28,1
 169               	.LBE55:
  75:xmem/xmem.c   **** 
 170               		.loc 1 75 14 view .LVU30
  75:xmem/xmem.c   **** 
 171               		.loc 1 75 14 view .LVU31
 172               	.LBB56:
  75:xmem/xmem.c   **** 
 173               		.loc 1 75 3 is_stmt 0 view .LVU32
 174 007c DF93      		push r29
 175               		.cfi_def_cfa_offset 21
 176 007e CF93      		push r28
 177               		.cfi_def_cfa_offset 22
 178 0080 80E0      		ldi r24,lo8(__c.5)
 179 0082 90E0      		ldi r25,hi8(__c.5)
 180 0084 9F93      		push r25
 181               		.cfi_def_cfa_offset 23
 182 0086 8F93      		push r24
 183               		.cfi_def_cfa_offset 24
 184 0088 0E94 0000 		call log_boot_P
  78:xmem/xmem.c   **** 		_xmem_start(bank, SRAM_COMMAND_WRITE, 0);
 185               		.loc 1 78 3 is_stmt 1 view .LVU33
 186               	.LBE56:
  78:xmem/xmem.c   **** 		_xmem_start(bank, SRAM_COMMAND_WRITE, 0);
 187               		.loc 1 78 14 view .LVU34
  78:xmem/xmem.c   **** 		_xmem_start(bank, SRAM_COMMAND_WRITE, 0);
 188               		.loc 1 78 14 view .LVU35
 189               	.LBB57:
  78:xmem/xmem.c   **** 		_xmem_start(bank, SRAM_COMMAND_WRITE, 0);
 190               		.loc 1 78 3 is_stmt 0 view .LVU36
 191 008c 80E0      		ldi r24,lo8(__c.4)
 192 008e 90E0      		ldi r25,hi8(__c.4)
 193 0090 9F93      		push r25
 194               		.cfi_def_cfa_offset 25
 195 0092 8F93      		push r24
 196               		.cfi_def_cfa_offset 26
 197 0094 0E94 0000 		call log_boot_P
  79:xmem/xmem.c   **** 		/* srand(SEED); */
 198               		.loc 1 79 3 is_stmt 1 view .LVU37
 199               	.LBB37:
 200               	.LBI37:
  55:xmem/xmem.c   **** {
 201               		.loc 1 55 13 view .LVU38
 202               	.LBB38:
  57:xmem/xmem.c   **** 	spi_xchg(command);
 203               		.loc 1 57 2 view .LVU39
 204               	.LBB39:
 205               	.LBI39:
  34:xmem/xmem.c   **** {
 206               		.loc 1 34 13 view .LVU40
 207               	.LBB40:
  36:xmem/xmem.c   **** }
 208               		.loc 1 36 2 view .LVU41
 209 0098 85B1      		in r24,0x5
  36:xmem/xmem.c   **** }
 210               		.loc 1 36 21 is_stmt 0 view .LVU42
 211 009a 21E0      		ldi r18,lo8(1)
 212 009c 30E0      		ldi r19,0
 213 009e 00C0      		rjmp 2f
 214               		1:
 215 00a0 220F      		lsl r18
 216 00a2 331F      		rol r19
 217               		2:
 218 00a4 0A95      		dec r16
 219 00a6 02F4      		brpl 1b
 220 00a8 8901      		movw r16,r18
  36:xmem/xmem.c   **** }
 221               		.loc 1 36 14 view .LVU43
 222 00aa 222E      		mov r2,r18
 223 00ac 2094      		com r2
 224 00ae 8221      		and r24,r2
 225 00b0 85B9      		out 0x5,r24
 226               	.LBE40:
 227               	.LBE39:
  58:xmem/xmem.c   **** 	spi_xchg(addr >> 16);
 228               		.loc 1 58 2 is_stmt 1 view .LVU44
 229 00b2 82E0      		ldi r24,lo8(2)
 230 00b4 0E94 0000 		call spi_xchg
  59:xmem/xmem.c   **** 	spi_xchg(addr >> 8);
 231               		.loc 1 59 2 view .LVU45
 232 00b8 80E0      		ldi r24,0
 233 00ba 0E94 0000 		call spi_xchg
  60:xmem/xmem.c   **** 	spi_xchg(addr);
 234               		.loc 1 60 2 view .LVU46
 235 00be 80E0      		ldi r24,0
 236 00c0 0E94 0000 		call spi_xchg
  61:xmem/xmem.c   **** }
 237               		.loc 1 61 2 view .LVU47
 238 00c4 80E0      		ldi r24,0
 239 00c6 0E94 0000 		call spi_xchg
 240               	.LBE38:
 241               	.LBE37:
  81:xmem/xmem.c   **** 		for(i = 0; ; ++i)
 242               		.loc 1 81 3 view .LVU48
  82:xmem/xmem.c   **** 		{
 243               		.loc 1 82 3 view .LVU49
 244               	.LBB42:
 245               	.LBB41:
  61:xmem/xmem.c   **** }
 246               		.loc 1 61 2 is_stmt 0 view .LVU50
 247 00ca 0F90      		pop __tmp_reg__
 248 00cc 0F90      		pop __tmp_reg__
 249 00ce 0F90      		pop __tmp_reg__
 250 00d0 0F90      		pop __tmp_reg__
 251 00d2 0F90      		pop __tmp_reg__
 252 00d4 0F90      		pop __tmp_reg__
 253               		.cfi_def_cfa_offset 20
 254               	.LBE41:
 255               	.LBE42:
  82:xmem/xmem.c   **** 		{
 256               		.loc 1 82 9 view .LVU51
 257 00d6 412C      		mov r4,__zero_reg__
 258 00d8 512C      		mov r5,__zero_reg__
 259 00da 3201      		movw r6,r4
  81:xmem/xmem.c   **** 		for(i = 0; ; ++i)
 260               		.loc 1 81 5 view .LVU52
 261 00dc 9AEA      		ldi r25,lo8(-86)
 262 00de 392E      		mov r3,r25
 263               	.L4:
  84:xmem/xmem.c   **** 			if(i % OUTPUT_INTERVAL == 0)
 264               		.loc 1 84 4 is_stmt 1 view .LVU53
  84:xmem/xmem.c   **** 			if(i % OUTPUT_INTERVAL == 0)
 265               		.loc 1 84 6 is_stmt 0 view .LVU54
 266 00e0 3094      		com r3
  85:xmem/xmem.c   **** 			{
 267               		.loc 1 85 4 is_stmt 1 view .LVU55
  85:xmem/xmem.c   **** 			{
 268               		.loc 1 85 9 is_stmt 0 view .LVU56
 269 00e2 D301      		movw r26,r6
 270 00e4 C201      		movw r24,r4
 271 00e6 9F71      		andi r25,31
 272 00e8 AA27      		clr r26
 273 00ea BB27      		clr r27
  85:xmem/xmem.c   **** 			{
 274               		.loc 1 85 6 view .LVU57
 275 00ec 892B      		or r24,r25
 276 00ee 8A2B      		or r24,r26
 277 00f0 8B2B      		or r24,r27
 278 00f2 01F4      		brne .L2
  87:xmem/xmem.c   **** 			}
 279               		.loc 1 87 5 is_stmt 1 view .LVU58
 280               	.LBE57:
  87:xmem/xmem.c   **** 			}
 281               		.loc 1 87 16 view .LVU59
  87:xmem/xmem.c   **** 			}
 282               		.loc 1 87 16 view .LVU60
 283               	.LBB58:
  87:xmem/xmem.c   **** 			}
 284               		.loc 1 87 5 is_stmt 0 view .LVU61
 285 00f4 7F92      		push r7
 286               		.cfi_def_cfa_offset 21
 287 00f6 6F92      		push r6
 288               		.cfi_def_cfa_offset 22
 289 00f8 5F92      		push r5
 290               		.cfi_def_cfa_offset 23
 291 00fa 4F92      		push r4
 292               		.cfi_def_cfa_offset 24
 293 00fc BF92      		push r11
 294               		.cfi_def_cfa_offset 25
 295 00fe AF92      		push r10
 296               		.cfi_def_cfa_offset 26
 297 0100 0E94 0000 		call log_boot_P
 298 0104 0F90      		pop __tmp_reg__
 299 0106 0F90      		pop __tmp_reg__
 300 0108 0F90      		pop __tmp_reg__
 301 010a 0F90      		pop __tmp_reg__
 302 010c 0F90      		pop __tmp_reg__
 303 010e 0F90      		pop __tmp_reg__
 304               		.cfi_def_cfa_offset 20
 305               	.L2:
  90:xmem/xmem.c   **** 			{
 306               		.loc 1 90 4 is_stmt 1 view .LVU62
  90:xmem/xmem.c   **** 			{
 307               		.loc 1 90 6 is_stmt 0 view .LVU63
 308 0110 4114      		cp r4,__zero_reg__
 309 0112 5104      		cpc r5,__zero_reg__
 310 0114 32E0      		ldi r19,2
 311 0116 6306      		cpc r6,r19
 312 0118 7104      		cpc r7,__zero_reg__
 313 011a 01F0      		breq .L3
  95:xmem/xmem.c   **** 		}
 314               		.loc 1 95 4 is_stmt 1 view .LVU64
 315 011c 832D      		mov r24,r3
 316 011e 0E94 0000 		call spi_xchg
  82:xmem/xmem.c   **** 		{
 317               		.loc 1 82 16 view .LVU65
 318 0122 8FEF      		ldi r24,-1
 319 0124 481A      		sub r4,r24
 320 0126 580A      		sbc r5,r24
 321 0128 680A      		sbc r6,r24
 322 012a 780A      		sbc r7,r24
  82:xmem/xmem.c   **** 		{
 323               		.loc 1 82 3 view .LVU66
  84:xmem/xmem.c   **** 			if(i % OUTPUT_INTERVAL == 0)
 324               		.loc 1 84 6 is_stmt 0 view .LVU67
 325 012c 00C0      		rjmp .L4
 326               	.L3:
  98:xmem/xmem.c   **** 
 327               		.loc 1 98 3 is_stmt 1 view .LVU68
 328               	.LBB43:
 329               	.LBI43:
  50:xmem/xmem.c   **** {
 330               		.loc 1 50 20 view .LVU69
 331               	.LBB44:
  52:xmem/xmem.c   **** }
 332               		.loc 1 52 2 view .LVU70
 333 012e 85B1      		in r24,0x5
 334 0130 302E      		mov r3,r16
  52:xmem/xmem.c   **** }
 335               		.loc 1 52 14 is_stmt 0 view .LVU71
 336 0132 802B      		or r24,r16
 337 0134 85B9      		out 0x5,r24
 338               	.LBE44:
 339               	.LBE43:
 101:xmem/xmem.c   **** 		_xmem_start(bank, SRAM_COMMAND_READ, 0);
 340               		.loc 1 101 3 is_stmt 1 view .LVU72
 341               	.LBE58:
 101:xmem/xmem.c   **** 		_xmem_start(bank, SRAM_COMMAND_READ, 0);
 342               		.loc 1 101 14 view .LVU73
 101:xmem/xmem.c   **** 		_xmem_start(bank, SRAM_COMMAND_READ, 0);
 343               		.loc 1 101 14 view .LVU74
 344               	.LBB59:
 101:xmem/xmem.c   **** 		_xmem_start(bank, SRAM_COMMAND_READ, 0);
 345               		.loc 1 101 3 is_stmt 0 view .LVU75
 346 0136 9F92      		push r9
 347               		.cfi_def_cfa_offset 21
 348 0138 8F92      		push r8
 349               		.cfi_def_cfa_offset 22
 350 013a 0E94 0000 		call log_boot_P
 102:xmem/xmem.c   **** 		/* srand(SEED); */
 351               		.loc 1 102 3 is_stmt 1 view .LVU76
 352               	.LBB45:
 353               	.LBI45:
  55:xmem/xmem.c   **** {
 354               		.loc 1 55 13 view .LVU77
 355               	.LBB46:
  57:xmem/xmem.c   **** 	spi_xchg(command);
 356               		.loc 1 57 2 view .LVU78
 357               	.LBB47:
 358               	.LBI47:
  34:xmem/xmem.c   **** {
 359               		.loc 1 34 13 view .LVU79
 360               	.LBB48:
  36:xmem/xmem.c   **** }
 361               		.loc 1 36 2 view .LVU80
 362 013e 85B1      		in r24,0x5
  36:xmem/xmem.c   **** }
 363               		.loc 1 36 14 is_stmt 0 view .LVU81
 364 0140 2822      		and r2,r24
 365 0142 25B8      		out 0x5,r2
 366               	.LBE48:
 367               	.LBE47:
  58:xmem/xmem.c   **** 	spi_xchg(addr >> 16);
 368               		.loc 1 58 2 is_stmt 1 view .LVU82
 369 0144 83E0      		ldi r24,lo8(3)
 370 0146 0E94 0000 		call spi_xchg
  59:xmem/xmem.c   **** 	spi_xchg(addr >> 8);
 371               		.loc 1 59 2 view .LVU83
 372 014a 80E0      		ldi r24,0
 373 014c 0E94 0000 		call spi_xchg
  60:xmem/xmem.c   **** 	spi_xchg(addr);
 374               		.loc 1 60 2 view .LVU84
 375 0150 80E0      		ldi r24,0
 376 0152 0E94 0000 		call spi_xchg
  61:xmem/xmem.c   **** }
 377               		.loc 1 61 2 view .LVU85
 378 0156 80E0      		ldi r24,0
 379 0158 0E94 0000 		call spi_xchg
 380               	.LBE46:
 381               	.LBE45:
 104:xmem/xmem.c   **** 		for(i = 0; ; ++i)
 382               		.loc 1 104 3 view .LVU86
 105:xmem/xmem.c   **** 		{
 383               		.loc 1 105 3 view .LVU87
 384               	.LBB50:
 385               	.LBB49:
  61:xmem/xmem.c   **** }
 386               		.loc 1 61 2 is_stmt 0 view .LVU88
 387 015c 0F90      		pop __tmp_reg__
 388 015e 0F90      		pop __tmp_reg__
 389               		.cfi_def_cfa_offset 20
 390               	.LBE49:
 391               	.LBE50:
 105:xmem/xmem.c   **** 		{
 392               		.loc 1 105 9 view .LVU89
 393 0160 412C      		mov r4,__zero_reg__
 394 0162 512C      		mov r5,__zero_reg__
 395 0164 3201      		movw r6,r4
 104:xmem/xmem.c   **** 		for(i = 0; ; ++i)
 396               		.loc 1 104 5 view .LVU90
 397 0166 8AEA      		ldi r24,lo8(-86)
 398 0168 282E      		mov r2,r24
 399               	.L8:
 107:xmem/xmem.c   **** 			if(i % OUTPUT_INTERVAL == 0)
 400               		.loc 1 107 4 is_stmt 1 view .LVU91
 107:xmem/xmem.c   **** 			if(i % OUTPUT_INTERVAL == 0)
 401               		.loc 1 107 6 is_stmt 0 view .LVU92
 402 016a 2094      		com r2
 108:xmem/xmem.c   **** 			{
 403               		.loc 1 108 4 is_stmt 1 view .LVU93
 108:xmem/xmem.c   **** 			{
 404               		.loc 1 108 9 is_stmt 0 view .LVU94
 405 016c D301      		movw r26,r6
 406 016e C201      		movw r24,r4
 407 0170 9F71      		andi r25,31
 408 0172 AA27      		clr r26
 409 0174 BB27      		clr r27
 108:xmem/xmem.c   **** 			{
 410               		.loc 1 108 6 view .LVU95
 411 0176 892B      		or r24,r25
 412 0178 8A2B      		or r24,r26
 413 017a 8B2B      		or r24,r27
 414 017c 01F4      		brne .L5
 110:xmem/xmem.c   **** 			}
 415               		.loc 1 110 5 is_stmt 1 view .LVU96
 416               	.LBE59:
 110:xmem/xmem.c   **** 			}
 417               		.loc 1 110 16 view .LVU97
 110:xmem/xmem.c   **** 			}
 418               		.loc 1 110 16 view .LVU98
 419               	.LBB60:
 110:xmem/xmem.c   **** 			}
 420               		.loc 1 110 5 is_stmt 0 view .LVU99
 421 017e 7F92      		push r7
 422               		.cfi_def_cfa_offset 21
 423 0180 6F92      		push r6
 424               		.cfi_def_cfa_offset 22
 425 0182 5F92      		push r5
 426               		.cfi_def_cfa_offset 23
 427 0184 4F92      		push r4
 428               		.cfi_def_cfa_offset 24
 429 0186 FF92      		push r15
 430               		.cfi_def_cfa_offset 25
 431 0188 EF92      		push r14
 432               		.cfi_def_cfa_offset 26
 433 018a 0E94 0000 		call log_boot_P
 434 018e 0F90      		pop __tmp_reg__
 435 0190 0F90      		pop __tmp_reg__
 436 0192 0F90      		pop __tmp_reg__
 437 0194 0F90      		pop __tmp_reg__
 438 0196 0F90      		pop __tmp_reg__
 439 0198 0F90      		pop __tmp_reg__
 440               		.cfi_def_cfa_offset 20
 441               	.L5:
 113:xmem/xmem.c   **** 			{
 442               		.loc 1 113 4 is_stmt 1 view .LVU100
 113:xmem/xmem.c   **** 			{
 443               		.loc 1 113 6 is_stmt 0 view .LVU101
 444 019a 4114      		cp r4,__zero_reg__
 445 019c 5104      		cpc r5,__zero_reg__
 446 019e 92E0      		ldi r25,2
 447 01a0 6906      		cpc r6,r25
 448 01a2 7104      		cpc r7,__zero_reg__
 449 01a4 01F0      		breq .L6
 118:xmem/xmem.c   **** 			if(w != v)
 450               		.loc 1 118 4 is_stmt 1 view .LVU102
 118:xmem/xmem.c   **** 			if(w != v)
 451               		.loc 1 118 8 is_stmt 0 view .LVU103
 452 01a6 8FEF      		ldi r24,lo8(-1)
 453 01a8 0E94 0000 		call spi_xchg
 119:xmem/xmem.c   **** 			{
 454               		.loc 1 119 4 is_stmt 1 view .LVU104
 119:xmem/xmem.c   **** 			{
 455               		.loc 1 119 6 is_stmt 0 view .LVU105
 456 01ac 2816      		cp r2,r24
 457 01ae 01F0      		breq .L7
 121:xmem/xmem.c   **** 				panic(PSTR(
 458               		.loc 1 121 5 is_stmt 1 view .LVU106
 459               	.LBB51:
 460               	.LBI51:
  50:xmem/xmem.c   **** {
 461               		.loc 1 50 20 view .LVU107
 462               	.LBB52:
  52:xmem/xmem.c   **** }
 463               		.loc 1 52 2 view .LVU108
 464 01b0 95B1      		in r25,0x5
  52:xmem/xmem.c   **** }
 465               		.loc 1 52 14 is_stmt 0 view .LVU109
 466 01b2 9329      		or r25,r3
 467 01b4 95B9      		out 0x5,r25
 468               	.LBE52:
 469               	.LBE51:
 122:xmem/xmem.c   **** 					"Memory test failed at address 0x%06lX "
 470               		.loc 1 122 5 is_stmt 1 view .LVU110
 471               	.LBE60:
 122:xmem/xmem.c   **** 					"Memory test failed at address 0x%06lX "
 472               		.loc 1 122 11 view .LVU111
 122:xmem/xmem.c   **** 					"Memory test failed at address 0x%06lX "
 473               		.loc 1 122 11 view .LVU112
 474               	.LBB61:
 122:xmem/xmem.c   **** 					"Memory test failed at address 0x%06lX "
 475               		.loc 1 122 5 is_stmt 0 view .LVU113
 476 01b6 1F92      		push __zero_reg__
 477               		.cfi_def_cfa_offset 21
 478 01b8 2F92      		push r2
 479               		.cfi_def_cfa_offset 22
 480 01ba 1F92      		push __zero_reg__
 481               		.cfi_def_cfa_offset 23
 482 01bc 8F93      		push r24
 483               		.cfi_def_cfa_offset 24
 484 01be 7F92      		push r7
 485               		.cfi_def_cfa_offset 25
 486 01c0 6F92      		push r6
 487               		.cfi_def_cfa_offset 26
 488 01c2 5F92      		push r5
 489               		.cfi_def_cfa_offset 27
 490 01c4 4F92      		push r4
 491               		.cfi_def_cfa_offset 28
 492 01c6 DF92      		push r13
 493               		.cfi_def_cfa_offset 29
 494 01c8 CF92      		push r12
 495               		.cfi_def_cfa_offset 30
 496 01ca 0E94 0000 		call panic
 497 01ce 2DB7      		in r18,__SP_L__
 498 01d0 3EB7      		in r19,__SP_H__
 499 01d2 265F      		subi r18,-10
 500 01d4 3F4F      		sbci r19,-1
 501 01d6 0FB6      		in __tmp_reg__,__SREG__
 502 01d8 F894      		cli
 503 01da 3EBF      		out __SP_H__,r19
 504 01dc 0FBE      		out __SREG__,__tmp_reg__
 505 01de 2DBF      		out __SP_L__,r18
 506               		.cfi_def_cfa_offset 20
 507               	.L7:
 105:xmem/xmem.c   **** 		{
 508               		.loc 1 105 16 is_stmt 1 view .LVU114
 509 01e0 3FEF      		ldi r19,-1
 510 01e2 431A      		sub r4,r19
 511 01e4 530A      		sbc r5,r19
 512 01e6 630A      		sbc r6,r19
 513 01e8 730A      		sbc r7,r19
 105:xmem/xmem.c   **** 		{
 514               		.loc 1 105 3 view .LVU115
 107:xmem/xmem.c   **** 			if(i % OUTPUT_INTERVAL == 0)
 515               		.loc 1 107 6 is_stmt 0 view .LVU116
 516 01ea 00C0      		rjmp .L8
 517               	.L6:
 129:xmem/xmem.c   **** 	}
 518               		.loc 1 129 3 is_stmt 1 view .LVU117
 519               	.LBB53:
 520               	.LBI53:
  50:xmem/xmem.c   **** {
 521               		.loc 1 50 20 view .LVU118
 522               	.LBB54:
  52:xmem/xmem.c   **** }
 523               		.loc 1 52 2 view .LVU119
 524 01ec 85B1      		in r24,0x5
  52:xmem/xmem.c   **** }
 525               		.loc 1 52 14 is_stmt 0 view .LVU120
 526 01ee 802B      		or r24,r16
 527 01f0 85B9      		out 0x5,r24
 528               	.LBE54:
 529               	.LBE53:
  73:xmem/xmem.c   **** 	{
 530               		.loc 1 73 35 is_stmt 1 view .LVU121
  73:xmem/xmem.c   **** 	{
 531               		.loc 1 73 21 view .LVU122
 532 01f2 C330      		cpi r28,3
 533 01f4 D105      		cpc r29,__zero_reg__
 534 01f6 01F0      		breq .+2
 535 01f8 00C0      		rjmp .L9
 536               	/* epilogue start */
 537               	.LBE61:
 538               	.LBE35:
 179:xmem/xmem.c   **** }
 539               		.loc 1 179 1 is_stmt 0 view .LVU123
 540 01fa DF91      		pop r29
 541 01fc CF91      		pop r28
 542 01fe 1F91      		pop r17
 543 0200 0F91      		pop r16
 544 0202 FF90      		pop r15
 545 0204 EF90      		pop r14
 546 0206 DF90      		pop r13
 547 0208 CF90      		pop r12
 548 020a BF90      		pop r11
 549 020c AF90      		pop r10
 550 020e 9F90      		pop r9
 551 0210 8F90      		pop r8
 552 0212 7F90      		pop r7
 553 0214 6F90      		pop r6
 554 0216 5F90      		pop r5
 555 0218 4F90      		pop r4
 556 021a 3F90      		pop r3
 557 021c 2F90      		pop r2
 558 021e 0895      		ret
 559               		.cfi_endproc
 560               	.LFE16:
 562               	.global	xmem_read
 564               	xmem_read:
 565               	.LVL0:
 566               	.LFB17:
 180:xmem/xmem.c   **** 
 181:xmem/xmem.c   **** void xmem_read(u32 addr, void *data, u16 size)
 182:xmem/xmem.c   **** {
 567               		.loc 1 182 1 is_stmt 1 view -0
 568               		.cfi_startproc
 569               	/* prologue: function */
 570               	/* frame size = 0 */
 571               	/* stack size = 0 */
 572               	.L__stack_usage = 0
 183:xmem/xmem.c   **** }
 573               		.loc 1 183 1 view .LVU125
 574               	/* epilogue start */
 575 0220 0895      		ret
 576               		.cfi_endproc
 577               	.LFE17:
 579               	.global	xmem_write
 581               	xmem_write:
 582               	.LFB21:
 583               		.cfi_startproc
 184:xmem/xmem.c   **** 
 185:xmem/xmem.c   **** void xmem_write(u32 addr, const void *data, u16 size)
 584               		.loc 1 185 6 view .LVU126
 585               	/* prologue: function */
 586               	/* frame size = 0 */
 587               	/* stack size = 0 */
 588               	.L__stack_usage = 0
 589               	/* epilogue start */
 590 0222 0895      		ret
 591               		.cfi_endproc
 592               	.LFE21:
 594               	.global	xmem_set
 596               	xmem_set:
 597               	.LVL1:
 598               	.LFB19:
 186:xmem/xmem.c   **** {
 187:xmem/xmem.c   **** }
 188:xmem/xmem.c   **** 
 189:xmem/xmem.c   **** void xmem_set(u32 addr, u8 value, u16 size)
 190:xmem/xmem.c   **** {
 599               		.loc 1 190 1 view -0
 600               		.cfi_startproc
 601               	/* prologue: function */
 602               	/* frame size = 0 */
 603               	/* stack size = 0 */
 604               	.L__stack_usage = 0
 191:xmem/xmem.c   **** }
 605               		.loc 1 191 1 view .LVU128
 606               	/* epilogue start */
 607 0224 0895      		ret
 608               		.cfi_endproc
 609               	.LFE19:
 611               		.section	.progmem.data,"a",@progbits
 614               	__c.0:
 615 0000 4D65 6D6F 		.string	"Memory test failed at address 0x%06lX [0x%02X != 0x%02X]"
 615      7279 2074 
 615      6573 7420 
 615      6661 696C 
 615      6564 2061 
 618               	__c.1:
 619 0039 3078 2530 		.string	"0x%06lX"
 619      366C 5800 
 622               	__c.2:
 623 0041 5665 7269 		.string	"Verifying pattern"
 623      6679 696E 
 623      6720 7061 
 623      7474 6572 
 623      6E00 
 626               	__c.3:
 627 0053 3078 2530 		.string	"0x%06lX"
 627      366C 5800 
 630               	__c.4:
 631 005b 5772 6974 		.string	"Writing pattern"
 631      696E 6720 
 631      7061 7474 
 631      6572 6E00 
 634               	__c.5:
 635 006b 5465 7374 		.string	"Testing memory bank [%02d]"
 635      696E 6720 
 635      6D65 6D6F 
 635      7279 2062 
 635      616E 6B20 
 638               	__c.6:
 639 0086 5374 6172 		.string	"Starting complete memory test"
 639      7469 6E67 
 639      2063 6F6D 
 639      706C 6574 
 639      6520 6D65 
 642               	__c.7:
 643 00a4 4578 7465 		.string	"External memory driver initialized"
 643      726E 616C 
 643      206D 656D 
 643      6F72 7920 
 643      6472 6976 
 644               		.text
 645               	.Letext0:
 646               		.file 2 "/usr/lib/gcc/avr/12.2.0/include/stdint-gcc.h"
 647               		.file 3 "../../types/types.h"
 648               		.file 4 "logger/logger.h"
 649               		.file 5 "spi/spi.h"