   1               		.file	"lcd.c"
   2               	__SP_H__ = 0x3e
   3               	__SP_L__ = 0x3d
   4               	__SREG__ = 0x3f
   5               	__tmp_reg__ = 0
   6               	__zero_reg__ = 1
   7               		.text
   8               	.Ltext0:
   9               		.cfi_sections	.debug_frame
  10               		.file 0 "/home/files/osdev/platform/avr" "lcd/lcd.c"
  11               	.global	lcd_init
  13               	lcd_init:
  14               	.LFB3:
  15               		.file 1 "lcd/lcd.c"
   1:lcd/lcd.c     **** /**
   2:lcd/lcd.c     ****  * @file    asynclcd.c
   3:lcd/lcd.c     ****  * @author  Anton Tchekov
   4:lcd/lcd.c     ****  * @version 0.1
   5:lcd/lcd.c     ****  * @date    12.04.2023
   6:lcd/lcd.c     ****  */
   7:lcd/lcd.c     **** 
   8:lcd/lcd.c     **** #include <lcd.h>
   9:lcd/lcd.c     **** 
  10:lcd/lcd.c     **** /* --- CONSTANTS --- */
  11:lcd/lcd.c     **** #define PERIPH_BASE        0x40000000
  12:lcd/lcd.c     **** #define AHB1PERIPH_BASE    (PERIPH_BASE + 0x20000)
  13:lcd/lcd.c     **** 
  14:lcd/lcd.c     **** /* LCD DC */
  15:lcd/lcd.c     **** #define GPIOF_BASE         (AHB1PERIPH_BASE + 0x1400)
  16:lcd/lcd.c     **** #define GPIOF_BSRR         (GPIOF_BASE + 0x18)
  17:lcd/lcd.c     **** #define GPIO_PIN_13        0x2000
  18:lcd/lcd.c     **** 
  19:lcd/lcd.c     **** /* LCD CS */
  20:lcd/lcd.c     **** #define GPIOD_BASE         (AHB1PERIPH_BASE + 0x0C00)
  21:lcd/lcd.c     **** #define GPIOD_BSRR         (GPIOD_BASE + 0x18)
  22:lcd/lcd.c     **** #define GPIO_PIN_14        0x4000
  23:lcd/lcd.c     **** 
  24:lcd/lcd.c     **** /* SPI */
  25:lcd/lcd.c     **** #define APB2PERIPH_BASE    (PERIPH_BASE + 0x10000)
  26:lcd/lcd.c     **** #define SPI1_BASE          (APB2PERIPH_BASE + 0x3000)
  27:lcd/lcd.c     **** #define SPI1_SR            (SPI1_BASE + 0x08)
  28:lcd/lcd.c     **** #define SPI1_DR            (SPI1_BASE + 0x0C)
  29:lcd/lcd.c     **** 
  30:lcd/lcd.c     **** #define SPI_SR_RXNE        (1 << 0)
  31:lcd/lcd.c     **** #define SPI_SR_TXE         (1 << 1)
  32:lcd/lcd.c     **** #define SPI_SR_BSY         (1 << 7)
  33:lcd/lcd.c     **** 
  34:lcd/lcd.c     **** #define LCD_DC_0           *(volatile u32 *)GPIOF_BSRR |= GPIO_PIN_13 << 16
  35:lcd/lcd.c     **** #define LCD_DC_1           *(volatile u32 *)GPIOF_BSRR |= GPIO_PIN_13
  36:lcd/lcd.c     **** 
  37:lcd/lcd.c     **** #define LCD_CS_0           *(volatile u32 *)GPIOD_BSRR |= GPIO_PIN_14 << 16
  38:lcd/lcd.c     **** #define LCD_CS_1           *(volatile u32 *)GPIOD_BSRR |= GPIO_PIN_14
  39:lcd/lcd.c     **** 
  40:lcd/lcd.c     **** #define SR                 *(volatile u32 *)SPI1_SR
  41:lcd/lcd.c     **** #define DR                 *(volatile u32 *)SPI1_DR
  42:lcd/lcd.c     **** 
  43:lcd/lcd.c     **** /* --- PRIVATE ---  */
  44:lcd/lcd.c     **** #define STATE_TX_WAIT      0
  45:lcd/lcd.c     **** #define STATE_RX_WAIT      1
  46:lcd/lcd.c     **** #define STATE_BUSY_WAIT    2
  47:lcd/lcd.c     **** 
  48:lcd/lcd.c     **** #define TYPE_EMPTY         0
  49:lcd/lcd.c     **** #define TYPE_CMD           1
  50:lcd/lcd.c     **** #define TYPE_PARAM0        2
  51:lcd/lcd.c     **** #define TYPE_PARAM1        3
  52:lcd/lcd.c     **** #define TYPE_DATA          4
  53:lcd/lcd.c     **** 
  54:lcd/lcd.c     **** #define MAX_COMMANDS       (1 << 7)
  55:lcd/lcd.c     **** #define BUFFER_MASK        (MAX_COMMANDS - 1)
  56:lcd/lcd.c     **** 
  57:lcd/lcd.c     **** #define RCT_RECT           0
  58:lcd/lcd.c     **** #define RCT_CHAR           1
  59:lcd/lcd.c     **** 
  60:lcd/lcd.c     **** #define FONT_WIDTH         5
  61:lcd/lcd.c     **** #define FONT_HEIGHT        7
  62:lcd/lcd.c     **** 
  63:lcd/lcd.c     **** typedef struct
  64:lcd/lcd.c     **** {
  65:lcd/lcd.c     **** 	u8 Type;
  66:lcd/lcd.c     **** 	i32 Char;
  67:lcd/lcd.c     **** 	u16 X, Y, W, H;
  68:lcd/lcd.c     **** 	u16 FG, BG;
  69:lcd/lcd.c     **** } RenderCommand;
  70:lcd/lcd.c     **** 
  71:lcd/lcd.c     **** /* Ringpuffer */
  72:lcd/lcd.c     **** static RenderCommand _commands[MAX_COMMANDS], *_window;
  73:lcd/lcd.c     **** static u32 _step, _x, _y, _wp, _rp;
  74:lcd/lcd.c     **** 
  75:lcd/lcd.c     **** #define LCD(TYPE, u8) ((TYPE) | ((u32)((u8) & 0xFF) << 8))
  76:lcd/lcd.c     **** 
  77:lcd/lcd.c     **** static const u8 font5x7[] =
  78:lcd/lcd.c     **** {
  79:lcd/lcd.c     **** 	0x00, 0x00, 0x00, 0x00, 0x00, /*   */
  80:lcd/lcd.c     **** 	0x00, 0x00, 0x5F, 0x00, 0x00, /* ! */
  81:lcd/lcd.c     **** 	0x00, 0x07, 0x00, 0x07, 0x00, /* " */
  82:lcd/lcd.c     **** 	0x14, 0x7F, 0x14, 0x7F, 0x14, /* # */
  83:lcd/lcd.c     **** 	0x24, 0x2A, 0x7F, 0x2A, 0x12, /* $ */
  84:lcd/lcd.c     **** 	0x23, 0x13, 0x08, 0x64, 0x62, /* % */
  85:lcd/lcd.c     **** 	0x36, 0x49, 0x55, 0x22, 0x50, /* & */
  86:lcd/lcd.c     **** 	0x00, 0x00, 0x03, 0x00, 0x00, /* ' */
  87:lcd/lcd.c     **** 	0x00, 0x1C, 0x22, 0x41, 0x00, /* ( */
  88:lcd/lcd.c     **** 	0x00, 0x41, 0x22, 0x1C, 0x00, /* ) */
  89:lcd/lcd.c     **** 	0x14, 0x08, 0x3E, 0x08, 0x14, /* * */
  90:lcd/lcd.c     **** 	0x08, 0x08, 0x3E, 0x08, 0x08, /* + */
  91:lcd/lcd.c     **** 	0x00, 0x50, 0x30, 0x00, 0x00, /* , */
  92:lcd/lcd.c     **** 	0x08, 0x08, 0x08, 0x08, 0x08, /* - */
  93:lcd/lcd.c     **** 	0x00, 0x60, 0x60, 0x00, 0x00, /* . */
  94:lcd/lcd.c     **** 	0x20, 0x10, 0x08, 0x04, 0x02, /* / */
  95:lcd/lcd.c     **** 
  96:lcd/lcd.c     **** 	0x3E, 0x51, 0x49, 0x45, 0x3E, /* 0 */
  97:lcd/lcd.c     **** 	0x00, 0x42, 0x7F, 0x40, 0x00, /* 1 */
  98:lcd/lcd.c     **** 	0x62, 0x51, 0x49, 0x49, 0x46, /* 2 */
  99:lcd/lcd.c     **** 	0x22, 0x41, 0x49, 0x49, 0x36, /* 3 */
 100:lcd/lcd.c     **** 	0x18, 0x14, 0x12, 0x7F, 0x10, /* 4 */
 101:lcd/lcd.c     **** 	0x27, 0x45, 0x45, 0x45, 0x39, /* 5 */
 102:lcd/lcd.c     **** 	0x3C, 0x4A, 0x49, 0x49, 0x30, /* 6 */
 103:lcd/lcd.c     **** 	0x01, 0x71, 0x09, 0x05, 0x03, /* 7 */
 104:lcd/lcd.c     **** 	0x36, 0x49, 0x49, 0x49, 0x36, /* 8 */
 105:lcd/lcd.c     **** 	0x06, 0x49, 0x49, 0x29, 0x1E, /* 9 */
 106:lcd/lcd.c     **** 
 107:lcd/lcd.c     **** 	0x00, 0x36, 0x36, 0x00, 0x00, /* : */
 108:lcd/lcd.c     **** 	0x00, 0x56, 0x36, 0x00, 0x00, /* ; */
 109:lcd/lcd.c     **** 	0x08, 0x14, 0x22, 0x41, 0x00, /* < */
 110:lcd/lcd.c     **** 	0x14, 0x14, 0x14, 0x14, 0x14, /* = */
 111:lcd/lcd.c     **** 	0x00, 0x41, 0x22, 0x14, 0x08, /* > */
 112:lcd/lcd.c     **** 	0x02, 0x01, 0x51, 0x09, 0x06, /* ? */
 113:lcd/lcd.c     **** 	0x32, 0x49, 0x79, 0x41, 0x3E, /* @ */
 114:lcd/lcd.c     **** 
 115:lcd/lcd.c     **** 	0x7C, 0x12, 0x11, 0x12, 0x7C, /* A */
 116:lcd/lcd.c     **** 	0x41, 0x7F, 0x49, 0x49, 0x36, /* B */
 117:lcd/lcd.c     **** 	0x3E, 0x41, 0x41, 0x41, 0x22, /* C */
 118:lcd/lcd.c     **** 	0x41, 0x7F, 0x41, 0x41, 0x3E, /* D */
 119:lcd/lcd.c     **** 	0x7F, 0x49, 0x49, 0x49, 0x41, /* E */
 120:lcd/lcd.c     **** 	0x7F, 0x09, 0x09, 0x09, 0x01, /* F */
 121:lcd/lcd.c     **** 	0x3E, 0x41, 0x41, 0x49, 0x7A, /* G */
 122:lcd/lcd.c     **** 	0x7F, 0x08, 0x08, 0x08, 0x7F, /* H */
 123:lcd/lcd.c     **** 	0x00, 0x41, 0x7F, 0x41, 0x00, /* I */
 124:lcd/lcd.c     **** 	0x20, 0x40, 0x41, 0x3F, 0x01, /* J */
 125:lcd/lcd.c     **** 	0x7F, 0x08, 0x14, 0x22, 0x41, /* K */
 126:lcd/lcd.c     **** 	0x7F, 0x40, 0x40, 0x40, 0x40, /* L */
 127:lcd/lcd.c     **** 	0x7F, 0x02, 0x0C, 0x02, 0x7F, /* M */
 128:lcd/lcd.c     **** 	0x7F, 0x04, 0x08, 0x10, 0x7F, /* N */
 129:lcd/lcd.c     **** 	0x3E, 0x41, 0x41, 0x41, 0x3E, /* O */
 130:lcd/lcd.c     **** 	0x7F, 0x09, 0x09, 0x09, 0x06, /* P */
 131:lcd/lcd.c     **** 	0x3E, 0x41, 0x51, 0x21, 0x5E, /* Q */
 132:lcd/lcd.c     **** 	0x7F, 0x09, 0x19, 0x29, 0x46, /* R */
 133:lcd/lcd.c     **** 	0x26, 0x49, 0x49, 0x49, 0x32, /* S */
 134:lcd/lcd.c     **** 	0x01, 0x01, 0x7F, 0x01, 0x01, /* T */
 135:lcd/lcd.c     **** 	0x3F, 0x40, 0x40, 0x40, 0x3F, /* U */
 136:lcd/lcd.c     **** 	0x1F, 0x20, 0x40, 0x20, 0x1F, /* V */
 137:lcd/lcd.c     **** 	0x3F, 0x40, 0x38, 0x40, 0x3F, /* W */
 138:lcd/lcd.c     **** 	0x63, 0x14, 0x08, 0x14, 0x63, /* X */
 139:lcd/lcd.c     **** 	0x07, 0x08, 0x70, 0x08, 0x07, /* Y */
 140:lcd/lcd.c     **** 	0x61, 0x51, 0x49, 0x45, 0x43, /* Z */
 141:lcd/lcd.c     **** 
 142:lcd/lcd.c     **** 	0x00, 0x7F, 0x41, 0x41, 0x00, /* [ */
 143:lcd/lcd.c     **** 	0x02, 0x04, 0x08, 0x10, 0x20, /* \ */
 144:lcd/lcd.c     **** 	0x00, 0x41, 0x41, 0x7F, 0x00, /* ] */
 145:lcd/lcd.c     **** 	0x04, 0x02, 0x01, 0x02, 0x04, /* ^ */
 146:lcd/lcd.c     **** 	0x40, 0x40, 0x40, 0x40, 0x40, /* _ */
 147:lcd/lcd.c     **** 	0x00, 0x01, 0x02, 0x04, 0x00, /* ` */
 148:lcd/lcd.c     **** 
 149:lcd/lcd.c     **** 	0x20, 0x54, 0x54, 0x54, 0x78, /* a */
 150:lcd/lcd.c     **** 	0x7F, 0x48, 0x44, 0x44, 0x38, /* b */
 151:lcd/lcd.c     **** 	0x38, 0x44, 0x44, 0x44, 0x20, /* c */
 152:lcd/lcd.c     **** 	0x38, 0x44, 0x44, 0x48, 0x7F, /* d */
 153:lcd/lcd.c     **** 	0x38, 0x54, 0x54, 0x54, 0x18, /* e */
 154:lcd/lcd.c     **** 	0x08, 0x7E, 0x09, 0x01, 0x02, /* f */
 155:lcd/lcd.c     **** 	0x08, 0x54, 0x54, 0x54, 0x3C, /* g */
 156:lcd/lcd.c     **** 	0x7F, 0x08, 0x04, 0x04, 0x78, /* h */
 157:lcd/lcd.c     **** 	0x00, 0x48, 0x7D, 0x40, 0x00, /* i */
 158:lcd/lcd.c     **** 	0x20, 0x40, 0x44, 0x3D, 0x00, /* j */
 159:lcd/lcd.c     **** 	0x7F, 0x10, 0x28, 0x44, 0x00, /* k */
 160:lcd/lcd.c     **** 	0x00, 0x41, 0x7F, 0x40, 0x00, /* l */
 161:lcd/lcd.c     **** 	0x7C, 0x04, 0x78, 0x04, 0x78, /* m */
 162:lcd/lcd.c     **** 	0x7C, 0x08, 0x04, 0x04, 0x78, /* n */
 163:lcd/lcd.c     **** 	0x38, 0x44, 0x44, 0x44, 0x38, /* o */
 164:lcd/lcd.c     **** 	0x7C, 0x14, 0x14, 0x14, 0x08, /* p */
 165:lcd/lcd.c     **** 	0x08, 0x14, 0x14, 0x18, 0x7C, /* q */
 166:lcd/lcd.c     **** 	0x7C, 0x08, 0x04, 0x04, 0x08, /* r */
 167:lcd/lcd.c     **** 	0x48, 0x54, 0x54, 0x54, 0x20, /* s */
 168:lcd/lcd.c     **** 	0x04, 0x3F, 0x44, 0x40, 0x20, /* t */
 169:lcd/lcd.c     **** 	0x3C, 0x40, 0x40, 0x20, 0x7C, /* u */
 170:lcd/lcd.c     **** 	0x1C, 0x20, 0x40, 0x20, 0x1C, /* v */
 171:lcd/lcd.c     **** 	0x3C, 0x40, 0x30, 0x40, 0x3C, /* w */
 172:lcd/lcd.c     **** 	0x44, 0x28, 0x10, 0x28, 0x44, /* x */
 173:lcd/lcd.c     **** 	0x0C, 0x50, 0x50, 0x50, 0x3C, /* y */
 174:lcd/lcd.c     **** 	0x44, 0x64, 0x54, 0x4C, 0x44, /* z */
 175:lcd/lcd.c     **** 
 176:lcd/lcd.c     **** 	0x00, 0x08, 0x36, 0x41, 0x00, /* { */
 177:lcd/lcd.c     **** 	0x00, 0x00, 0x7F, 0x00, 0x00, /* | */
 178:lcd/lcd.c     **** 	0x00, 0x41, 0x36, 0x08, 0x00, /* } */
 179:lcd/lcd.c     **** 	0x10, 0x08, 0x08, 0x10, 0x08  /* ~ */
 180:lcd/lcd.c     **** };
 181:lcd/lcd.c     **** 
 182:lcd/lcd.c     **** static u32 _next_step(void)
 183:lcd/lcd.c     **** {
 184:lcd/lcd.c     **** 	u16 value, x, y, w, h, ex, ey;
 185:lcd/lcd.c     **** 	u32 ret = TYPE_EMPTY;
 186:lcd/lcd.c     **** 	if(!_window)
 187:lcd/lcd.c     **** 	{
 188:lcd/lcd.c     **** 		return ret;
 189:lcd/lcd.c     **** 	}
 190:lcd/lcd.c     **** 
 191:lcd/lcd.c     **** 	x  = _window->X;
 192:lcd/lcd.c     **** 	y  = _window->Y;
 193:lcd/lcd.c     **** 	w  = _window->W;
 194:lcd/lcd.c     **** 	h  = _window->H;
 195:lcd/lcd.c     **** 	ex = x + w - 1;
 196:lcd/lcd.c     **** 	ey = y + h - 1;
 197:lcd/lcd.c     **** 
 198:lcd/lcd.c     **** 	switch(_step)
 199:lcd/lcd.c     **** 	{
 200:lcd/lcd.c     **** 		case  0: ret = LCD(TYPE_CMD, 0x2A);       break;
 201:lcd/lcd.c     **** 		case  1: ret = LCD(TYPE_PARAM0, 0);       break;
 202:lcd/lcd.c     **** 		case  2: ret = LCD(TYPE_PARAM1, x >> 8);  break;
 203:lcd/lcd.c     **** 		case  3: ret = LCD(TYPE_PARAM0, 0);       break;
 204:lcd/lcd.c     **** 		case  4: ret = LCD(TYPE_PARAM1, x);       break;
 205:lcd/lcd.c     **** 		case  5: ret = LCD(TYPE_PARAM0, 0);       break;
 206:lcd/lcd.c     **** 		case  6: ret = LCD(TYPE_PARAM1, ex >> 8); break;
 207:lcd/lcd.c     **** 		case  7: ret = LCD(TYPE_PARAM0, 0);       break;
 208:lcd/lcd.c     **** 		case  8: ret = LCD(TYPE_PARAM1, ex);      break;
 209:lcd/lcd.c     **** 
 210:lcd/lcd.c     **** 		case  9: ret = LCD(TYPE_CMD, 0x2B);       break;
 211:lcd/lcd.c     **** 		case 10: ret = LCD(TYPE_PARAM0, 0);       break;
 212:lcd/lcd.c     **** 		case 11: ret = LCD(TYPE_PARAM1, y >> 8);  break;
 213:lcd/lcd.c     **** 		case 12: ret = LCD(TYPE_PARAM0, 0);       break;
 214:lcd/lcd.c     **** 		case 13: ret = LCD(TYPE_PARAM1, y);       break;
 215:lcd/lcd.c     **** 		case 14: ret = LCD(TYPE_PARAM0, 0);       break;
 216:lcd/lcd.c     **** 		case 15: ret = LCD(TYPE_PARAM1, ey >> 8); break;
 217:lcd/lcd.c     **** 		case 16: ret = LCD(TYPE_PARAM0, 0);       break;
 218:lcd/lcd.c     **** 		case 17: ret = LCD(TYPE_PARAM1, ey);      break;
 219:lcd/lcd.c     **** 
 220:lcd/lcd.c     **** 		case 18: ret = LCD(TYPE_CMD, 0x2C);       break;
 221:lcd/lcd.c     **** 
 222:lcd/lcd.c     **** 		default:
 223:lcd/lcd.c     **** 			if(_window->Type == RCT_RECT)
 224:lcd/lcd.c     **** 			{
 225:lcd/lcd.c     **** 				value = _window->FG;
 226:lcd/lcd.c     **** 			}
 227:lcd/lcd.c     **** 			else if(_window->Type == RCT_CHAR)
 228:lcd/lcd.c     **** 			{
 229:lcd/lcd.c     **** 				value = ((font5x7[(_window->Char - 32) * 5 + _x] >> _y) & 1)
 230:lcd/lcd.c     **** 					? _window->FG : _window->BG;
 231:lcd/lcd.c     **** 			}
 232:lcd/lcd.c     **** 
 233:lcd/lcd.c     **** 			if(_step & 1)
 234:lcd/lcd.c     **** 			{
 235:lcd/lcd.c     **** 				value >>= 8;
 236:lcd/lcd.c     **** 			}
 237:lcd/lcd.c     **** 
 238:lcd/lcd.c     **** 			if(_step == 19)
 239:lcd/lcd.c     **** 			{
 240:lcd/lcd.c     **** 				ret = LCD(TYPE_PARAM0, value);
 241:lcd/lcd.c     **** 			}
 242:lcd/lcd.c     **** 			else
 243:lcd/lcd.c     **** 			{
 244:lcd/lcd.c     **** 				ret = LCD(TYPE_DATA, value);
 245:lcd/lcd.c     **** 			}
 246:lcd/lcd.c     **** 
 247:lcd/lcd.c     **** 			if(!(_step & 1))
 248:lcd/lcd.c     **** 			{
 249:lcd/lcd.c     **** 				if(++_x == w)
 250:lcd/lcd.c     **** 				{
 251:lcd/lcd.c     **** 					_x = 0;
 252:lcd/lcd.c     **** 					if(++_y == h)
 253:lcd/lcd.c     **** 					{
 254:lcd/lcd.c     **** 						ret = LCD(TYPE_PARAM1, value);
 255:lcd/lcd.c     **** 						_window = NULL;
 256:lcd/lcd.c     **** 					}
 257:lcd/lcd.c     **** 				}
 258:lcd/lcd.c     **** 			}
 259:lcd/lcd.c     **** 			break;
 260:lcd/lcd.c     **** 	}
 261:lcd/lcd.c     **** 
 262:lcd/lcd.c     **** 	++_step;
 263:lcd/lcd.c     **** 	return ret;
 264:lcd/lcd.c     **** }
 265:lcd/lcd.c     **** 
 266:lcd/lcd.c     **** /* --- PUBLIC ---  */
 267:lcd/lcd.c     **** void lcd_init(void)
 268:lcd/lcd.c     **** {
  16               		.loc 1 268 1 view -0
  17               		.cfi_startproc
  18               	/* prologue: function */
  19               	/* frame size = 0 */
  20               	/* stack size = 0 */
  21               	.L__stack_usage = 0
 269:lcd/lcd.c     **** }
  22               		.loc 1 269 1 view .LVU1
  23               	/* epilogue start */
  24 0000 0895      		ret
  25               		.cfi_endproc
  26               	.LFE3:
  28               	.global	asynclcd_color
  30               	asynclcd_color:
  31               	.LVL0:
  32               	.LFB4:
 270:lcd/lcd.c     **** 
 271:lcd/lcd.c     **** u16 asynclcd_color(u8 r, u8 g, u8 b)
 272:lcd/lcd.c     **** {
  33               		.loc 1 272 1 view -0
  34               		.cfi_startproc
  35               	/* prologue: function */
  36               	/* frame size = 0 */
  37               	/* stack size = 0 */
  38               	.L__stack_usage = 0
 273:lcd/lcd.c     **** 	return ((r & 0xF8) << 8) | ((g & 0xFC) << 3) | (b >> 3);
  39               		.loc 1 273 2 view .LVU3
  40               		.loc 1 273 41 is_stmt 0 view .LVU4
  41 0002 98E0      		ldi r25,lo8(8)
  42 0004 699F      		mul r22,r25
  43 0006 B001      		movw r22,r0
  44 0008 1124      		clr __zero_reg__
  45               	.LVL1:
  46               		.loc 1 273 41 view .LVU5
  47 000a 607E      		andi r22,224
  48 000c 7770      		andi r23,7
  49               		.loc 1 273 52 view .LVU6
  50 000e 4695      		lsr r20
  51 0010 4695      		lsr r20
  52 0012 4695      		lsr r20
  53               	.LVL2:
  54               		.loc 1 273 47 view .LVU7
  55 0014 642B      		or r22,r20
  56               		.loc 1 273 21 view .LVU8
  57 0016 282F      		mov r18,r24
  58 0018 30E0      		ldi r19,0
  59 001a 322F      		mov r19,r18
  60 001c 2227      		clr r18
  61               	.LVL3:
  62               		.loc 1 273 21 view .LVU9
  63 001e C901      		movw r24,r18
  64 0020 8827      		clr r24
  65 0022 987F      		andi r25,248
 274:lcd/lcd.c     **** }
  66               		.loc 1 274 1 view .LVU10
  67 0024 862B      		or r24,r22
  68 0026 972B      		or r25,r23
  69               	/* epilogue start */
  70 0028 0895      		ret
  71               		.cfi_endproc
  72               	.LFE4:
  74               	.global	asynclcd_rect
  76               	asynclcd_rect:
  77               	.LVL4:
  78               	.LFB5:
 275:lcd/lcd.c     **** 
 276:lcd/lcd.c     **** void asynclcd_rect(i32 x, i32 y, i32 w, i32 h, u16 color)
 277:lcd/lcd.c     **** {
  79               		.loc 1 277 1 is_stmt 1 view -0
  80               		.cfi_startproc
  81               		.loc 1 277 1 is_stmt 0 view .LVU12
  82 002a 4F92      		push r4
  83               		.cfi_def_cfa_offset 3
  84               		.cfi_offset 4, -2
  85 002c 5F92      		push r5
  86               		.cfi_def_cfa_offset 4
  87               		.cfi_offset 5, -3
  88 002e 6F92      		push r6
  89               		.cfi_def_cfa_offset 5
  90               		.cfi_offset 6, -4
  91 0030 7F92      		push r7
  92               		.cfi_def_cfa_offset 6
  93               		.cfi_offset 7, -5
  94 0032 8F92      		push r8
  95               		.cfi_def_cfa_offset 7
  96               		.cfi_offset 8, -6
  97 0034 9F92      		push r9
  98               		.cfi_def_cfa_offset 8
  99               		.cfi_offset 9, -7
 100 0036 AF92      		push r10
 101               		.cfi_def_cfa_offset 9
 102               		.cfi_offset 10, -8
 103 0038 BF92      		push r11
 104               		.cfi_def_cfa_offset 10
 105               		.cfi_offset 11, -9
 106 003a CF92      		push r12
 107               		.cfi_def_cfa_offset 11
 108               		.cfi_offset 12, -10
 109 003c DF92      		push r13
 110               		.cfi_def_cfa_offset 12
 111               		.cfi_offset 13, -11
 112 003e EF92      		push r14
 113               		.cfi_def_cfa_offset 13
 114               		.cfi_offset 14, -12
 115 0040 FF92      		push r15
 116               		.cfi_def_cfa_offset 14
 117               		.cfi_offset 15, -13
 118 0042 0F93      		push r16
 119               		.cfi_def_cfa_offset 15
 120               		.cfi_offset 16, -14
 121 0044 1F93      		push r17
 122               		.cfi_def_cfa_offset 16
 123               		.cfi_offset 17, -15
 124 0046 CF93      		push r28
 125               		.cfi_def_cfa_offset 17
 126               		.cfi_offset 28, -16
 127 0048 DF93      		push r29
 128               		.cfi_def_cfa_offset 18
 129               		.cfi_offset 29, -17
 130 004a CDB7      		in r28,__SP_L__
 131 004c DEB7      		in r29,__SP_H__
 132               		.cfi_def_cfa_register 28
 133               	/* prologue: function */
 134               	/* frame size = 0 */
 135               	/* stack size = 16 */
 136               	.L__stack_usage = 16
 278:lcd/lcd.c     **** 	if(_wp >= _rp + MAX_COMMANDS)
 137               		.loc 1 278 2 is_stmt 1 view .LVU13
 138               		.loc 1 278 9 is_stmt 0 view .LVU14
 139 004e 8091 0000 		lds r24,_wp
 140 0052 9091 0000 		lds r25,_wp+1
 141 0056 A091 0000 		lds r26,_wp+2
 142 005a B091 0000 		lds r27,_wp+3
 143               		.loc 1 278 16 view .LVU15
 144 005e 4090 0000 		lds r4,_rp
 145 0062 5090 0000 		lds r5,_rp+1
 146 0066 6090 0000 		lds r6,_rp+2
 147 006a 7090 0000 		lds r7,_rp+3
 148 006e 40E8      		ldi r20,-128
 149 0070 440E      		add r4,r20
 150 0072 511C      		adc r5,__zero_reg__
 151 0074 611C      		adc r6,__zero_reg__
 152 0076 711C      		adc r7,__zero_reg__
 153               		.loc 1 278 4 view .LVU16
 154 0078 8415      		cp r24,r4
 155 007a 9505      		cpc r25,r5
 156 007c A605      		cpc r26,r6
 157 007e B705      		cpc r27,r7
 158 0080 00F4      		brsh .L3
 279:lcd/lcd.c     **** 	{
 280:lcd/lcd.c     **** 		return;
 281:lcd/lcd.c     **** 	}
 282:lcd/lcd.c     **** 
 283:lcd/lcd.c     **** 	RenderCommand *rc = &_commands[_wp++ & BUFFER_MASK];
 159               		.loc 1 283 2 is_stmt 1 view .LVU17
 160               		.loc 1 283 36 is_stmt 0 view .LVU18
 161 0082 2C01      		movw r4,r24
 162 0084 3D01      		movw r6,r26
 163 0086 4FEF      		ldi r20,-1
 164 0088 441A      		sub r4,r20
 165 008a 540A      		sbc r5,r20
 166 008c 640A      		sbc r6,r20
 167 008e 740A      		sbc r7,r20
 168 0090 4092 0000 		sts _wp,r4
 169 0094 5092 0000 		sts _wp+1,r5
 170 0098 6092 0000 		sts _wp+2,r6
 171 009c 7092 0000 		sts _wp+3,r7
 172               		.loc 1 283 39 view .LVU19
 173 00a0 8F77      		andi r24,127
 174 00a2 9927      		clr r25
 175 00a4 AA27      		clr r26
 176 00a6 BB27      		clr r27
 177               	.LVL5:
 284:lcd/lcd.c     **** 	rc->Type = RCT_RECT;
 178               		.loc 1 284 2 is_stmt 1 view .LVU20
 179               		.loc 1 284 11 is_stmt 0 view .LVU21
 180 00a8 41E1      		ldi r20,lo8(17)
 181 00aa 489F      		mul r20,r24
 182 00ac F001      		movw r30,r0
 183 00ae 499F      		mul r20,r25
 184 00b0 F00D      		add r31,r0
 185 00b2 1124      		clr __zero_reg__
 186 00b4 E050      		subi r30,lo8(-(_commands))
 187 00b6 F040      		sbci r31,hi8(-(_commands))
 188 00b8 1082      		st Z,__zero_reg__
 285:lcd/lcd.c     **** 	rc->X = x;
 189               		.loc 1 285 2 is_stmt 1 view .LVU22
 190               		.loc 1 285 8 is_stmt 0 view .LVU23
 191 00ba 7683      		std Z+6,r23
 192 00bc 6583      		std Z+5,r22
 286:lcd/lcd.c     **** 	rc->Y = y;
 193               		.loc 1 286 2 is_stmt 1 view .LVU24
 194               		.loc 1 286 8 is_stmt 0 view .LVU25
 195 00be 3087      		std Z+8,r19
 196 00c0 2783      		std Z+7,r18
 287:lcd/lcd.c     **** 	rc->W = w;
 197               		.loc 1 287 2 is_stmt 1 view .LVU26
 198               		.loc 1 287 8 is_stmt 0 view .LVU27
 199 00c2 F286      		std Z+10,r15
 200 00c4 E186      		std Z+9,r14
 288:lcd/lcd.c     **** 	rc->H = h;
 201               		.loc 1 288 2 is_stmt 1 view .LVU28
 202               		.loc 1 288 8 is_stmt 0 view .LVU29
 203 00c6 B486      		std Z+12,r11
 204 00c8 A386      		std Z+11,r10
 289:lcd/lcd.c     **** 	rc->FG = color;
 205               		.loc 1 289 2 is_stmt 1 view .LVU30
 206               		.loc 1 289 9 is_stmt 0 view .LVU31
 207 00ca 8586      		std Z+13,r8
 208 00cc 9686      		std Z+14,r9
 209               	.LVL6:
 210               	.L3:
 211               	/* epilogue start */
 290:lcd/lcd.c     **** }
 212               		.loc 1 290 1 view .LVU32
 213 00ce DF91      		pop r29
 214 00d0 CF91      		pop r28
 215 00d2 1F91      		pop r17
 216 00d4 0F91      		pop r16
 217 00d6 FF90      		pop r15
 218 00d8 EF90      		pop r14
 219               	.LVL7:
 220               		.loc 1 290 1 view .LVU33
 221 00da DF90      		pop r13
 222 00dc CF90      		pop r12
 223 00de BF90      		pop r11
 224 00e0 AF90      		pop r10
 225               	.LVL8:
 226               		.loc 1 290 1 view .LVU34
 227 00e2 9F90      		pop r9
 228 00e4 8F90      		pop r8
 229               	.LVL9:
 230               		.loc 1 290 1 view .LVU35
 231 00e6 7F90      		pop r7
 232 00e8 6F90      		pop r6
 233 00ea 5F90      		pop r5
 234 00ec 4F90      		pop r4
 235 00ee 0895      		ret
 236               		.cfi_endproc
 237               	.LFE5:
 239               	.global	asynclcd_char
 241               	asynclcd_char:
 242               	.LVL10:
 243               	.LFB6:
 291:lcd/lcd.c     **** 
 292:lcd/lcd.c     **** i32 asynclcd_char(i32 x, i32 y, u16 fg, u16 bg, i32 c)
 293:lcd/lcd.c     **** {
 244               		.loc 1 293 1 is_stmt 1 view -0
 245               		.cfi_startproc
 246               		.loc 1 293 1 is_stmt 0 view .LVU37
 247 00f0 4F92      		push r4
 248               		.cfi_def_cfa_offset 3
 249               		.cfi_offset 4, -2
 250 00f2 5F92      		push r5
 251               		.cfi_def_cfa_offset 4
 252               		.cfi_offset 5, -3
 253 00f4 6F92      		push r6
 254               		.cfi_def_cfa_offset 5
 255               		.cfi_offset 6, -4
 256 00f6 7F92      		push r7
 257               		.cfi_def_cfa_offset 6
 258               		.cfi_offset 7, -5
 259 00f8 AF92      		push r10
 260               		.cfi_def_cfa_offset 7
 261               		.cfi_offset 10, -6
 262 00fa BF92      		push r11
 263               		.cfi_def_cfa_offset 8
 264               		.cfi_offset 11, -7
 265 00fc CF92      		push r12
 266               		.cfi_def_cfa_offset 9
 267               		.cfi_offset 12, -8
 268 00fe DF92      		push r13
 269               		.cfi_def_cfa_offset 10
 270               		.cfi_offset 13, -9
 271 0100 EF92      		push r14
 272               		.cfi_def_cfa_offset 11
 273               		.cfi_offset 14, -10
 274 0102 FF92      		push r15
 275               		.cfi_def_cfa_offset 12
 276               		.cfi_offset 15, -11
 277 0104 0F93      		push r16
 278               		.cfi_def_cfa_offset 13
 279               		.cfi_offset 16, -12
 280 0106 1F93      		push r17
 281               		.cfi_def_cfa_offset 14
 282               		.cfi_offset 17, -13
 283 0108 CF93      		push r28
 284               		.cfi_def_cfa_offset 15
 285               		.cfi_offset 28, -14
 286 010a DF93      		push r29
 287               		.cfi_def_cfa_offset 16
 288               		.cfi_offset 29, -15
 289 010c 00D0      		rcall .
 290 010e 00D0      		rcall .
 291               		.cfi_def_cfa_offset 20
 292 0110 CDB7      		in r28,__SP_L__
 293 0112 DEB7      		in r29,__SP_H__
 294               		.cfi_def_cfa_register 28
 295               	/* prologue: function */
 296               	/* frame size = 4 */
 297               	/* stack size = 18 */
 298               	.L__stack_usage = 18
 294:lcd/lcd.c     **** 	if(_wp >= _rp + MAX_COMMANDS)
 299               		.loc 1 294 2 is_stmt 1 view .LVU38
 300               		.loc 1 294 9 is_stmt 0 view .LVU39
 301 0114 8091 0000 		lds r24,_wp
 302 0118 9091 0000 		lds r25,_wp+1
 303 011c A091 0000 		lds r26,_wp+2
 304 0120 B091 0000 		lds r27,_wp+3
 305               		.loc 1 294 16 view .LVU40
 306 0124 4090 0000 		lds r4,_rp
 307 0128 5090 0000 		lds r5,_rp+1
 308 012c 6090 0000 		lds r6,_rp+2
 309 0130 7090 0000 		lds r7,_rp+3
 310 0134 40E8      		ldi r20,-128
 311 0136 440E      		add r4,r20
 312 0138 511C      		adc r5,__zero_reg__
 313 013a 611C      		adc r6,__zero_reg__
 314 013c 711C      		adc r7,__zero_reg__
 315               		.loc 1 294 4 view .LVU41
 316 013e 8415      		cp r24,r4
 317 0140 9505      		cpc r25,r5
 318 0142 A605      		cpc r26,r6
 319 0144 B705      		cpc r27,r7
 320 0146 00F0      		brlo .+2
 321 0148 00C0      		rjmp .L7
 295:lcd/lcd.c     **** 	{
 296:lcd/lcd.c     **** 		return 0;
 297:lcd/lcd.c     **** 	}
 298:lcd/lcd.c     **** 
 299:lcd/lcd.c     **** 	RenderCommand *rc = &_commands[_wp++ & BUFFER_MASK];
 322               		.loc 1 299 2 is_stmt 1 view .LVU42
 323               		.loc 1 299 36 is_stmt 0 view .LVU43
 324 014a 2C01      		movw r4,r24
 325 014c 3D01      		movw r6,r26
 326 014e 4FEF      		ldi r20,-1
 327 0150 441A      		sub r4,r20
 328 0152 540A      		sbc r5,r20
 329 0154 640A      		sbc r6,r20
 330 0156 740A      		sbc r7,r20
 331 0158 4092 0000 		sts _wp,r4
 332 015c 5092 0000 		sts _wp+1,r5
 333 0160 6092 0000 		sts _wp+2,r6
 334 0164 7092 0000 		sts _wp+3,r7
 335               		.loc 1 299 39 view .LVU44
 336 0168 8F77      		andi r24,127
 337 016a 9927      		clr r25
 338 016c AA27      		clr r26
 339 016e BB27      		clr r27
 340               	.LVL11:
 300:lcd/lcd.c     **** 	rc->Type = RCT_CHAR;
 341               		.loc 1 300 2 is_stmt 1 view .LVU45
 342               		.loc 1 300 11 is_stmt 0 view .LVU46
 343 0170 41E1      		ldi r20,lo8(17)
 344 0172 489F      		mul r20,r24
 345 0174 F001      		movw r30,r0
 346 0176 499F      		mul r20,r25
 347 0178 F00D      		add r31,r0
 348 017a 1124      		clr __zero_reg__
 349 017c E050      		subi r30,lo8(-(_commands))
 350 017e F040      		sbci r31,hi8(-(_commands))
 351 0180 81E0      		ldi r24,lo8(1)
 352               	.LVL12:
 353               		.loc 1 300 11 view .LVU47
 354 0182 8083      		st Z,r24
 301:lcd/lcd.c     **** 	rc->Char = c;
 355               		.loc 1 301 2 is_stmt 1 view .LVU48
 356               		.loc 1 301 11 is_stmt 0 view .LVU49
 357 0184 A182      		std Z+1,r10
 358 0186 B282      		std Z+2,r11
 359 0188 C382      		std Z+3,r12
 360 018a D482      		std Z+4,r13
 302:lcd/lcd.c     **** 	rc->X = x;
 361               		.loc 1 302 2 is_stmt 1 view .LVU50
 362               		.loc 1 302 8 is_stmt 0 view .LVU51
 363 018c 7683      		std Z+6,r23
 364 018e 6583      		std Z+5,r22
 303:lcd/lcd.c     **** 	rc->Y = y;
 365               		.loc 1 303 2 is_stmt 1 view .LVU52
 366               		.loc 1 303 8 is_stmt 0 view .LVU53
 367 0190 3087      		std Z+8,r19
 368 0192 2783      		std Z+7,r18
 304:lcd/lcd.c     **** 	rc->W = FONT_WIDTH;
 369               		.loc 1 304 2 is_stmt 1 view .LVU54
 370               		.loc 1 304 8 is_stmt 0 view .LVU55
 371 0194 85E0      		ldi r24,lo8(5)
 372 0196 90E0      		ldi r25,0
 373 0198 9287      		std Z+10,r25
 374 019a 8187      		std Z+9,r24
 305:lcd/lcd.c     **** 	rc->H = FONT_HEIGHT;
 375               		.loc 1 305 2 is_stmt 1 view .LVU56
 376               		.loc 1 305 8 is_stmt 0 view .LVU57
 377 019c 87E0      		ldi r24,lo8(7)
 378 019e 90E0      		ldi r25,0
 379 01a0 9487      		std Z+12,r25
 380 01a2 8387      		std Z+11,r24
 306:lcd/lcd.c     **** 	rc->FG = fg;
 381               		.loc 1 306 2 is_stmt 1 view .LVU58
 382               		.loc 1 306 9 is_stmt 0 view .LVU59
 383 01a4 0587      		std Z+13,r16
 384 01a6 1687      		std Z+14,r17
 307:lcd/lcd.c     **** 	rc->BG = bg;
 385               		.loc 1 307 2 is_stmt 1 view .LVU60
 386               		.loc 1 307 9 is_stmt 0 view .LVU61
 387 01a8 E786      		std Z+15,r14
 388 01aa F08A      		std Z+16,r15
 308:lcd/lcd.c     **** 	return FONT_WIDTH + 1;
 389               		.loc 1 308 2 is_stmt 1 view .LVU62
 390               		.loc 1 308 9 is_stmt 0 view .LVU63
 391 01ac 86E0      		ldi r24,lo8(6)
 392 01ae 90E0      		ldi r25,0
 393 01b0 A0E0      		ldi r26,0
 394 01b2 B0E0      		ldi r27,0
 395 01b4 8983      		std Y+1,r24
 396 01b6 9A83      		std Y+2,r25
 397 01b8 AB83      		std Y+3,r26
 398 01ba BC83      		std Y+4,r27
 399               	.LVL13:
 400               	.L5:
 309:lcd/lcd.c     **** }
 401               		.loc 1 309 1 view .LVU64
 402 01bc 6981      		ldd r22,Y+1
 403 01be 7A81      		ldd r23,Y+2
 404 01c0 8B81      		ldd r24,Y+3
 405 01c2 9C81      		ldd r25,Y+4
 406               	.LVL14:
 407               	/* epilogue start */
 408               		.loc 1 309 1 view .LVU65
 409 01c4 0F90      		pop __tmp_reg__
 410 01c6 0F90      		pop __tmp_reg__
 411 01c8 0F90      		pop __tmp_reg__
 412 01ca 0F90      		pop __tmp_reg__
 413 01cc DF91      		pop r29
 414 01ce CF91      		pop r28
 415 01d0 1F91      		pop r17
 416 01d2 0F91      		pop r16
 417               	.LVL15:
 418               		.loc 1 309 1 view .LVU66
 419 01d4 FF90      		pop r15
 420 01d6 EF90      		pop r14
 421               	.LVL16:
 422               		.loc 1 309 1 view .LVU67
 423 01d8 DF90      		pop r13
 424 01da CF90      		pop r12
 425 01dc BF90      		pop r11
 426 01de AF90      		pop r10
 427               	.LVL17:
 428               		.loc 1 309 1 view .LVU68
 429 01e0 7F90      		pop r7
 430 01e2 6F90      		pop r6
 431 01e4 5F90      		pop r5
 432 01e6 4F90      		pop r4
 433 01e8 0895      		ret
 434               	.LVL18:
 435               	.L7:
 296:lcd/lcd.c     **** 	}
 436               		.loc 1 296 10 view .LVU69
 437 01ea 1982      		std Y+1,__zero_reg__
 438 01ec 1A82      		std Y+2,__zero_reg__
 439 01ee 1B82      		std Y+3,__zero_reg__
 440 01f0 1C82      		std Y+4,__zero_reg__
 441 01f2 00C0      		rjmp .L5
 442               		.cfi_endproc
 443               	.LFE6:
 445               	.global	asynclcd_string
 447               	asynclcd_string:
 448               	.LVL19:
 449               	.LFB7:
 310:lcd/lcd.c     **** 
 311:lcd/lcd.c     **** void asynclcd_string(i32 x, i32 y, u16 fg, u16 bg, const char *s)
 312:lcd/lcd.c     **** {
 450               		.loc 1 312 1 is_stmt 1 view -0
 451               		.cfi_startproc
 452               		.loc 1 312 1 is_stmt 0 view .LVU71
 453 01f4 2F92      		push r2
 454               		.cfi_def_cfa_offset 3
 455               		.cfi_offset 2, -2
 456 01f6 3F92      		push r3
 457               		.cfi_def_cfa_offset 4
 458               		.cfi_offset 3, -3
 459 01f8 4F92      		push r4
 460               		.cfi_def_cfa_offset 5
 461               		.cfi_offset 4, -4
 462 01fa 5F92      		push r5
 463               		.cfi_def_cfa_offset 6
 464               		.cfi_offset 5, -5
 465 01fc 6F92      		push r6
 466               		.cfi_def_cfa_offset 7
 467               		.cfi_offset 6, -6
 468 01fe 7F92      		push r7
 469               		.cfi_def_cfa_offset 8
 470               		.cfi_offset 7, -7
 471 0200 8F92      		push r8
 472               		.cfi_def_cfa_offset 9
 473               		.cfi_offset 8, -8
 474 0202 9F92      		push r9
 475               		.cfi_def_cfa_offset 10
 476               		.cfi_offset 9, -9
 477 0204 AF92      		push r10
 478               		.cfi_def_cfa_offset 11
 479               		.cfi_offset 10, -10
 480 0206 BF92      		push r11
 481               		.cfi_def_cfa_offset 12
 482               		.cfi_offset 11, -11
 483 0208 CF92      		push r12
 484               		.cfi_def_cfa_offset 13
 485               		.cfi_offset 12, -12
 486 020a DF92      		push r13
 487               		.cfi_def_cfa_offset 14
 488               		.cfi_offset 13, -13
 489 020c EF92      		push r14
 490               		.cfi_def_cfa_offset 15
 491               		.cfi_offset 14, -14
 492 020e FF92      		push r15
 493               		.cfi_def_cfa_offset 16
 494               		.cfi_offset 15, -15
 495 0210 0F93      		push r16
 496               		.cfi_def_cfa_offset 17
 497               		.cfi_offset 16, -16
 498 0212 1F93      		push r17
 499               		.cfi_def_cfa_offset 18
 500               		.cfi_offset 17, -17
 501 0214 CF93      		push r28
 502               		.cfi_def_cfa_offset 19
 503               		.cfi_offset 28, -18
 504 0216 DF93      		push r29
 505               		.cfi_def_cfa_offset 20
 506               		.cfi_offset 29, -19
 507 0218 CDB7      		in r28,__SP_L__
 508 021a DEB7      		in r29,__SP_H__
 509               		.cfi_def_cfa_register 28
 510 021c 2A97      		sbiw r28,10
 511               		.cfi_def_cfa_offset 30
 512 021e 0FB6      		in __tmp_reg__,__SREG__
 513 0220 F894      		cli
 514 0222 DEBF      		out __SP_H__,r29
 515 0224 0FBE      		out __SREG__,__tmp_reg__
 516 0226 CDBF      		out __SP_L__,r28
 517               	/* prologue: function */
 518               	/* frame size = 10 */
 519               	/* stack size = 28 */
 520               	.L__stack_usage = 28
 521 0228 6983      		std Y+1,r22
 522 022a 7A83      		std Y+2,r23
 523 022c 8B83      		std Y+3,r24
 524 022e 9C83      		std Y+4,r25
 525 0230 922E      		mov r9,r18
 526 0232 832E      		mov r8,r19
 527 0234 742E      		mov r7,r20
 528 0236 652E      		mov r6,r21
 529 0238 502E      		mov r5,r16
 530 023a 412E      		mov r4,r17
 531 023c 3E2C      		mov r3,r14
 532 023e 2F2C      		mov r2,r15
 313:lcd/lcd.c     **** 	i32 c;
 533               		.loc 1 313 2 is_stmt 1 view .LVU72
 314:lcd/lcd.c     **** 	while((c = *s++))
 534               		.loc 1 314 2 view .LVU73
 535               	.LVL20:
 536               	.L9:
 537               		.loc 1 314 8 view .LVU74
 538               		.loc 1 314 15 is_stmt 0 view .LVU75
 539 0240 C986      		std Y+9,r12
 540 0242 DA86      		std Y+10,r13
 541               	.LVL21:
 542               		.loc 1 314 11 view .LVU76
 543 0244 A985      		ldd r26,Y+9
 544 0246 BA85      		ldd r27,Y+10
 545               	.LVL22:
 546               		.loc 1 314 11 view .LVU77
 547 0248 8D91      		ld r24,X+
 548               	.LVL23:
 549               		.loc 1 314 11 view .LVU78
 550 024a BA87      		std Y+10,r27
 551 024c A987      		std Y+9,r26
 552 024e A82E      		mov r10,r24
 553 0250 B12C      		mov r11,__zero_reg__
 554 0252 C12C      		mov r12,__zero_reg__
 555 0254 D12C      		mov r13,__zero_reg__
 556               	.LVL24:
 557               		.loc 1 314 8 view .LVU79
 558 0256 8111      		cpse r24,__zero_reg__
 559 0258 00C0      		rjmp .L10
 560               	/* epilogue start */
 315:lcd/lcd.c     **** 	{
 316:lcd/lcd.c     **** 		x += asynclcd_char(x, y, fg, bg, c);
 317:lcd/lcd.c     **** 	}
 318:lcd/lcd.c     **** }
 561               		.loc 1 318 1 view .LVU80
 562 025a 2A96      		adiw r28,10
 563 025c 0FB6      		in __tmp_reg__,__SREG__
 564 025e F894      		cli
 565 0260 DEBF      		out __SP_H__,r29
 566 0262 0FBE      		out __SREG__,__tmp_reg__
 567 0264 CDBF      		out __SP_L__,r28
 568 0266 DF91      		pop r29
 569 0268 CF91      		pop r28
 570 026a 1F91      		pop r17
 571 026c 0F91      		pop r16
 572 026e FF90      		pop r15
 573 0270 EF90      		pop r14
 574 0272 DF90      		pop r13
 575 0274 CF90      		pop r12
 576 0276 BF90      		pop r11
 577 0278 AF90      		pop r10
 578               	.LVL25:
 579               		.loc 1 318 1 view .LVU81
 580 027a 9F90      		pop r9
 581 027c 8F90      		pop r8
 582 027e 7F90      		pop r7
 583 0280 6F90      		pop r6
 584 0282 5F90      		pop r5
 585 0284 4F90      		pop r4
 586 0286 3F90      		pop r3
 587 0288 2F90      		pop r2
 588 028a 0895      		ret
 589               	.LVL26:
 590               	.L10:
 316:lcd/lcd.c     **** 	}
 591               		.loc 1 316 3 is_stmt 1 view .LVU82
 316:lcd/lcd.c     **** 	}
 592               		.loc 1 316 8 is_stmt 0 view .LVU83
 593 028c E32C      		mov r14,r3
 594 028e F22C      		mov r15,r2
 595 0290 052D      		mov r16,r5
 596 0292 142D      		mov r17,r4
 597 0294 292D      		mov r18,r9
 598 0296 382D      		mov r19,r8
 599 0298 472D      		mov r20,r7
 600 029a 562D      		mov r21,r6
 601 029c 6981      		ldd r22,Y+1
 602 029e 7A81      		ldd r23,Y+2
 603 02a0 8B81      		ldd r24,Y+3
 604 02a2 9C81      		ldd r25,Y+4
 605 02a4 0E94 0000 		call asynclcd_char
 606               	.LVL27:
 316:lcd/lcd.c     **** 	}
 607               		.loc 1 316 8 view .LVU84
 608 02a8 6D83      		std Y+5,r22
 609 02aa 7E83      		std Y+6,r23
 610 02ac 8F83      		std Y+7,r24
 611 02ae 9887      		std Y+8,r25
 316:lcd/lcd.c     **** 	}
 612               		.loc 1 316 5 view .LVU85
 613 02b0 2981      		ldd r18,Y+1
 614 02b2 3A81      		ldd r19,Y+2
 615 02b4 4B81      		ldd r20,Y+3
 616 02b6 5C81      		ldd r21,Y+4
 617 02b8 260F      		add r18,r22
 618 02ba 371F      		adc r19,r23
 619 02bc 481F      		adc r20,r24
 620 02be 591F      		adc r21,r25
 621 02c0 2983      		std Y+1,r18
 622 02c2 3A83      		std Y+2,r19
 623 02c4 4B83      		std Y+3,r20
 624 02c6 5C83      		std Y+4,r21
 625               	.LVL28:
 314:lcd/lcd.c     **** 	while((c = *s++))
 626               		.loc 1 314 15 view .LVU86
 627 02c8 C984      		ldd r12,Y+9
 628 02ca DA84      		ldd r13,Y+10
 629 02cc 00C0      		rjmp .L9
 630               		.cfi_endproc
 631               	.LFE7:
 633               	.global	asynclcd_update
 635               	asynclcd_update:
 636               	.LFB8:
 319:lcd/lcd.c     **** 
 320:lcd/lcd.c     **** void asynclcd_update(void)
 321:lcd/lcd.c     **** {
 637               		.loc 1 321 1 is_stmt 1 view -0
 638               		.cfi_startproc
 639 02ce 8F92      		push r8
 640               		.cfi_def_cfa_offset 3
 641               		.cfi_offset 8, -2
 642 02d0 9F92      		push r9
 643               		.cfi_def_cfa_offset 4
 644               		.cfi_offset 9, -3
 645 02d2 AF92      		push r10
 646               		.cfi_def_cfa_offset 5
 647               		.cfi_offset 10, -4
 648 02d4 BF92      		push r11
 649               		.cfi_def_cfa_offset 6
 650               		.cfi_offset 11, -5
 651 02d6 CF92      		push r12
 652               		.cfi_def_cfa_offset 7
 653               		.cfi_offset 12, -6
 654 02d8 DF92      		push r13
 655               		.cfi_def_cfa_offset 8
 656               		.cfi_offset 13, -7
 657 02da EF92      		push r14
 658               		.cfi_def_cfa_offset 9
 659               		.cfi_offset 14, -8
 660 02dc FF92      		push r15
 661               		.cfi_def_cfa_offset 10
 662               		.cfi_offset 15, -9
 663 02de 0F93      		push r16
 664               		.cfi_def_cfa_offset 11
 665               		.cfi_offset 16, -10
 666 02e0 1F93      		push r17
 667               		.cfi_def_cfa_offset 12
 668               		.cfi_offset 17, -11
 669 02e2 CF93      		push r28
 670               		.cfi_def_cfa_offset 13
 671               		.cfi_offset 28, -12
 672 02e4 DF93      		push r29
 673               		.cfi_def_cfa_offset 14
 674               		.cfi_offset 29, -13
 675 02e6 00D0      		rcall .
 676 02e8 00D0      		rcall .
 677 02ea 0F92      		push __tmp_reg__
 678               		.cfi_def_cfa_offset 19
 679 02ec CDB7      		in r28,__SP_L__
 680 02ee DEB7      		in r29,__SP_H__
 681               		.cfi_def_cfa_register 28
 682               	/* prologue: function */
 683               	/* frame size = 5 */
 684               	/* stack size = 17 */
 685               	.L__stack_usage = 17
 322:lcd/lcd.c     **** 	static u8 _type, _state;
 686               		.loc 1 322 2 view .LVU88
 323:lcd/lcd.c     **** 
 324:lcd/lcd.c     **** 	switch(_state)
 687               		.loc 1 324 2 view .LVU89
 688 02f0 8091 0000 		lds r24,_state.1
 689 02f4 8130      		cpi r24,lo8(1)
 690 02f6 01F4      		brne .+2
 691 02f8 00C0      		rjmp .L12
 692 02fa 8230      		cpi r24,lo8(2)
 693 02fc 01F4      		brne .+2
 694 02fe 00C0      		rjmp .L13
 695 0300 8111      		cpse r24,__zero_reg__
 696 0302 00C0      		rjmp .L11
 325:lcd/lcd.c     **** 	{
 326:lcd/lcd.c     **** 		case STATE_TX_WAIT:
 327:lcd/lcd.c     **** 			if(SR & SPI_SR_TXE)
 697               		.loc 1 327 4 view .LVU90
 698               		.loc 1 327 7 is_stmt 0 view .LVU91
 699 0304 4091 0830 		lds r20,12296
 700 0308 5091 0930 		lds r21,12296+1
 701 030c 6091 0A30 		lds r22,12296+2
 702 0310 7091 0B30 		lds r23,12296+3
 703               		.loc 1 327 6 view .LVU92
 704 0314 41FF      		sbrs r20,1
 705 0316 00C0      		rjmp .L11
 706               	.LBB7:
 328:lcd/lcd.c     **** 			{
 329:lcd/lcd.c     **** 				u32 ret = _next_step();
 707               		.loc 1 329 5 is_stmt 1 view .LVU93
 708               	.LBB8:
 709               	.LBI8:
 182:lcd/lcd.c     **** {
 710               		.loc 1 182 12 view .LVU94
 711               	.LBB9:
 184:lcd/lcd.c     **** 	u32 ret = TYPE_EMPTY;
 712               		.loc 1 184 2 view .LVU95
 185:lcd/lcd.c     **** 	if(!_window)
 713               		.loc 1 185 2 view .LVU96
 714               	.LVL29:
 186:lcd/lcd.c     **** 	{
 715               		.loc 1 186 2 view .LVU97
 186:lcd/lcd.c     **** 	{
 716               		.loc 1 186 5 is_stmt 0 view .LVU98
 717 0318 E091 0000 		lds r30,_window
 718 031c F091 0000 		lds r31,_window+1
 186:lcd/lcd.c     **** 	{
 719               		.loc 1 186 4 view .LVU99
 720 0320 3097      		sbiw r30,0
 721 0322 01F4      		brne .+2
 722 0324 00C0      		rjmp .L15
 191:lcd/lcd.c     **** 	y  = _window->Y;
 723               		.loc 1 191 2 is_stmt 1 view .LVU100
 191:lcd/lcd.c     **** 	y  = _window->Y;
 724               		.loc 1 191 5 is_stmt 0 view .LVU101
 725 0326 6581      		ldd r22,Z+5
 726 0328 7681      		ldd r23,Z+6
 727               	.LVL30:
 192:lcd/lcd.c     **** 	w  = _window->W;
 728               		.loc 1 192 2 is_stmt 1 view .LVU102
 192:lcd/lcd.c     **** 	w  = _window->W;
 729               		.loc 1 192 5 is_stmt 0 view .LVU103
 730 032a 4781      		ldd r20,Z+7
 731 032c 5085      		ldd r21,Z+8
 732               	.LVL31:
 193:lcd/lcd.c     **** 	h  = _window->H;
 733               		.loc 1 193 2 is_stmt 1 view .LVU104
 193:lcd/lcd.c     **** 	h  = _window->H;
 734               		.loc 1 193 5 is_stmt 0 view .LVU105
 735 032e 0185      		ldd r16,Z+9
 736 0330 1285      		ldd r17,Z+10
 737               	.LVL32:
 194:lcd/lcd.c     **** 	ex = x + w - 1;
 738               		.loc 1 194 2 is_stmt 1 view .LVU106
 194:lcd/lcd.c     **** 	ex = x + w - 1;
 739               		.loc 1 194 5 is_stmt 0 view .LVU107
 740 0332 A384      		ldd r10,Z+11
 741 0334 B484      		ldd r11,Z+12
 742               	.LVL33:
 195:lcd/lcd.c     **** 	ey = y + h - 1;
 743               		.loc 1 195 2 is_stmt 1 view .LVU108
 195:lcd/lcd.c     **** 	ey = y + h - 1;
 744               		.loc 1 195 9 is_stmt 0 view .LVU109
 745 0336 9B01      		movw r18,r22
 746 0338 200F      		add r18,r16
 747 033a 311F      		adc r19,r17
 195:lcd/lcd.c     **** 	ey = y + h - 1;
 748               		.loc 1 195 5 view .LVU110
 749 033c 2150      		subi r18,1
 750 033e 3109      		sbc r19,__zero_reg__
 751               	.LVL34:
 196:lcd/lcd.c     **** 
 752               		.loc 1 196 2 is_stmt 1 view .LVU111
 196:lcd/lcd.c     **** 
 753               		.loc 1 196 9 is_stmt 0 view .LVU112
 754 0340 4A01      		movw r8,r20
 755 0342 8A0C      		add r8,r10
 756 0344 9B1C      		adc r9,r11
 196:lcd/lcd.c     **** 
 757               		.loc 1 196 5 view .LVU113
 758 0346 81E0      		ldi r24,1
 759 0348 881A      		sub r8,r24
 760 034a 9108      		sbc r9,__zero_reg__
 761               	.LVL35:
 198:lcd/lcd.c     **** 	{
 762               		.loc 1 198 2 is_stmt 1 view .LVU114
 763 034c C090 0000 		lds r12,_step
 764 0350 D090 0000 		lds r13,_step+1
 765 0354 E090 0000 		lds r14,_step+2
 766 0358 F090 0000 		lds r15,_step+3
 767 035c 83E1      		ldi r24,19
 768 035e C816      		cp r12,r24
 769 0360 D104      		cpc r13,__zero_reg__
 770 0362 E104      		cpc r14,__zero_reg__
 771 0364 F104      		cpc r15,__zero_reg__
 772 0366 00F0      		brlo .+2
 773 0368 00C0      		rjmp .L16
 774 036a F601      		movw r30,r12
 775 036c E050      		subi r30,lo8(-(gs(.L18)))
 776 036e F040      		sbci r31,hi8(-(gs(.L18)))
 777 0370 0C94 0000 		jmp __tablejump2__
 778               		.section	.jumptables.gcc.asynclcd_update,"a",@progbits
 779               		.p2align	1
 780               	.L18:
 781 0000 0000      		.word gs(.L29)
 782 0002 0000      		.word gs(.L20)
 783 0004 0000      		.word gs(.L28)
 784 0006 0000      		.word gs(.L20)
 785 0008 0000      		.word gs(.L27)
 786 000a 0000      		.word gs(.L20)
 787 000c 0000      		.word gs(.L26)
 788 000e 0000      		.word gs(.L20)
 789 0010 0000      		.word gs(.L25)
 790 0012 0000      		.word gs(.L24)
 791 0014 0000      		.word gs(.L20)
 792 0016 0000      		.word gs(.L23)
 793 0018 0000      		.word gs(.L20)
 794 001a 0000      		.word gs(.L22)
 795 001c 0000      		.word gs(.L20)
 796 001e 0000      		.word gs(.L21)
 797 0020 0000      		.word gs(.L20)
 798 0022 0000      		.word gs(.L19)
 799 0024 0000      		.word gs(.L17)
 800               		.text
 801               	.L20:
 802               	.LVL36:
 262:lcd/lcd.c     **** 	return ret;
 803               		.loc 1 262 2 view .LVU115
 804 0374 AFEF      		ldi r26,-1
 805 0376 CA1A      		sub r12,r26
 806 0378 DA0A      		sbc r13,r26
 807 037a EA0A      		sbc r14,r26
 808 037c FA0A      		sbc r15,r26
 809 037e C092 0000 		sts _step,r12
 810 0382 D092 0000 		sts _step+1,r13
 811 0386 E092 0000 		sts _step+2,r14
 812 038a F092 0000 		sts _step+3,r15
 263:lcd/lcd.c     **** }
 813               		.loc 1 263 2 view .LVU116
 814               	.LVL37:
 263:lcd/lcd.c     **** }
 815               		.loc 1 263 2 is_stmt 0 view .LVU117
 816               	.LBE9:
 817               	.LBE8:
 330:lcd/lcd.c     **** 				if(ret)
 818               		.loc 1 330 5 is_stmt 1 view .LVU118
 819               	.LBB15:
 331:lcd/lcd.c     **** 				{
 332:lcd/lcd.c     **** 					u8 byte = ret >> 8;
 820               		.loc 1 332 6 view .LVU119
 333:lcd/lcd.c     **** 					_type = ret;
 821               		.loc 1 333 6 view .LVU120
 822               		.loc 1 333 12 is_stmt 0 view .LVU121
 823 038e 82E0      		ldi r24,lo8(2)
 824 0390 8093 0000 		sts _type.0,r24
 334:lcd/lcd.c     **** 
 335:lcd/lcd.c     **** 					if(_type == TYPE_CMD)
 825               		.loc 1 335 6 is_stmt 1 view .LVU122
 336:lcd/lcd.c     **** 					{
 337:lcd/lcd.c     **** 						LCD_DC_0;
 338:lcd/lcd.c     **** 						LCD_CS_0;
 339:lcd/lcd.c     **** 					}
 340:lcd/lcd.c     **** 					else if(_type == TYPE_PARAM0)
 826               		.loc 1 340 11 view .LVU123
 332:lcd/lcd.c     **** 					_type = ret;
 827               		.loc 1 332 20 is_stmt 0 view .LVU124
 828 0394 40E0      		ldi r20,0
 829 0396 50E0      		ldi r21,0
 830 0398 BA01      		movw r22,r20
 831               	.LVL38:
 832               	.L30:
 341:lcd/lcd.c     **** 					{
 342:lcd/lcd.c     **** 						LCD_DC_1;
 833               		.loc 1 342 7 is_stmt 1 view .LVU125
 834 039a 8091 1814 		lds r24,5144
 835 039e 9091 1914 		lds r25,5144+1
 836 03a2 A091 1A14 		lds r26,5144+2
 837 03a6 B091 1B14 		lds r27,5144+3
 838 03aa 9062      		ori r25,32
 839 03ac 00C0      		rjmp .L65
 840               	.LVL39:
 841               	.L29:
 842               		.loc 1 342 7 is_stmt 0 view .LVU126
 843               	.LBE15:
 844               	.LBB16:
 845               	.LBB10:
 262:lcd/lcd.c     **** 	return ret;
 846               		.loc 1 262 2 is_stmt 1 view .LVU127
 847 03ae 81E0      		ldi r24,lo8(1)
 848 03b0 90E0      		ldi r25,0
 849 03b2 A0E0      		ldi r26,0
 850 03b4 B0E0      		ldi r27,0
 851 03b6 8093 0000 		sts _step,r24
 852 03ba 9093 0000 		sts _step+1,r25
 853 03be A093 0000 		sts _step+2,r26
 854 03c2 B093 0000 		sts _step+3,r27
 263:lcd/lcd.c     **** }
 855               		.loc 1 263 2 view .LVU128
 856               	.LVL40:
 263:lcd/lcd.c     **** }
 857               		.loc 1 263 2 is_stmt 0 view .LVU129
 858               	.LBE10:
 859               	.LBE16:
 330:lcd/lcd.c     **** 				{
 860               		.loc 1 330 5 is_stmt 1 view .LVU130
 861               	.LBB17:
 332:lcd/lcd.c     **** 					_type = ret;
 862               		.loc 1 332 6 view .LVU131
 333:lcd/lcd.c     **** 
 863               		.loc 1 333 6 view .LVU132
 333:lcd/lcd.c     **** 
 864               		.loc 1 333 12 is_stmt 0 view .LVU133
 865 03c6 8093 0000 		sts _type.0,r24
 335:lcd/lcd.c     **** 					{
 866               		.loc 1 335 6 is_stmt 1 view .LVU134
 332:lcd/lcd.c     **** 					_type = ret;
 867               		.loc 1 332 20 is_stmt 0 view .LVU135
 868 03ca 4AE2      		ldi r20,lo8(42)
 869 03cc 50E0      		ldi r21,0
 870 03ce 60E0      		ldi r22,0
 871 03d0 70E0      		ldi r23,0
 872               	.LVL41:
 873               	.L31:
 337:lcd/lcd.c     **** 						LCD_CS_0;
 874               		.loc 1 337 7 is_stmt 1 view .LVU136
 875 03d2 8091 1814 		lds r24,5144
 876 03d6 9091 1914 		lds r25,5144+1
 877 03da A091 1A14 		lds r26,5144+2
 878 03de B091 1B14 		lds r27,5144+3
 879               	.L65:
 880               		.loc 1 342 7 is_stmt 0 view .LVU137
 881 03e2 8093 1814 		sts 5144,r24
 882 03e6 9093 1914 		sts 5144+1,r25
 883 03ea A093 1A14 		sts 5144+2,r26
 884 03ee B093 1B14 		sts 5144+3,r27
 343:lcd/lcd.c     **** 						LCD_CS_0;
 885               		.loc 1 343 7 is_stmt 1 view .LVU138
 886 03f2 8091 180C 		lds r24,3096
 887 03f6 9091 190C 		lds r25,3096+1
 888 03fa A091 1A0C 		lds r26,3096+2
 889 03fe B091 1B0C 		lds r27,3096+3
 890 0402 8093 180C 		sts 3096,r24
 891 0406 9093 190C 		sts 3096+1,r25
 892 040a A093 1A0C 		sts 3096+2,r26
 893 040e B093 1B0C 		sts 3096+3,r27
 894 0412 00C0      		rjmp .L43
 895               	.LVL42:
 896               	.L28:
 897               		.loc 1 343 7 is_stmt 0 view .LVU139
 898               	.LBE17:
 899               	.LBB18:
 900               	.LBB11:
 202:lcd/lcd.c     **** 		case  3: ret = LCD(TYPE_PARAM0, 0);       break;
 901               		.loc 1 202 12 is_stmt 1 view .LVU140
 202:lcd/lcd.c     **** 		case  3: ret = LCD(TYPE_PARAM0, 0);       break;
 902               		.loc 1 202 18 is_stmt 0 view .LVU141
 903 0414 672F      		mov r22,r23
 904 0416 7727      		clr r23
 905               	.LVL43:
 202:lcd/lcd.c     **** 		case  3: ret = LCD(TYPE_PARAM0, 0);       break;
 906               		.loc 1 202 18 view .LVU142
 907 0418 CB01      		movw r24,r22
 908               	.LVL44:
 909               	.L67:
 216:lcd/lcd.c     **** 		case 16: ret = LCD(TYPE_PARAM0, 0);       break;
 910               		.loc 1 216 18 view .LVU143
 911 041a A0E0      		ldi r26,0
 912 041c B0E0      		ldi r27,0
 913 041e BA2F      		mov r27,r26
 914 0420 A92F      		mov r26,r25
 915 0422 982F      		mov r25,r24
 916 0424 8827      		clr r24
 917               	.LVL45:
 216:lcd/lcd.c     **** 		case 16: ret = LCD(TYPE_PARAM0, 0);       break;
 918               		.loc 1 216 18 view .LVU144
 919 0426 00C0      		rjmp .L63
 920               	.LVL46:
 921               	.L27:
 204:lcd/lcd.c     **** 		case  5: ret = LCD(TYPE_PARAM0, 0);       break;
 922               		.loc 1 204 12 is_stmt 1 view .LVU145
 204:lcd/lcd.c     **** 		case  5: ret = LCD(TYPE_PARAM0, 0);       break;
 923               		.loc 1 204 18 is_stmt 0 view .LVU146
 924 0428 CB01      		movw r24,r22
 925               	.L64:
 204:lcd/lcd.c     **** 		case  5: ret = LCD(TYPE_PARAM0, 0);       break;
 926               		.loc 1 204 18 view .LVU147
 927 042a A0E0      		ldi r26,0
 928 042c B0E0      		ldi r27,0
 929 042e BA2F      		mov r27,r26
 930 0430 A92F      		mov r26,r25
 931 0432 982F      		mov r25,r24
 932 0434 8827      		clr r24
 933 0436 AA27      		clr r26
 934 0438 BB27      		clr r27
 935               	.LVL47:
 936               	.L63:
 204:lcd/lcd.c     **** 		case  5: ret = LCD(TYPE_PARAM0, 0);       break;
 937               		.loc 1 204 16 view .LVU148
 938 043a 8360      		ori r24,3
 939               	.LVL48:
 204:lcd/lcd.c     **** 		case  5: ret = LCD(TYPE_PARAM0, 0);       break;
 940               		.loc 1 204 45 is_stmt 1 view .LVU149
 941               	.L32:
 262:lcd/lcd.c     **** 	return ret;
 942               		.loc 1 262 2 view .LVU150
 943 043c 4FEF      		ldi r20,-1
 944 043e C41A      		sub r12,r20
 945 0440 D40A      		sbc r13,r20
 946 0442 E40A      		sbc r14,r20
 947 0444 F40A      		sbc r15,r20
 948 0446 C092 0000 		sts _step,r12
 949 044a D092 0000 		sts _step+1,r13
 950 044e E092 0000 		sts _step+2,r14
 951 0452 F092 0000 		sts _step+3,r15
 263:lcd/lcd.c     **** }
 952               		.loc 1 263 2 view .LVU151
 953               	.LVL49:
 263:lcd/lcd.c     **** }
 954               		.loc 1 263 2 is_stmt 0 view .LVU152
 955               	.LBE11:
 956               	.LBE18:
 330:lcd/lcd.c     **** 				{
 957               		.loc 1 330 5 is_stmt 1 view .LVU153
 958               	.LBB19:
 332:lcd/lcd.c     **** 					_type = ret;
 959               		.loc 1 332 6 view .LVU154
 332:lcd/lcd.c     **** 					_type = ret;
 960               		.loc 1 332 20 is_stmt 0 view .LVU155
 961 0456 492F      		mov r20,r25
 962 0458 5A2F      		mov r21,r26
 963 045a 6B2F      		mov r22,r27
 964 045c 7727      		clr r23
 965               	.LVL50:
 333:lcd/lcd.c     **** 
 966               		.loc 1 333 6 is_stmt 1 view .LVU156
 333:lcd/lcd.c     **** 
 967               		.loc 1 333 12 is_stmt 0 view .LVU157
 968 045e 8093 0000 		sts _type.0,r24
 335:lcd/lcd.c     **** 					{
 969               		.loc 1 335 6 is_stmt 1 view .LVU158
 335:lcd/lcd.c     **** 					{
 970               		.loc 1 335 8 is_stmt 0 view .LVU159
 971 0462 8130      		cpi r24,lo8(1)
 972 0464 01F4      		brne .+2
 973 0466 00C0      		rjmp .L31
 340:lcd/lcd.c     **** 					{
 974               		.loc 1 340 11 is_stmt 1 view .LVU160
 340:lcd/lcd.c     **** 					{
 975               		.loc 1 340 13 is_stmt 0 view .LVU161
 976 0468 8230      		cpi r24,lo8(2)
 977 046a 01F4      		brne .+2
 978 046c 00C0      		rjmp .L30
 979               	.LVL51:
 980               	.L43:
 344:lcd/lcd.c     **** 					}
 345:lcd/lcd.c     **** 
 346:lcd/lcd.c     **** 					DR = byte;
 981               		.loc 1 346 6 is_stmt 1 view .LVU162
 982               		.loc 1 346 9 is_stmt 0 view .LVU163
 983 046e 4093 0C30 		sts 12300,r20
 984 0472 5093 0D30 		sts 12300+1,r21
 985 0476 6093 0E30 		sts 12300+2,r22
 986 047a 7093 0F30 		sts 12300+3,r23
 347:lcd/lcd.c     **** 					_state = STATE_RX_WAIT;
 987               		.loc 1 347 6 is_stmt 1 view .LVU164
 988               		.loc 1 347 13 is_stmt 0 view .LVU165
 989 047e 81E0      		ldi r24,lo8(1)
 990               	.L66:
 991               	.LBE19:
 992               	.LBE7:
 348:lcd/lcd.c     **** 				}
 349:lcd/lcd.c     **** 				else
 350:lcd/lcd.c     **** 				{
 351:lcd/lcd.c     **** 					/* next render window */
 352:lcd/lcd.c     **** 					if(_rp < _wp)
 353:lcd/lcd.c     **** 					{
 354:lcd/lcd.c     **** 						_x = 0;
 355:lcd/lcd.c     **** 						_y = 0;
 356:lcd/lcd.c     **** 						_step = 0;
 357:lcd/lcd.c     **** 						_window = &_commands[_rp++ & BUFFER_MASK];
 358:lcd/lcd.c     **** 					}
 359:lcd/lcd.c     **** 				}
 360:lcd/lcd.c     **** 			}
 361:lcd/lcd.c     **** 			break;
 362:lcd/lcd.c     **** 
 363:lcd/lcd.c     **** 		case STATE_RX_WAIT:
 364:lcd/lcd.c     **** 			if(SR & SPI_SR_RXNE)
 365:lcd/lcd.c     **** 			{
 366:lcd/lcd.c     **** 				_state = STATE_BUSY_WAIT;
 993               		.loc 1 366 12 view .LVU166
 994 0480 8093 0000 		sts _state.1,r24
 995 0484 00C0      		rjmp .L11
 996               	.LVL52:
 997               	.L26:
 998               	.LBB25:
 999               	.LBB20:
 1000               	.LBB12:
 206:lcd/lcd.c     **** 		case  7: ret = LCD(TYPE_PARAM0, 0);       break;
 1001               		.loc 1 206 12 is_stmt 1 view .LVU167
 206:lcd/lcd.c     **** 		case  7: ret = LCD(TYPE_PARAM0, 0);       break;
 1002               		.loc 1 206 18 is_stmt 0 view .LVU168
 1003 0486 232F      		mov r18,r19
 1004 0488 3327      		clr r19
 1005               	.LVL53:
 206:lcd/lcd.c     **** 		case  7: ret = LCD(TYPE_PARAM0, 0);       break;
 1006               		.loc 1 206 18 view .LVU169
 1007 048a C901      		movw r24,r18
 1008 048c 00C0      		rjmp .L67
 1009               	.LVL54:
 1010               	.L25:
 208:lcd/lcd.c     **** 
 1011               		.loc 1 208 12 is_stmt 1 view .LVU170
 208:lcd/lcd.c     **** 
 1012               		.loc 1 208 18 is_stmt 0 view .LVU171
 1013 048e C901      		movw r24,r18
 1014 0490 00C0      		rjmp .L64
 1015               	.L24:
 210:lcd/lcd.c     **** 		case 10: ret = LCD(TYPE_PARAM0, 0);       break;
 1016               		.loc 1 210 12 is_stmt 1 view .LVU172
 1017               	.LVL55:
 210:lcd/lcd.c     **** 		case 10: ret = LCD(TYPE_PARAM0, 0);       break;
 1018               		.loc 1 210 45 view .LVU173
 262:lcd/lcd.c     **** 	return ret;
 1019               		.loc 1 262 2 view .LVU174
 1020 0492 8AE0      		ldi r24,lo8(10)
 1021 0494 90E0      		ldi r25,0
 1022 0496 A0E0      		ldi r26,0
 1023 0498 B0E0      		ldi r27,0
 1024 049a 8093 0000 		sts _step,r24
 1025 049e 9093 0000 		sts _step+1,r25
 1026 04a2 A093 0000 		sts _step+2,r26
 1027 04a6 B093 0000 		sts _step+3,r27
 263:lcd/lcd.c     **** }
 1028               		.loc 1 263 2 view .LVU175
 1029               	.LVL56:
 263:lcd/lcd.c     **** }
 1030               		.loc 1 263 2 is_stmt 0 view .LVU176
 1031               	.LBE12:
 1032               	.LBE20:
 330:lcd/lcd.c     **** 				{
 1033               		.loc 1 330 5 is_stmt 1 view .LVU177
 1034               	.LBB21:
 332:lcd/lcd.c     **** 					_type = ret;
 1035               		.loc 1 332 6 view .LVU178
 333:lcd/lcd.c     **** 
 1036               		.loc 1 333 6 view .LVU179
 333:lcd/lcd.c     **** 
 1037               		.loc 1 333 12 is_stmt 0 view .LVU180
 1038 04aa 81E0      		ldi r24,lo8(1)
 1039 04ac 8093 0000 		sts _type.0,r24
 335:lcd/lcd.c     **** 					{
 1040               		.loc 1 335 6 is_stmt 1 view .LVU181
 332:lcd/lcd.c     **** 					_type = ret;
 1041               		.loc 1 332 20 is_stmt 0 view .LVU182
 1042 04b0 4BE2      		ldi r20,lo8(43)
 1043 04b2 50E0      		ldi r21,0
 1044 04b4 60E0      		ldi r22,0
 1045 04b6 70E0      		ldi r23,0
 1046 04b8 00C0      		rjmp .L31
 1047               	.LVL57:
 1048               	.L23:
 332:lcd/lcd.c     **** 					_type = ret;
 1049               		.loc 1 332 20 view .LVU183
 1050               	.LBE21:
 1051               	.LBB22:
 1052               	.LBB13:
 212:lcd/lcd.c     **** 		case 12: ret = LCD(TYPE_PARAM0, 0);       break;
 1053               		.loc 1 212 12 is_stmt 1 view .LVU184
 212:lcd/lcd.c     **** 		case 12: ret = LCD(TYPE_PARAM0, 0);       break;
 1054               		.loc 1 212 18 is_stmt 0 view .LVU185
 1055 04ba 452F      		mov r20,r21
 1056 04bc 5527      		clr r21
 1057               	.LVL58:
 212:lcd/lcd.c     **** 		case 12: ret = LCD(TYPE_PARAM0, 0);       break;
 1058               		.loc 1 212 18 view .LVU186
 1059 04be CA01      		movw r24,r20
 1060 04c0 00C0      		rjmp .L67
 1061               	.LVL59:
 1062               	.L22:
 214:lcd/lcd.c     **** 		case 14: ret = LCD(TYPE_PARAM0, 0);       break;
 1063               		.loc 1 214 12 is_stmt 1 view .LVU187
 214:lcd/lcd.c     **** 		case 14: ret = LCD(TYPE_PARAM0, 0);       break;
 1064               		.loc 1 214 18 is_stmt 0 view .LVU188
 1065 04c2 CA01      		movw r24,r20
 1066 04c4 00C0      		rjmp .L64
 1067               	.L21:
 216:lcd/lcd.c     **** 		case 16: ret = LCD(TYPE_PARAM0, 0);       break;
 1068               		.loc 1 216 12 is_stmt 1 view .LVU189
 216:lcd/lcd.c     **** 		case 16: ret = LCD(TYPE_PARAM0, 0);       break;
 1069               		.loc 1 216 18 is_stmt 0 view .LVU190
 1070 04c6 892D      		mov r24,r9
 1071 04c8 9927      		clr r25
 1072 04ca 00C0      		rjmp .L67
 1073               	.L19:
 218:lcd/lcd.c     **** 
 1074               		.loc 1 218 12 is_stmt 1 view .LVU191
 218:lcd/lcd.c     **** 
 1075               		.loc 1 218 18 is_stmt 0 view .LVU192
 1076 04cc C401      		movw r24,r8
 1077 04ce 00C0      		rjmp .L64
 1078               	.L17:
 220:lcd/lcd.c     **** 
 1079               		.loc 1 220 12 is_stmt 1 view .LVU193
 1080               	.LVL60:
 220:lcd/lcd.c     **** 
 1081               		.loc 1 220 45 view .LVU194
 262:lcd/lcd.c     **** 	return ret;
 1082               		.loc 1 262 2 view .LVU195
 1083 04d0 83E1      		ldi r24,lo8(19)
 1084 04d2 90E0      		ldi r25,0
 1085 04d4 A0E0      		ldi r26,0
 1086 04d6 B0E0      		ldi r27,0
 1087 04d8 8093 0000 		sts _step,r24
 1088 04dc 9093 0000 		sts _step+1,r25
 1089 04e0 A093 0000 		sts _step+2,r26
 1090 04e4 B093 0000 		sts _step+3,r27
 263:lcd/lcd.c     **** }
 1091               		.loc 1 263 2 view .LVU196
 1092               	.LVL61:
 263:lcd/lcd.c     **** }
 1093               		.loc 1 263 2 is_stmt 0 view .LVU197
 1094               	.LBE13:
 1095               	.LBE22:
 330:lcd/lcd.c     **** 				{
 1096               		.loc 1 330 5 is_stmt 1 view .LVU198
 1097               	.LBB23:
 332:lcd/lcd.c     **** 					_type = ret;
 1098               		.loc 1 332 6 view .LVU199
 333:lcd/lcd.c     **** 
 1099               		.loc 1 333 6 view .LVU200
 333:lcd/lcd.c     **** 
 1100               		.loc 1 333 12 is_stmt 0 view .LVU201
 1101 04e8 81E0      		ldi r24,lo8(1)
 1102 04ea 8093 0000 		sts _type.0,r24
 335:lcd/lcd.c     **** 					{
 1103               		.loc 1 335 6 is_stmt 1 view .LVU202
 332:lcd/lcd.c     **** 					_type = ret;
 1104               		.loc 1 332 20 is_stmt 0 view .LVU203
 1105 04ee 4CE2      		ldi r20,lo8(44)
 1106 04f0 50E0      		ldi r21,0
 1107 04f2 60E0      		ldi r22,0
 1108 04f4 70E0      		ldi r23,0
 1109 04f6 00C0      		rjmp .L31
 1110               	.LVL62:
 1111               	.L16:
 332:lcd/lcd.c     **** 					_type = ret;
 1112               		.loc 1 332 20 view .LVU204
 1113               	.LBE23:
 1114               	.LBB24:
 1115               	.LBB14:
 223:lcd/lcd.c     **** 			{
 1116               		.loc 1 223 4 is_stmt 1 view .LVU205
 223:lcd/lcd.c     **** 			{
 1117               		.loc 1 223 14 is_stmt 0 view .LVU206
 1118 04f8 8081      		ld r24,Z
 223:lcd/lcd.c     **** 			{
 1119               		.loc 1 223 6 view .LVU207
 1120 04fa 8111      		cpse r24,__zero_reg__
 1121 04fc 00C0      		rjmp .L33
 1122               	.LVL63:
 1123               	.L61:
 230:lcd/lcd.c     **** 			}
 1124               		.loc 1 230 20 view .LVU208
 1125 04fe A585      		ldd r26,Z+13
 1126 0500 B685      		ldd r27,Z+14
 1127               	.L34:
 1128               	.LVL64:
 233:lcd/lcd.c     **** 			{
 1129               		.loc 1 233 4 is_stmt 1 view .LVU209
 233:lcd/lcd.c     **** 			{
 1130               		.loc 1 233 6 is_stmt 0 view .LVU210
 1131 0502 C0FE      		sbrs r12,0
 1132 0504 00C0      		rjmp .L36
 235:lcd/lcd.c     **** 			}
 1133               		.loc 1 235 5 is_stmt 1 view .LVU211
 235:lcd/lcd.c     **** 			}
 1134               		.loc 1 235 11 is_stmt 0 view .LVU212
 1135 0506 AB2F      		mov r26,r27
 1136 0508 BB27      		clr r27
 1137               	.LVL65:
 238:lcd/lcd.c     **** 			{
 1138               		.loc 1 238 4 is_stmt 1 view .LVU213
 238:lcd/lcd.c     **** 			{
 1139               		.loc 1 238 6 is_stmt 0 view .LVU214
 1140 050a 23E1      		ldi r18,19
 1141 050c C216      		cp r12,r18
 1142 050e D104      		cpc r13,__zero_reg__
 1143 0510 E104      		cpc r14,__zero_reg__
 1144 0512 F104      		cpc r15,__zero_reg__
 1145 0514 01F4      		brne .+2
 1146 0516 00C0      		rjmp .L37
 244:lcd/lcd.c     **** 			}
 1147               		.loc 1 244 5 is_stmt 1 view .LVU215
 244:lcd/lcd.c     **** 			}
 1148               		.loc 1 244 11 is_stmt 0 view .LVU216
 1149 0518 CD01      		movw r24,r26
 1150 051a A0E0      		ldi r26,0
 1151 051c B0E0      		ldi r27,0
 1152               	.LVL66:
 244:lcd/lcd.c     **** 			}
 1153               		.loc 1 244 11 view .LVU217
 1154 051e BA2F      		mov r27,r26
 1155 0520 A92F      		mov r26,r25
 1156 0522 982F      		mov r25,r24
 1157 0524 8827      		clr r24
 1158               	.LVL67:
 1159               	.L62:
 244:lcd/lcd.c     **** 			}
 1160               		.loc 1 244 9 view .LVU218
 1161 0526 8460      		ori r24,4
 1162 0528 00C0      		rjmp .L32
 1163               	.LVL68:
 1164               	.L33:
 227:lcd/lcd.c     **** 			{
 1165               		.loc 1 227 9 is_stmt 1 view .LVU219
 227:lcd/lcd.c     **** 			{
 1166               		.loc 1 227 11 is_stmt 0 view .LVU220
 1167 052a 8130      		cpi r24,lo8(1)
 1168 052c 01F4      		brne .L34
 229:lcd/lcd.c     **** 					? _window->FG : _window->BG;
 1169               		.loc 1 229 5 is_stmt 1 view .LVU221
 229:lcd/lcd.c     **** 					? _window->FG : _window->BG;
 1170               		.loc 1 229 38 is_stmt 0 view .LVU222
 1171 052e 8181      		ldd r24,Z+1
 1172 0530 9281      		ldd r25,Z+2
 1173 0532 A381      		ldd r26,Z+3
 1174 0534 B481      		ldd r27,Z+4
 1175 0536 9C01      		movw r18,r24
 1176 0538 AD01      		movw r20,r26
 1177               	.LVL69:
 229:lcd/lcd.c     **** 					? _window->FG : _window->BG;
 1178               		.loc 1 229 38 view .LVU223
 1179 053a 2052      		subi r18,32
 1180 053c 3109      		sbc r19,__zero_reg__
 1181 053e 4109      		sbc r20,__zero_reg__
 1182 0540 5109      		sbc r21,__zero_reg__
 229:lcd/lcd.c     **** 					? _window->FG : _window->BG;
 1183               		.loc 1 229 44 view .LVU224
 1184 0542 A5E0      		ldi r26,lo8(5)
 1185 0544 B0E0      		ldi r27,0
 1186 0546 0E94 0000 		call __muluhisi3
 1187               	.LVL70:
 229:lcd/lcd.c     **** 					? _window->FG : _window->BG;
 1188               		.loc 1 229 44 view .LVU225
 1189 054a 6A83      		std Y+2,r22
 1190 054c 7B83      		std Y+3,r23
 1191 054e 8C83      		std Y+4,r24
 1192 0550 9D83      		std Y+5,r25
 229:lcd/lcd.c     **** 					? _window->FG : _window->BG;
 1193               		.loc 1 229 48 view .LVU226
 1194 0552 8091 0000 		lds r24,_x
 1195 0556 9091 0000 		lds r25,_x+1
 1196 055a A091 0000 		lds r26,_x+2
 1197 055e B091 0000 		lds r27,_x+3
 1198 0562 2A81      		ldd r18,Y+2
 1199 0564 3B81      		ldd r19,Y+3
 1200 0566 4C81      		ldd r20,Y+4
 1201 0568 5D81      		ldd r21,Y+5
 1202 056a 820F      		add r24,r18
 1203 056c 931F      		adc r25,r19
 1204 056e A41F      		adc r26,r20
 1205 0570 B51F      		adc r27,r21
 229:lcd/lcd.c     **** 					? _window->FG : _window->BG;
 1206               		.loc 1 229 22 view .LVU227
 1207 0572 8050      		subi r24,lo8(-(font5x7))
 1208 0574 9040      		sbci r25,hi8(-(font5x7))
 1209 0576 DC01      		movw r26,r24
 1210 0578 8C91      		ld r24,X
 1211 057a 90E0      		ldi r25,0
 229:lcd/lcd.c     **** 					? _window->FG : _window->BG;
 1212               		.loc 1 229 54 view .LVU228
 1213 057c 0090 0000 		lds r0,_y
 1214 0580 00C0      		rjmp 2f
 1215               		1:
 1216 0582 9595      		asr r25
 1217 0584 8795      		ror r24
 1218               		2:
 1219 0586 0A94      		dec r0
 1220 0588 02F4      		brpl 1b
 230:lcd/lcd.c     **** 			}
 1221               		.loc 1 230 20 view .LVU229
 1222 058a 80FD      		sbrc r24,0
 1223 058c 00C0      		rjmp .L61
 1224 058e A785      		ldd r26,Z+15
 1225 0590 B089      		ldd r27,Z+16
 1226 0592 00C0      		rjmp .L34
 1227               	.LVL71:
 1228               	.L36:
 238:lcd/lcd.c     **** 			{
 1229               		.loc 1 238 4 is_stmt 1 view .LVU230
 244:lcd/lcd.c     **** 			}
 1230               		.loc 1 244 11 is_stmt 0 view .LVU231
 1231 0594 AD01      		movw r20,r26
 1232               	.LVL72:
 244:lcd/lcd.c     **** 			}
 1233               		.loc 1 244 11 view .LVU232
 1234 0596 60E0      		ldi r22,0
 1235 0598 70E0      		ldi r23,0
 1236 059a 762F      		mov r23,r22
 1237 059c 652F      		mov r22,r21
 1238 059e 542F      		mov r21,r20
 1239 05a0 4427      		clr r20
 1240               	.LVL73:
 244:lcd/lcd.c     **** 			}
 1241               		.loc 1 244 11 view .LVU233
 1242 05a2 6627      		clr r22
 1243 05a4 7727      		clr r23
 238:lcd/lcd.c     **** 			{
 1244               		.loc 1 238 6 view .LVU234
 1245 05a6 33E1      		ldi r19,19
 1246 05a8 C316      		cp r12,r19
 1247 05aa D104      		cpc r13,__zero_reg__
 1248 05ac E104      		cpc r14,__zero_reg__
 1249 05ae F104      		cpc r15,__zero_reg__
 1250 05b0 01F0      		breq .L37
 244:lcd/lcd.c     **** 			}
 1251               		.loc 1 244 5 is_stmt 1 view .LVU235
 1252               	.LVL74:
 247:lcd/lcd.c     **** 			{
 1253               		.loc 1 247 4 view .LVU236
 249:lcd/lcd.c     **** 				{
 1254               		.loc 1 249 5 view .LVU237
 249:lcd/lcd.c     **** 				{
 1255               		.loc 1 249 8 is_stmt 0 view .LVU238
 1256 05b2 8091 0000 		lds r24,_x
 1257 05b6 9091 0000 		lds r25,_x+1
 1258 05ba A091 0000 		lds r26,_x+2
 1259 05be B091 0000 		lds r27,_x+3
 1260 05c2 0196      		adiw r24,1
 1261 05c4 A11D      		adc r26,__zero_reg__
 1262 05c6 B11D      		adc r27,__zero_reg__
 249:lcd/lcd.c     **** 				{
 1263               		.loc 1 249 13 view .LVU239
 1264 05c8 20E0      		ldi r18,0
 1265 05ca 30E0      		ldi r19,0
 249:lcd/lcd.c     **** 				{
 1266               		.loc 1 249 7 view .LVU240
 1267 05cc 8017      		cp r24,r16
 1268 05ce 9107      		cpc r25,r17
 1269 05d0 A207      		cpc r26,r18
 1270 05d2 B307      		cpc r27,r19
 1271 05d4 01F0      		breq .L38
 1272 05d6 8093 0000 		sts _x,r24
 1273 05da 9093 0000 		sts _x+1,r25
 1274 05de A093 0000 		sts _x+2,r26
 1275 05e2 B093 0000 		sts _x+3,r27
 1276               	.LVL75:
 1277               	.L39:
 244:lcd/lcd.c     **** 			}
 1278               		.loc 1 244 9 view .LVU241
 1279 05e6 DB01      		movw r26,r22
 1280 05e8 CA01      		movw r24,r20
 1281 05ea 00C0      		rjmp .L62
 1282               	.LVL76:
 1283               	.L37:
 240:lcd/lcd.c     **** 			}
 1284               		.loc 1 240 5 is_stmt 1 view .LVU242
 240:lcd/lcd.c     **** 			}
 1285               		.loc 1 240 11 is_stmt 0 view .LVU243
 1286 05ec CD01      		movw r24,r26
 1287 05ee A0E0      		ldi r26,0
 1288 05f0 B0E0      		ldi r27,0
 1289               	.LVL77:
 240:lcd/lcd.c     **** 			}
 1290               		.loc 1 240 11 view .LVU244
 1291 05f2 BA2F      		mov r27,r26
 1292 05f4 A92F      		mov r26,r25
 1293 05f6 982F      		mov r25,r24
 1294 05f8 8827      		clr r24
 1295               	.LVL78:
 240:lcd/lcd.c     **** 			}
 1296               		.loc 1 240 11 view .LVU245
 1297 05fa AA27      		clr r26
 1298 05fc BB27      		clr r27
 240:lcd/lcd.c     **** 			}
 1299               		.loc 1 240 9 view .LVU246
 1300 05fe 8260      		ori r24,2
 1301               	.LVL79:
 247:lcd/lcd.c     **** 			{
 1302               		.loc 1 247 4 is_stmt 1 view .LVU247
 1303 0600 00C0      		rjmp .L32
 1304               	.LVL80:
 1305               	.L38:
 251:lcd/lcd.c     **** 					if(++_y == h)
 1306               		.loc 1 251 6 view .LVU248
 251:lcd/lcd.c     **** 					if(++_y == h)
 1307               		.loc 1 251 9 is_stmt 0 view .LVU249
 1308 0602 1092 0000 		sts _x,__zero_reg__
 1309 0606 1092 0000 		sts _x+1,__zero_reg__
 1310 060a 1092 0000 		sts _x+2,__zero_reg__
 1311 060e 1092 0000 		sts _x+3,__zero_reg__
 252:lcd/lcd.c     **** 					{
 1312               		.loc 1 252 6 is_stmt 1 view .LVU250
 252:lcd/lcd.c     **** 					{
 1313               		.loc 1 252 9 is_stmt 0 view .LVU251
 1314 0612 0091 0000 		lds r16,_y
 1315 0616 1091 0000 		lds r17,_y+1
 1316 061a 2091 0000 		lds r18,_y+2
 1317 061e 3091 0000 		lds r19,_y+3
 1318               	.LVL81:
 252:lcd/lcd.c     **** 					{
 1319               		.loc 1 252 9 view .LVU252
 1320 0622 0F5F      		subi r16,-1
 1321 0624 1F4F      		sbci r17,-1
 1322 0626 2F4F      		sbci r18,-1
 1323 0628 3F4F      		sbci r19,-1
 252:lcd/lcd.c     **** 					{
 1324               		.loc 1 252 8 view .LVU253
 1325 062a 0093 0000 		sts _y,r16
 1326 062e 1093 0000 		sts _y+1,r17
 1327 0632 2093 0000 		sts _y+2,r18
 1328 0636 3093 0000 		sts _y+3,r19
 252:lcd/lcd.c     **** 					{
 1329               		.loc 1 252 14 view .LVU254
 1330 063a C501      		movw r24,r10
 1331 063c A0E0      		ldi r26,0
 1332 063e B0E0      		ldi r27,0
 1333               	.LVL82:
 252:lcd/lcd.c     **** 					{
 1334               		.loc 1 252 8 view .LVU255
 1335 0640 0817      		cp r16,r24
 1336 0642 1907      		cpc r17,r25
 1337 0644 2A07      		cpc r18,r26
 1338 0646 3B07      		cpc r19,r27
 1339 0648 01F4      		brne .L39
 254:lcd/lcd.c     **** 						_window = NULL;
 1340               		.loc 1 254 7 is_stmt 1 view .LVU256
 254:lcd/lcd.c     **** 						_window = NULL;
 1341               		.loc 1 254 11 is_stmt 0 view .LVU257
 1342 064a DB01      		movw r26,r22
 1343 064c CA01      		movw r24,r20
 1344 064e 8360      		ori r24,3
 1345               	.LVL83:
 255:lcd/lcd.c     **** 					}
 1346               		.loc 1 255 7 is_stmt 1 view .LVU258
 255:lcd/lcd.c     **** 					}
 1347               		.loc 1 255 15 is_stmt 0 view .LVU259
 1348 0650 1092 0000 		sts _window+1,__zero_reg__
 1349 0654 1092 0000 		sts _window,__zero_reg__
 1350               	.LVL84:
 255:lcd/lcd.c     **** 					}
 1351               		.loc 1 255 15 view .LVU260
 1352 0658 00C0      		rjmp .L32
 1353               	.LVL85:
 1354               	.L15:
 255:lcd/lcd.c     **** 					}
 1355               		.loc 1 255 15 view .LVU261
 1356               	.LBE14:
 1357               	.LBE24:
 330:lcd/lcd.c     **** 				{
 1358               		.loc 1 330 5 is_stmt 1 view .LVU262
 352:lcd/lcd.c     **** 					{
 1359               		.loc 1 352 6 view .LVU263
 352:lcd/lcd.c     **** 					{
 1360               		.loc 1 352 13 is_stmt 0 view .LVU264
 1361 065a 8091 0000 		lds r24,_rp
 1362 065e 9091 0000 		lds r25,_rp+1
 1363 0662 A091 0000 		lds r26,_rp+2
 1364 0666 B091 0000 		lds r27,_rp+3
 352:lcd/lcd.c     **** 					{
 1365               		.loc 1 352 8 view .LVU265
 1366 066a 4091 0000 		lds r20,_wp
 1367 066e 5091 0000 		lds r21,_wp+1
 1368 0672 6091 0000 		lds r22,_wp+2
 1369 0676 7091 0000 		lds r23,_wp+3
 1370 067a 8417      		cp r24,r20
 1371 067c 9507      		cpc r25,r21
 1372 067e A607      		cpc r26,r22
 1373 0680 B707      		cpc r27,r23
 1374 0682 00F0      		brlo .L42
 1375               	.LVL86:
 1376               	.L11:
 1377               	/* epilogue start */
 352:lcd/lcd.c     **** 					{
 1378               		.loc 1 352 8 view .LVU266
 1379               	.LBE25:
 367:lcd/lcd.c     **** 			}
 368:lcd/lcd.c     **** 			break;
 369:lcd/lcd.c     **** 
 370:lcd/lcd.c     **** 		case STATE_BUSY_WAIT:
 371:lcd/lcd.c     **** 			if(!(SR & SPI_SR_BSY))
 372:lcd/lcd.c     **** 			{
 373:lcd/lcd.c     **** 				volatile u8 data = DR;
 374:lcd/lcd.c     **** 				if(_type == TYPE_CMD ||
 375:lcd/lcd.c     **** 					_type == TYPE_PARAM1)
 376:lcd/lcd.c     **** 				{
 377:lcd/lcd.c     **** 					LCD_CS_1;
 378:lcd/lcd.c     **** 				}
 379:lcd/lcd.c     **** 
 380:lcd/lcd.c     **** 				_state = STATE_TX_WAIT;
 381:lcd/lcd.c     **** 			}
 382:lcd/lcd.c     **** 			break;
 383:lcd/lcd.c     **** 	}
 384:lcd/lcd.c     **** }
 1380               		.loc 1 384 1 view .LVU267
 1381 0684 0F90      		pop __tmp_reg__
 1382 0686 0F90      		pop __tmp_reg__
 1383 0688 0F90      		pop __tmp_reg__
 1384 068a 0F90      		pop __tmp_reg__
 1385 068c 0F90      		pop __tmp_reg__
 1386 068e DF91      		pop r29
 1387 0690 CF91      		pop r28
 1388 0692 1F91      		pop r17
 1389 0694 0F91      		pop r16
 1390 0696 FF90      		pop r15
 1391 0698 EF90      		pop r14
 1392 069a DF90      		pop r13
 1393 069c CF90      		pop r12
 1394 069e BF90      		pop r11
 1395 06a0 AF90      		pop r10
 1396 06a2 9F90      		pop r9
 1397 06a4 8F90      		pop r8
 1398 06a6 0895      		ret
 1399               	.LVL87:
 1400               	.L42:
 1401               	.LBB26:
 354:lcd/lcd.c     **** 						_y = 0;
 1402               		.loc 1 354 7 is_stmt 1 view .LVU268
 354:lcd/lcd.c     **** 						_y = 0;
 1403               		.loc 1 354 10 is_stmt 0 view .LVU269
 1404 06a8 1092 0000 		sts _x,__zero_reg__
 1405 06ac 1092 0000 		sts _x+1,__zero_reg__
 1406 06b0 1092 0000 		sts _x+2,__zero_reg__
 1407 06b4 1092 0000 		sts _x+3,__zero_reg__
 355:lcd/lcd.c     **** 						_step = 0;
 1408               		.loc 1 355 7 is_stmt 1 view .LVU270
 355:lcd/lcd.c     **** 						_step = 0;
 1409               		.loc 1 355 10 is_stmt 0 view .LVU271
 1410 06b8 1092 0000 		sts _y,__zero_reg__
 1411 06bc 1092 0000 		sts _y+1,__zero_reg__
 1412 06c0 1092 0000 		sts _y+2,__zero_reg__
 1413 06c4 1092 0000 		sts _y+3,__zero_reg__
 356:lcd/lcd.c     **** 						_window = &_commands[_rp++ & BUFFER_MASK];
 1414               		.loc 1 356 7 is_stmt 1 view .LVU272
 356:lcd/lcd.c     **** 						_window = &_commands[_rp++ & BUFFER_MASK];
 1415               		.loc 1 356 13 is_stmt 0 view .LVU273
 1416 06c8 1092 0000 		sts _step,__zero_reg__
 1417 06cc 1092 0000 		sts _step+1,__zero_reg__
 1418 06d0 1092 0000 		sts _step+2,__zero_reg__
 1419 06d4 1092 0000 		sts _step+3,__zero_reg__
 357:lcd/lcd.c     **** 					}
 1420               		.loc 1 357 7 is_stmt 1 view .LVU274
 357:lcd/lcd.c     **** 					}
 1421               		.loc 1 357 31 is_stmt 0 view .LVU275
 1422 06d8 AC01      		movw r20,r24
 1423 06da BD01      		movw r22,r26
 1424 06dc 4F5F      		subi r20,-1
 1425 06de 5F4F      		sbci r21,-1
 1426 06e0 6F4F      		sbci r22,-1
 1427 06e2 7F4F      		sbci r23,-1
 1428 06e4 4093 0000 		sts _rp,r20
 1429 06e8 5093 0000 		sts _rp+1,r21
 1430 06ec 6093 0000 		sts _rp+2,r22
 1431 06f0 7093 0000 		sts _rp+3,r23
 357:lcd/lcd.c     **** 					}
 1432               		.loc 1 357 34 view .LVU276
 1433 06f4 8F77      		andi r24,127
 1434 06f6 9927      		clr r25
 1435 06f8 AA27      		clr r26
 1436 06fa BB27      		clr r27
 357:lcd/lcd.c     **** 					}
 1437               		.loc 1 357 17 view .LVU277
 1438 06fc 41E1      		ldi r20,lo8(17)
 1439 06fe 489F      		mul r20,r24
 1440 0700 9001      		movw r18,r0
 1441 0702 499F      		mul r20,r25
 1442 0704 300D      		add r19,r0
 1443 0706 1124      		clr __zero_reg__
 1444 0708 2050      		subi r18,lo8(-(_commands))
 1445 070a 3040      		sbci r19,hi8(-(_commands))
 357:lcd/lcd.c     **** 					}
 1446               		.loc 1 357 15 view .LVU278
 1447 070c 3093 0000 		sts _window+1,r19
 1448 0710 2093 0000 		sts _window,r18
 1449 0714 00C0      		rjmp .L11
 1450               	.LVL88:
 1451               	.L12:
 357:lcd/lcd.c     **** 					}
 1452               		.loc 1 357 15 view .LVU279
 1453               	.LBE26:
 364:lcd/lcd.c     **** 			{
 1454               		.loc 1 364 4 is_stmt 1 view .LVU280
 364:lcd/lcd.c     **** 			{
 1455               		.loc 1 364 7 is_stmt 0 view .LVU281
 1456 0716 8091 0830 		lds r24,12296
 1457 071a 9091 0930 		lds r25,12296+1
 1458 071e A091 0A30 		lds r26,12296+2
 1459 0722 B091 0B30 		lds r27,12296+3
 364:lcd/lcd.c     **** 			{
 1460               		.loc 1 364 6 view .LVU282
 1461 0726 80FF      		sbrs r24,0
 1462 0728 00C0      		rjmp .L11
 366:lcd/lcd.c     **** 			}
 1463               		.loc 1 366 5 is_stmt 1 view .LVU283
 366:lcd/lcd.c     **** 			}
 1464               		.loc 1 366 12 is_stmt 0 view .LVU284
 1465 072a 82E0      		ldi r24,lo8(2)
 1466 072c 00C0      		rjmp .L66
 1467               	.L13:
 371:lcd/lcd.c     **** 			{
 1468               		.loc 1 371 4 is_stmt 1 view .LVU285
 371:lcd/lcd.c     **** 			{
 1469               		.loc 1 371 9 is_stmt 0 view .LVU286
 1470 072e 8091 0830 		lds r24,12296
 1471 0732 9091 0930 		lds r25,12296+1
 1472 0736 A091 0A30 		lds r26,12296+2
 1473 073a B091 0B30 		lds r27,12296+3
 371:lcd/lcd.c     **** 			{
 1474               		.loc 1 371 6 view .LVU287
 1475 073e 87FD      		sbrc r24,7
 1476 0740 00C0      		rjmp .L11
 1477               	.LBB27:
 373:lcd/lcd.c     **** 				if(_type == TYPE_CMD ||
 1478               		.loc 1 373 5 is_stmt 1 view .LVU288
 373:lcd/lcd.c     **** 				if(_type == TYPE_CMD ||
 1479               		.loc 1 373 24 is_stmt 0 view .LVU289
 1480 0742 8091 0C30 		lds r24,12300
 1481 0746 9091 0D30 		lds r25,12300+1
 1482 074a A091 0E30 		lds r26,12300+2
 1483 074e B091 0F30 		lds r27,12300+3
 373:lcd/lcd.c     **** 				if(_type == TYPE_CMD ||
 1484               		.loc 1 373 17 view .LVU290
 1485 0752 8983      		std Y+1,r24
 374:lcd/lcd.c     **** 					_type == TYPE_PARAM1)
 1486               		.loc 1 374 5 is_stmt 1 view .LVU291
 374:lcd/lcd.c     **** 					_type == TYPE_PARAM1)
 1487               		.loc 1 374 7 is_stmt 0 view .LVU292
 1488 0754 8091 0000 		lds r24,_type.0
 1489 0758 8D7F      		andi r24,lo8(-3)
 1490 075a 8130      		cpi r24,lo8(1)
 1491 075c 01F4      		brne .L44
 377:lcd/lcd.c     **** 				}
 1492               		.loc 1 377 6 is_stmt 1 view .LVU293
 1493 075e 8091 180C 		lds r24,3096
 1494 0762 9091 190C 		lds r25,3096+1
 1495 0766 A091 1A0C 		lds r26,3096+2
 1496 076a B091 1B0C 		lds r27,3096+3
 1497 076e 9064      		ori r25,64
 1498 0770 8093 180C 		sts 3096,r24
 1499 0774 9093 190C 		sts 3096+1,r25
 1500 0778 A093 1A0C 		sts 3096+2,r26
 1501 077c B093 1B0C 		sts 3096+3,r27
 1502               	.L44:
 380:lcd/lcd.c     **** 			}
 1503               		.loc 1 380 5 view .LVU294
 380:lcd/lcd.c     **** 			}
 1504               		.loc 1 380 12 is_stmt 0 view .LVU295
 1505 0780 1092 0000 		sts _state.1,__zero_reg__
 1506               	.LBE27:
 1507               		.loc 1 384 1 view .LVU296
 1508 0784 00C0      		rjmp .L11
 1509               		.cfi_endproc
 1510               	.LFE8:
 1512               	.global	asynclcd_ready
 1514               	asynclcd_ready:
 1515               	.LFB9:
 385:lcd/lcd.c     **** 
 386:lcd/lcd.c     **** bool asynclcd_ready(void)
 387:lcd/lcd.c     **** {
 1516               		.loc 1 387 1 is_stmt 1 view -0
 1517               		.cfi_startproc
 1518 0786 0F93      		push r16
 1519               		.cfi_def_cfa_offset 3
 1520               		.cfi_offset 16, -2
 1521 0788 1F93      		push r17
 1522               		.cfi_def_cfa_offset 4
 1523               		.cfi_offset 17, -3
 1524               	/* prologue: function */
 1525               	/* frame size = 0 */
 1526               	/* stack size = 2 */
 1527               	.L__stack_usage = 2
 388:lcd/lcd.c     **** 	return _rp == _wp;
 1528               		.loc 1 388 2 view .LVU298
 1529               		.loc 1 388 13 is_stmt 0 view .LVU299
 1530 078a 81E0      		ldi r24,lo8(1)
 1531 078c 0091 0000 		lds r16,_rp
 1532 0790 1091 0000 		lds r17,_rp+1
 1533 0794 2091 0000 		lds r18,_rp+2
 1534 0798 3091 0000 		lds r19,_rp+3
 1535 079c 4091 0000 		lds r20,_wp
 1536 07a0 5091 0000 		lds r21,_wp+1
 1537 07a4 6091 0000 		lds r22,_wp+2
 1538 07a8 7091 0000 		lds r23,_wp+3
 1539 07ac 0417      		cp r16,r20
 1540 07ae 1507      		cpc r17,r21
 1541 07b0 2607      		cpc r18,r22
 1542 07b2 3707      		cpc r19,r23
 1543 07b4 01F0      		breq .L69
 1544 07b6 80E0      		ldi r24,0
 1545               	.L69:
 1546               	/* epilogue start */
 389:lcd/lcd.c     **** }
 1547               		.loc 1 389 1 view .LVU300
 1548 07b8 1F91      		pop r17
 1549 07ba 0F91      		pop r16
 1550 07bc 0895      		ret
 1551               		.cfi_endproc
 1552               	.LFE9:
 1554               		.local	_type.0
 1555               		.comm	_type.0,1,1
 1556               		.local	_state.1
 1557               		.comm	_state.1,1,1
 1558               		.section	.rodata
 1561               	font5x7:
 1562 0000 00        		.string	""
 1563 0001 00        		.string	""
 1564 0002 00        		.string	""
 1565 0003 00        		.string	""
 1566 0004 00        		.string	""
 1567 0005 00        		.string	""
 1568 0006 00        		.string	""
 1569 0007 5F00      		.string	"_"
 1570 0009 00        		.string	""
 1571 000a 00        		.string	""
 1572 000b 0700      		.string	"\007"
 1573 000d 0700      		.string	"\007"
 1574 000f 147F 147F 		.string	"\024\177\024\177\024$*\177*\022#\023\bdb6IU\"P"
 1574      1424 2A7F 
 1574      2A12 2313 
 1574      0864 6236 
 1574      4955 2250 
 1575 0024 00        		.string	""
 1576 0025 0300      		.string	"\003"
 1577 0027 00        		.string	""
 1578 0028 00        		.string	""
 1579 0029 1C22 4100 		.string	"\034\"A"
 1580 002d 00        		.string	""
 1581 002e 4122 1C00 		.string	"A\"\034"
 1582 0032 1408 3E08 		.string	"\024\b>\b\024\b\b>\b\b"
 1582      1408 083E 
 1582      0808 00
 1583 003d 5030 00   		.string	"P0"
 1584 0040 00        		.string	""
 1585 0041 0808 0808 		.string	"\b\b\b\b\b"
 1585      0800 
 1586 0047 6060 00   		.string	"``"
 1587 004a 00        		.string	""
 1588 004b 2010 0804 		.string	" \020\b\004\002>QIE>"
 1588      023E 5149 
 1588      453E 00
 1589 0056 427F 4000 		.string	"B\177@"
 1590 005a 6251 4949 		.string	"bQIIF\"AII6\030\024\022\177\020'EEE9<JII0\001q\t\005\0036III6\006II)\036"
 1590      4622 4149 
 1590      4936 1814 
 1590      127F 1027 
 1590      4545 4539 
 1591 0083 3636 00   		.string	"66"
 1592 0086 00        		.string	""
 1593 0087 00        		.string	""
 1594 0088 5636 00   		.string	"V6"
 1595 008b 00        		.string	""
 1596 008c 0814 2241 		.string	"\b\024\"A"
 1596      00
 1597 0091 1414 1414 		.string	"\024\024\024\024\024"
 1597      1400 
 1598 0097 4122 1408 		.string	"A\"\024\b\002\001Q\t\0062IyA>|\022\021\022|A\177II6>AAA\"A\177AA>\177IIIA\177\t\t\t\001>A
 1598      0201 5109 
 1598      0632 4979 
 1598      413E 7C12 
 1598      1112 7C41 
 1599 00ce 417F 4100 		.string	"A\177A"
 1600 00d2 2040 413F 		.string	" @A?\001\177\b\024\"A\177@@@@\177\002\f\002\177\177\004\b\020\177>AAA>\177\t\t\t\006>AQ!^
 1600      017F 0814 
 1600      2241 7F40 
 1600      4040 407F 
 1600      020C 027F 
 1601 0128 7F41 4100 		.string	"\177AA"
 1602 012c 0204 0810 		.string	"\002\004\b\020 "
 1602      2000 
 1603 0132 4141 7F00 		.string	"AA\177"
 1604 0136 0402 0102 		.string	"\004\002\001\002\004@@@@@"
 1604      0440 4040 
 1604      4040 00
 1605 0141 0102 0400 		.string	"\001\002\004"
 1606 0145 2054 5454 		.string	" TTTx\177HDD88DDD 8DDH\1778TTT\030\b~\t\001\002\bTTT<\177\b\004\004x"
 1606      787F 4844 
 1606      4438 3844 
 1606      4444 2038 
 1606      4444 487F 
 1607 016e 487D 4000 		.string	"H}@"
 1608 0172 2040 443D 		.string	" @D="
 1608      00
 1609 0177 7F10 2844 		.string	"\177\020(D"
 1609      00
 1610 017c 00        		.string	""
 1611 017d 417F 4000 		.string	"A\177@"
 1612 0181 7C04 7804 		.string	"|\004x\004x|\b\004\004x8DDD8|\024\024\024\b\b\024\024\030||\b\004\004\bHTTT \004?D@ <@@ |
 1612      787C 0804 
 1612      0478 3844 
 1612      4444 387C 
 1612      1414 1408 
 1613 01c8 0836 4100 		.string	"\b6A"
 1614 01cc 00        		.string	""
 1615 01cd 00        		.string	""
 1616 01ce 7F00      		.string	"\177"
 1617 01d0 00        		.string	""
 1618 01d1 00        		.string	""
 1619 01d2 4136 0800 		.string	"A6\b"
 1620 01d6 1008 0810 		.ascii	"\020\b\b\020\b"
 1620      08
 1621               		.local	_rp
 1622               		.comm	_rp,4,1
 1623               		.local	_wp
 1624               		.comm	_wp,4,1
 1625               		.local	_y
 1626               		.comm	_y,4,1
 1627               		.local	_x
 1628               		.comm	_x,4,1
 1629               		.local	_step
 1630               		.comm	_step,4,1
 1631               		.local	_window
 1632               		.comm	_window,2,1
 1633               		.local	_commands
 1634               		.comm	_commands,2176,1
 1635               		.text
 1636               	.Letext0:
 1637               		.file 2 "/usr/lib/gcc/avr/12.2.0/include/stdint-gcc.h"
 1638               		.file 3 "../../types/types.h"
DEFINED SYMBOLS
                            *ABS*:00000000 lcd.c
     /tmp/ccVvyEOw.s:2      *ABS*:0000003e __SP_H__
     /tmp/ccVvyEOw.s:3      *ABS*:0000003d __SP_L__
     /tmp/ccVvyEOw.s:4      *ABS*:0000003f __SREG__
     /tmp/ccVvyEOw.s:5      *ABS*:00000000 __tmp_reg__
     /tmp/ccVvyEOw.s:6      *ABS*:00000001 __zero_reg__
     /tmp/ccVvyEOw.s:13     .text:00000000 lcd_init
     /tmp/ccVvyEOw.s:16     .text:00000000 .Loc.0
     /tmp/ccVvyEOw.s:17     .text:00000000 L0
     /tmp/ccVvyEOw.s:22     .text:00000000 .Loc.1
     /tmp/ccVvyEOw.s:25     .text:00000002 L0
     /tmp/ccVvyEOw.s:30     .text:00000002 asynclcd_color
     /tmp/ccVvyEOw.s:33     .text:00000002 .Loc.2
     /tmp/ccVvyEOw.s:34     .text:00000002 L0
     /tmp/ccVvyEOw.s:39     .text:00000002 .Loc.3
     /tmp/ccVvyEOw.s:40     .text:00000002 .Loc.4
     /tmp/ccVvyEOw.s:46     .text:0000000a .Loc.5
     /tmp/ccVvyEOw.s:49     .text:0000000e .Loc.6
     /tmp/ccVvyEOw.s:54     .text:00000014 .Loc.7
     /tmp/ccVvyEOw.s:56     .text:00000016 .Loc.8
     /tmp/ccVvyEOw.s:62     .text:0000001e .Loc.9
     /tmp/ccVvyEOw.s:66     .text:00000024 .Loc.10
     /tmp/ccVvyEOw.s:71     .text:0000002a L0
     /tmp/ccVvyEOw.s:76     .text:0000002a asynclcd_rect
     /tmp/ccVvyEOw.s:79     .text:0000002a .Loc.11
     /tmp/ccVvyEOw.s:80     .text:0000002a L0
     /tmp/ccVvyEOw.s:81     .text:0000002a .Loc.12
     /tmp/ccVvyEOw.s:137    .text:0000004e .Loc.13
     /tmp/ccVvyEOw.s:138    .text:0000004e .Loc.14
     /tmp/ccVvyEOw.s:1622   .bss:00000006 _wp
     /tmp/ccVvyEOw.s:143    .text:0000005e .Loc.15
     /tmp/ccVvyEOw.s:1557   .bss:00000002 _rp
     /tmp/ccVvyEOw.s:153    .text:00000078 .Loc.16
     /tmp/ccVvyEOw.s:159    .text:00000082 .Loc.17
     /tmp/ccVvyEOw.s:160    .text:00000082 .Loc.18
     /tmp/ccVvyEOw.s:172    .text:000000a0 .Loc.19
     /tmp/ccVvyEOw.s:178    .text:000000a8 .Loc.20
     /tmp/ccVvyEOw.s:179    .text:000000a8 .Loc.21
     /tmp/ccVvyEOw.s:1632   .bss:00000018 _commands
     /tmp/ccVvyEOw.s:189    .text:000000ba .Loc.22
     /tmp/ccVvyEOw.s:190    .text:000000ba .Loc.23
     /tmp/ccVvyEOw.s:193    .text:000000be .Loc.24
     /tmp/ccVvyEOw.s:194    .text:000000be .Loc.25
     /tmp/ccVvyEOw.s:197    .text:000000c2 .Loc.26
     /tmp/ccVvyEOw.s:198    .text:000000c2 .Loc.27
     /tmp/ccVvyEOw.s:201    .text:000000c6 .Loc.28
     /tmp/ccVvyEOw.s:202    .text:000000c6 .Loc.29
     /tmp/ccVvyEOw.s:205    .text:000000ca .Loc.30
     /tmp/ccVvyEOw.s:206    .text:000000ca .Loc.31
     /tmp/ccVvyEOw.s:212    .text:000000ce .Loc.32
     /tmp/ccVvyEOw.s:220    .text:000000da .Loc.33
     /tmp/ccVvyEOw.s:226    .text:000000e2 .Loc.34
     /tmp/ccVvyEOw.s:230    .text:000000e6 .Loc.35
     /tmp/ccVvyEOw.s:236    .text:000000f0 L0
     /tmp/ccVvyEOw.s:241    .text:000000f0 asynclcd_char
     /tmp/ccVvyEOw.s:244    .text:000000f0 .Loc.36
     /tmp/ccVvyEOw.s:245    .text:000000f0 L0
     /tmp/ccVvyEOw.s:246    .text:000000f0 .Loc.37
     /tmp/ccVvyEOw.s:289    .text:0000010e L0
     /tmp/ccVvyEOw.s:290    .text:00000110 L0
     /tmp/ccVvyEOw.s:299    .text:00000114 .Loc.38
     /tmp/ccVvyEOw.s:300    .text:00000114 .Loc.39
     /tmp/ccVvyEOw.s:305    .text:00000124 .Loc.40
     /tmp/ccVvyEOw.s:315    .text:0000013e .Loc.41
     /tmp/ccVvyEOw.s:320    .text:00000148 L0
     /tmp/ccVvyEOw.s:322    .text:0000014a .Loc.42
     /tmp/ccVvyEOw.s:323    .text:0000014a .Loc.43
     /tmp/ccVvyEOw.s:335    .text:00000168 .Loc.44
     /tmp/ccVvyEOw.s:341    .text:00000170 .Loc.45
     /tmp/ccVvyEOw.s:342    .text:00000170 .Loc.46
     /tmp/ccVvyEOw.s:353    .text:00000182 .Loc.47
     /tmp/ccVvyEOw.s:355    .text:00000184 .Loc.48
     /tmp/ccVvyEOw.s:356    .text:00000184 .Loc.49
     /tmp/ccVvyEOw.s:361    .text:0000018c .Loc.50
     /tmp/ccVvyEOw.s:362    .text:0000018c .Loc.51
     /tmp/ccVvyEOw.s:365    .text:00000190 .Loc.52
     /tmp/ccVvyEOw.s:366    .text:00000190 .Loc.53
     /tmp/ccVvyEOw.s:369    .text:00000194 .Loc.54
     /tmp/ccVvyEOw.s:370    .text:00000194 .Loc.55
     /tmp/ccVvyEOw.s:375    .text:0000019c .Loc.56
     /tmp/ccVvyEOw.s:376    .text:0000019c .Loc.57
     /tmp/ccVvyEOw.s:381    .text:000001a4 .Loc.58
     /tmp/ccVvyEOw.s:382    .text:000001a4 .Loc.59
     /tmp/ccVvyEOw.s:385    .text:000001a8 .Loc.60
     /tmp/ccVvyEOw.s:386    .text:000001a8 .Loc.61
     /tmp/ccVvyEOw.s:389    .text:000001ac .Loc.62
     /tmp/ccVvyEOw.s:390    .text:000001ac .Loc.63
     /tmp/ccVvyEOw.s:401    .text:000001bc .Loc.64
     /tmp/ccVvyEOw.s:408    .text:000001c4 .Loc.65
     /tmp/ccVvyEOw.s:418    .text:000001d4 .Loc.66
     /tmp/ccVvyEOw.s:422    .text:000001d8 .Loc.67
     /tmp/ccVvyEOw.s:428    .text:000001e0 .Loc.68
     /tmp/ccVvyEOw.s:436    .text:000001ea .Loc.69
     /tmp/ccVvyEOw.s:442    .text:000001f4 L0
     /tmp/ccVvyEOw.s:447    .text:000001f4 asynclcd_string
     /tmp/ccVvyEOw.s:450    .text:000001f4 .Loc.70
     /tmp/ccVvyEOw.s:451    .text:000001f4 L0
     /tmp/ccVvyEOw.s:452    .text:000001f4 .Loc.71
     /tmp/ccVvyEOw.s:533    .text:00000240 .Loc.72
     /tmp/ccVvyEOw.s:534    .text:00000240 .Loc.73
     /tmp/ccVvyEOw.s:537    .text:00000240 .Loc.74
     /tmp/ccVvyEOw.s:538    .text:00000240 .Loc.75
     /tmp/ccVvyEOw.s:542    .text:00000244 .Loc.76
     /tmp/ccVvyEOw.s:546    .text:00000248 .Loc.77
     /tmp/ccVvyEOw.s:549    .text:0000024a .Loc.78
     /tmp/ccVvyEOw.s:557    .text:00000256 .Loc.79
     /tmp/ccVvyEOw.s:561    .text:0000025a .Loc.80
     /tmp/ccVvyEOw.s:579    .text:0000027a .Loc.81
     /tmp/ccVvyEOw.s:591    .text:0000028c .Loc.82
     /tmp/ccVvyEOw.s:592    .text:0000028c .Loc.83
     /tmp/ccVvyEOw.s:607    .text:000002a8 .Loc.84
     /tmp/ccVvyEOw.s:612    .text:000002b0 .Loc.85
     /tmp/ccVvyEOw.s:626    .text:000002c8 .Loc.86
     /tmp/ccVvyEOw.s:630    .text:000002ce L0
     /tmp/ccVvyEOw.s:635    .text:000002ce asynclcd_update
     /tmp/ccVvyEOw.s:637    .text:000002ce .Loc.87
     /tmp/ccVvyEOw.s:638    .text:000002ce L0
     /tmp/ccVvyEOw.s:675    .text:000002e8 L0
     /tmp/ccVvyEOw.s:676    .text:000002ea L0
     /tmp/ccVvyEOw.s:686    .text:000002f0 .Loc.88
     /tmp/ccVvyEOw.s:687    .text:000002f0 .Loc.89
     /tmp/ccVvyEOw.s:1555   .bss:00000001 _state.1
     /tmp/ccVvyEOw.s:690    .text:000002f8 L0
     /tmp/ccVvyEOw.s:693    .text:000002fe L0
     /tmp/ccVvyEOw.s:697    .text:00000304 .Loc.90
     /tmp/ccVvyEOw.s:698    .text:00000304 .Loc.91
     /tmp/ccVvyEOw.s:703    .text:00000314 .Loc.92
     /tmp/ccVvyEOw.s:707    .text:00000318 .Loc.93
     /tmp/ccVvyEOw.s:710    .text:00000318 .Loc.94
     /tmp/ccVvyEOw.s:712    .text:00000318 .Loc.95
     /tmp/ccVvyEOw.s:713    .text:00000318 .Loc.96
     /tmp/ccVvyEOw.s:715    .text:00000318 .Loc.97
     /tmp/ccVvyEOw.s:716    .text:00000318 .Loc.98
     /tmp/ccVvyEOw.s:1630   .bss:00000016 _window
     /tmp/ccVvyEOw.s:719    .text:00000320 .Loc.99
     /tmp/ccVvyEOw.s:721    .text:00000324 L0
     /tmp/ccVvyEOw.s:723    .text:00000326 .Loc.100
     /tmp/ccVvyEOw.s:724    .text:00000326 .Loc.101
     /tmp/ccVvyEOw.s:728    .text:0000032a .Loc.102
     /tmp/ccVvyEOw.s:729    .text:0000032a .Loc.103
     /tmp/ccVvyEOw.s:733    .text:0000032e .Loc.104
     /tmp/ccVvyEOw.s:734    .text:0000032e .Loc.105
     /tmp/ccVvyEOw.s:738    .text:00000332 .Loc.106
     /tmp/ccVvyEOw.s:739    .text:00000332 .Loc.107
     /tmp/ccVvyEOw.s:743    .text:00000336 .Loc.108
     /tmp/ccVvyEOw.s:744    .text:00000336 .Loc.109
     /tmp/ccVvyEOw.s:748    .text:0000033c .Loc.110
     /tmp/ccVvyEOw.s:752    .text:00000340 .Loc.111
     /tmp/ccVvyEOw.s:753    .text:00000340 .Loc.112
     /tmp/ccVvyEOw.s:757    .text:00000346 .Loc.113
     /tmp/ccVvyEOw.s:762    .text:0000034c .Loc.114
     /tmp/ccVvyEOw.s:1628   .bss:00000012 _step
     /tmp/ccVvyEOw.s:772    .text:00000368 L0
     /tmp/ccVvyEOw.s:803    .text:00000374 .Loc.115
     /tmp/ccVvyEOw.s:813    .text:0000038e .Loc.116
     /tmp/ccVvyEOw.s:815    .text:0000038e .Loc.117
     /tmp/ccVvyEOw.s:818    .text:0000038e .Loc.118
     /tmp/ccVvyEOw.s:820    .text:0000038e .Loc.119
     /tmp/ccVvyEOw.s:821    .text:0000038e .Loc.120
     /tmp/ccVvyEOw.s:822    .text:0000038e .Loc.121
                             .bss:00000000 _type.0
     /tmp/ccVvyEOw.s:825    .text:00000394 .Loc.122
     /tmp/ccVvyEOw.s:826    .text:00000394 .Loc.123
     /tmp/ccVvyEOw.s:827    .text:00000394 .Loc.124
     /tmp/ccVvyEOw.s:833    .text:0000039a .Loc.125
     /tmp/ccVvyEOw.s:842    .text:000003ae .Loc.126
     /tmp/ccVvyEOw.s:846    .text:000003ae .Loc.127
     /tmp/ccVvyEOw.s:855    .text:000003c6 .Loc.128
     /tmp/ccVvyEOw.s:857    .text:000003c6 .Loc.129
     /tmp/ccVvyEOw.s:860    .text:000003c6 .Loc.130
     /tmp/ccVvyEOw.s:862    .text:000003c6 .Loc.131
     /tmp/ccVvyEOw.s:863    .text:000003c6 .Loc.132
     /tmp/ccVvyEOw.s:864    .text:000003c6 .Loc.133
     /tmp/ccVvyEOw.s:866    .text:000003ca .Loc.134
     /tmp/ccVvyEOw.s:867    .text:000003ca .Loc.135
     /tmp/ccVvyEOw.s:874    .text:000003d2 .Loc.136
     /tmp/ccVvyEOw.s:880    .text:000003e2 .Loc.137
     /tmp/ccVvyEOw.s:885    .text:000003f2 .Loc.138
     /tmp/ccVvyEOw.s:897    .text:00000414 .Loc.139
     /tmp/ccVvyEOw.s:901    .text:00000414 .Loc.140
     /tmp/ccVvyEOw.s:902    .text:00000414 .Loc.141
     /tmp/ccVvyEOw.s:906    .text:00000418 .Loc.142
     /tmp/ccVvyEOw.s:910    .text:0000041a .Loc.143
     /tmp/ccVvyEOw.s:918    .text:00000426 .Loc.144
     /tmp/ccVvyEOw.s:922    .text:00000428 .Loc.145
     /tmp/ccVvyEOw.s:923    .text:00000428 .Loc.146
     /tmp/ccVvyEOw.s:926    .text:0000042a .Loc.147
     /tmp/ccVvyEOw.s:937    .text:0000043a .Loc.148
     /tmp/ccVvyEOw.s:940    .text:0000043c .Loc.149
     /tmp/ccVvyEOw.s:942    .text:0000043c .Loc.150
     /tmp/ccVvyEOw.s:952    .text:00000456 .Loc.151
     /tmp/ccVvyEOw.s:954    .text:00000456 .Loc.152
     /tmp/ccVvyEOw.s:957    .text:00000456 .Loc.153
     /tmp/ccVvyEOw.s:959    .text:00000456 .Loc.154
     /tmp/ccVvyEOw.s:960    .text:00000456 .Loc.155
     /tmp/ccVvyEOw.s:966    .text:0000045e .Loc.156
     /tmp/ccVvyEOw.s:967    .text:0000045e .Loc.157
     /tmp/ccVvyEOw.s:969    .text:00000462 .Loc.158
     /tmp/ccVvyEOw.s:970    .text:00000462 .Loc.159
     /tmp/ccVvyEOw.s:972    .text:00000466 L0
     /tmp/ccVvyEOw.s:974    .text:00000468 .Loc.160
     /tmp/ccVvyEOw.s:975    .text:00000468 .Loc.161
     /tmp/ccVvyEOw.s:977    .text:0000046c L0
     /tmp/ccVvyEOw.s:981    .text:0000046e .Loc.162
     /tmp/ccVvyEOw.s:982    .text:0000046e .Loc.163
     /tmp/ccVvyEOw.s:987    .text:0000047e .Loc.164
     /tmp/ccVvyEOw.s:988    .text:0000047e .Loc.165
     /tmp/ccVvyEOw.s:993    .text:00000480 .Loc.166
     /tmp/ccVvyEOw.s:1001   .text:00000486 .Loc.167
     /tmp/ccVvyEOw.s:1002   .text:00000486 .Loc.168
     /tmp/ccVvyEOw.s:1006   .text:0000048a .Loc.169
     /tmp/ccVvyEOw.s:1011   .text:0000048e .Loc.170
     /tmp/ccVvyEOw.s:1012   .text:0000048e .Loc.171
     /tmp/ccVvyEOw.s:1016   .text:00000492 .Loc.172
     /tmp/ccVvyEOw.s:1018   .text:00000492 .Loc.173
     /tmp/ccVvyEOw.s:1019   .text:00000492 .Loc.174
     /tmp/ccVvyEOw.s:1028   .text:000004aa .Loc.175
     /tmp/ccVvyEOw.s:1030   .text:000004aa .Loc.176
     /tmp/ccVvyEOw.s:1033   .text:000004aa .Loc.177
     /tmp/ccVvyEOw.s:1035   .text:000004aa .Loc.178
     /tmp/ccVvyEOw.s:1036   .text:000004aa .Loc.179
     /tmp/ccVvyEOw.s:1037   .text:000004aa .Loc.180
     /tmp/ccVvyEOw.s:1040   .text:000004b0 .Loc.181
     /tmp/ccVvyEOw.s:1041   .text:000004b0 .Loc.182
     /tmp/ccVvyEOw.s:1049   .text:000004ba .Loc.183
     /tmp/ccVvyEOw.s:1053   .text:000004ba .Loc.184
     /tmp/ccVvyEOw.s:1054   .text:000004ba .Loc.185
     /tmp/ccVvyEOw.s:1058   .text:000004be .Loc.186
     /tmp/ccVvyEOw.s:1063   .text:000004c2 .Loc.187
     /tmp/ccVvyEOw.s:1064   .text:000004c2 .Loc.188
     /tmp/ccVvyEOw.s:1068   .text:000004c6 .Loc.189
     /tmp/ccVvyEOw.s:1069   .text:000004c6 .Loc.190
     /tmp/ccVvyEOw.s:1074   .text:000004cc .Loc.191
     /tmp/ccVvyEOw.s:1075   .text:000004cc .Loc.192
     /tmp/ccVvyEOw.s:1079   .text:000004d0 .Loc.193
     /tmp/ccVvyEOw.s:1081   .text:000004d0 .Loc.194
     /tmp/ccVvyEOw.s:1082   .text:000004d0 .Loc.195
     /tmp/ccVvyEOw.s:1091   .text:000004e8 .Loc.196
     /tmp/ccVvyEOw.s:1093   .text:000004e8 .Loc.197
     /tmp/ccVvyEOw.s:1096   .text:000004e8 .Loc.198
     /tmp/ccVvyEOw.s:1098   .text:000004e8 .Loc.199
     /tmp/ccVvyEOw.s:1099   .text:000004e8 .Loc.200
     /tmp/ccVvyEOw.s:1100   .text:000004e8 .Loc.201
     /tmp/ccVvyEOw.s:1103   .text:000004ee .Loc.202
     /tmp/ccVvyEOw.s:1104   .text:000004ee .Loc.203
     /tmp/ccVvyEOw.s:1112   .text:000004f8 .Loc.204
     /tmp/ccVvyEOw.s:1116   .text:000004f8 .Loc.205
     /tmp/ccVvyEOw.s:1117   .text:000004f8 .Loc.206
     /tmp/ccVvyEOw.s:1119   .text:000004fa .Loc.207
     /tmp/ccVvyEOw.s:1124   .text:000004fe .Loc.208
     /tmp/ccVvyEOw.s:1129   .text:00000502 .Loc.209
     /tmp/ccVvyEOw.s:1130   .text:00000502 .Loc.210
     /tmp/ccVvyEOw.s:1133   .text:00000506 .Loc.211
     /tmp/ccVvyEOw.s:1134   .text:00000506 .Loc.212
     /tmp/ccVvyEOw.s:1138   .text:0000050a .Loc.213
     /tmp/ccVvyEOw.s:1139   .text:0000050a .Loc.214
     /tmp/ccVvyEOw.s:1145   .text:00000516 L0
     /tmp/ccVvyEOw.s:1147   .text:00000518 .Loc.215
     /tmp/ccVvyEOw.s:1148   .text:00000518 .Loc.216
     /tmp/ccVvyEOw.s:1153   .text:0000051e .Loc.217
     /tmp/ccVvyEOw.s:1160   .text:00000526 .Loc.218
     /tmp/ccVvyEOw.s:1165   .text:0000052a .Loc.219
     /tmp/ccVvyEOw.s:1166   .text:0000052a .Loc.220
     /tmp/ccVvyEOw.s:1169   .text:0000052e .Loc.221
     /tmp/ccVvyEOw.s:1170   .text:0000052e .Loc.222
     /tmp/ccVvyEOw.s:1178   .text:0000053a .Loc.223
     /tmp/ccVvyEOw.s:1183   .text:00000542 .Loc.224
     /tmp/ccVvyEOw.s:1188   .text:0000054a .Loc.225
     /tmp/ccVvyEOw.s:1193   .text:00000552 .Loc.226
     /tmp/ccVvyEOw.s:1626   .bss:0000000e _x
     /tmp/ccVvyEOw.s:1206   .text:00000572 .Loc.227
     /tmp/ccVvyEOw.s:1561   .rodata:00000000 font5x7
     /tmp/ccVvyEOw.s:1212   .text:0000057c .Loc.228
     /tmp/ccVvyEOw.s:1624   .bss:0000000a _y
     /tmp/ccVvyEOw.s:1221   .text:0000058a .Loc.229
     /tmp/ccVvyEOw.s:1229   .text:00000594 .Loc.230
     /tmp/ccVvyEOw.s:1230   .text:00000594 .Loc.231
     /tmp/ccVvyEOw.s:1233   .text:00000596 .Loc.232
     /tmp/ccVvyEOw.s:1241   .text:000005a2 .Loc.233
     /tmp/ccVvyEOw.s:1244   .text:000005a6 .Loc.234
     /tmp/ccVvyEOw.s:1251   .text:000005b2 .Loc.235
     /tmp/ccVvyEOw.s:1253   .text:000005b2 .Loc.236
     /tmp/ccVvyEOw.s:1254   .text:000005b2 .Loc.237
     /tmp/ccVvyEOw.s:1255   .text:000005b2 .Loc.238
     /tmp/ccVvyEOw.s:1263   .text:000005c8 .Loc.239
     /tmp/ccVvyEOw.s:1266   .text:000005cc .Loc.240
     /tmp/ccVvyEOw.s:1278   .text:000005e6 .Loc.241
     /tmp/ccVvyEOw.s:1284   .text:000005ec .Loc.242
     /tmp/ccVvyEOw.s:1285   .text:000005ec .Loc.243
     /tmp/ccVvyEOw.s:1290   .text:000005f2 .Loc.244
     /tmp/ccVvyEOw.s:1296   .text:000005fa .Loc.245
     /tmp/ccVvyEOw.s:1299   .text:000005fe .Loc.246
     /tmp/ccVvyEOw.s:1302   .text:00000600 .Loc.247
     /tmp/ccVvyEOw.s:1306   .text:00000602 .Loc.248
     /tmp/ccVvyEOw.s:1307   .text:00000602 .Loc.249
     /tmp/ccVvyEOw.s:1312   .text:00000612 .Loc.250
     /tmp/ccVvyEOw.s:1313   .text:00000612 .Loc.251
     /tmp/ccVvyEOw.s:1319   .text:00000622 .Loc.252
     /tmp/ccVvyEOw.s:1324   .text:0000062a .Loc.253
     /tmp/ccVvyEOw.s:1329   .text:0000063a .Loc.254
     /tmp/ccVvyEOw.s:1334   .text:00000640 .Loc.255
     /tmp/ccVvyEOw.s:1340   .text:0000064a .Loc.256
     /tmp/ccVvyEOw.s:1341   .text:0000064a .Loc.257
     /tmp/ccVvyEOw.s:1346   .text:00000650 .Loc.258
     /tmp/ccVvyEOw.s:1347   .text:00000650 .Loc.259
     /tmp/ccVvyEOw.s:1351   .text:00000658 .Loc.260
     /tmp/ccVvyEOw.s:1355   .text:0000065a .Loc.261
     /tmp/ccVvyEOw.s:1358   .text:0000065a .Loc.262
     /tmp/ccVvyEOw.s:1359   .text:0000065a .Loc.263
     /tmp/ccVvyEOw.s:1360   .text:0000065a .Loc.264
     /tmp/ccVvyEOw.s:1365   .text:0000066a .Loc.265
     /tmp/ccVvyEOw.s:1378   .text:00000684 .Loc.266
     /tmp/ccVvyEOw.s:1380   .text:00000684 .Loc.267
     /tmp/ccVvyEOw.s:1402   .text:000006a8 .Loc.268
     /tmp/ccVvyEOw.s:1403   .text:000006a8 .Loc.269
     /tmp/ccVvyEOw.s:1408   .text:000006b8 .Loc.270
     /tmp/ccVvyEOw.s:1409   .text:000006b8 .Loc.271
     /tmp/ccVvyEOw.s:1414   .text:000006c8 .Loc.272
     /tmp/ccVvyEOw.s:1415   .text:000006c8 .Loc.273
     /tmp/ccVvyEOw.s:1420   .text:000006d8 .Loc.274
     /tmp/ccVvyEOw.s:1421   .text:000006d8 .Loc.275
     /tmp/ccVvyEOw.s:1432   .text:000006f4 .Loc.276
     /tmp/ccVvyEOw.s:1437   .text:000006fc .Loc.277
     /tmp/ccVvyEOw.s:1446   .text:0000070c .Loc.278
     /tmp/ccVvyEOw.s:1452   .text:00000716 .Loc.279
     /tmp/ccVvyEOw.s:1454   .text:00000716 .Loc.280
     /tmp/ccVvyEOw.s:1455   .text:00000716 .Loc.281
     /tmp/ccVvyEOw.s:1460   .text:00000726 .Loc.282
     /tmp/ccVvyEOw.s:1463   .text:0000072a .Loc.283
     /tmp/ccVvyEOw.s:1464   .text:0000072a .Loc.284
     /tmp/ccVvyEOw.s:1468   .text:0000072e .Loc.285
     /tmp/ccVvyEOw.s:1469   .text:0000072e .Loc.286
     /tmp/ccVvyEOw.s:1474   .text:0000073e .Loc.287
     /tmp/ccVvyEOw.s:1478   .text:00000742 .Loc.288
     /tmp/ccVvyEOw.s:1479   .text:00000742 .Loc.289
     /tmp/ccVvyEOw.s:1484   .text:00000752 .Loc.290
     /tmp/ccVvyEOw.s:1486   .text:00000754 .Loc.291
     /tmp/ccVvyEOw.s:1487   .text:00000754 .Loc.292
     /tmp/ccVvyEOw.s:1492   .text:0000075e .Loc.293
     /tmp/ccVvyEOw.s:1503   .text:00000780 .Loc.294
     /tmp/ccVvyEOw.s:1504   .text:00000780 .Loc.295
     /tmp/ccVvyEOw.s:1507   .text:00000784 .Loc.296
     /tmp/ccVvyEOw.s:1509   .text:00000786 L0
     /tmp/ccVvyEOw.s:1514   .text:00000786 asynclcd_ready
     /tmp/ccVvyEOw.s:1516   .text:00000786 .Loc.297
     /tmp/ccVvyEOw.s:1517   .text:00000786 L0
     /tmp/ccVvyEOw.s:1528   .text:0000078a .Loc.298
     /tmp/ccVvyEOw.s:1529   .text:0000078a .Loc.299
     /tmp/ccVvyEOw.s:1547   .text:000007b8 .Loc.300
     /tmp/ccVvyEOw.s:1551   .text:000007be L0
     /tmp/ccVvyEOw.s:1639   .text:000007be L0
                     .debug_frame:00000000 L0
     /tmp/ccVvyEOw.s:210    .text:000000ce .L3
     /tmp/ccVvyEOw.s:435    .text:000001ea .L7
     /tmp/ccVvyEOw.s:400    .text:000001bc .L5
     /tmp/ccVvyEOw.s:590    .text:0000028c .L10
     /tmp/ccVvyEOw.s:536    .text:00000240 .L9
     /tmp/ccVvyEOw.s:1451   .text:00000716 .L12
     /tmp/ccVvyEOw.s:1467   .text:0000072e .L13
     /tmp/ccVvyEOw.s:1376   .text:00000684 .L11
     /tmp/ccVvyEOw.s:1354   .text:0000065a .L15
     /tmp/ccVvyEOw.s:1111   .text:000004f8 .L16
     /tmp/ccVvyEOw.s:780    .jumptables.gcc.asynclcd_update:00000000 .L18
     /tmp/ccVvyEOw.s:879    .text:000003e2 .L65
     /tmp/ccVvyEOw.s:980    .text:0000046e .L43
     /tmp/ccVvyEOw.s:936    .text:0000043a .L63
     /tmp/ccVvyEOw.s:873    .text:000003d2 .L31
     /tmp/ccVvyEOw.s:832    .text:0000039a .L30
     /tmp/ccVvyEOw.s:909    .text:0000041a .L67
     /tmp/ccVvyEOw.s:925    .text:0000042a .L64
     /tmp/ccVvyEOw.s:1164   .text:0000052a .L33
     /tmp/ccVvyEOw.s:1228   .text:00000594 .L36
     /tmp/ccVvyEOw.s:1283   .text:000005ec .L37
     /tmp/ccVvyEOw.s:941    .text:0000043c .L32
     /tmp/ccVvyEOw.s:1127   .text:00000502 .L34
     /tmp/ccVvyEOw.s:1218   .text:00000586 .L21
     /tmp/ccVvyEOw.s:1215   .text:00000582 .L11
     /tmp/ccVvyEOw.s:1123   .text:000004fe .L61
     /tmp/ccVvyEOw.s:1305   .text:00000602 .L38
     /tmp/ccVvyEOw.s:1159   .text:00000526 .L62
     /tmp/ccVvyEOw.s:1277   .text:000005e6 .L39
     /tmp/ccVvyEOw.s:1400   .text:000006a8 .L42
     /tmp/ccVvyEOw.s:990    .text:00000480 .L66
     /tmp/ccVvyEOw.s:1502   .text:00000780 .L44
     /tmp/ccVvyEOw.s:1545   .text:000007b8 .L69
     /tmp/ccVvyEOw.s:841    .text:000003ae .L29
     /tmp/ccVvyEOw.s:801    .text:00000374 .L20
     /tmp/ccVvyEOw.s:896    .text:00000414 .L28
     /tmp/ccVvyEOw.s:921    .text:00000428 .L27
     /tmp/ccVvyEOw.s:997    .text:00000486 .L26
     /tmp/ccVvyEOw.s:1010   .text:0000048e .L25
     /tmp/ccVvyEOw.s:1015   .text:00000492 .L24
     /tmp/ccVvyEOw.s:1048   .text:000004ba .L23
     /tmp/ccVvyEOw.s:1062   .text:000004c2 .L22
     /tmp/ccVvyEOw.s:1067   .text:000004c6 .L21
     /tmp/ccVvyEOw.s:1073   .text:000004cc .L19
     /tmp/ccVvyEOw.s:1078   .text:000004d0 .L17
     /tmp/ccVvyEOw.s:2289   .debug_abbrev:00000000 .Ldebug_abbrev0
     /tmp/ccVvyEOw.s:8      .text:00000000 .Ltext0
     /tmp/ccVvyEOw.s:1636   .text:000007be .Letext0
     /tmp/ccVvyEOw.s:4908   .debug_line:00000000 .Ldebug_line0
     /tmp/ccVvyEOw.s:1515   .text:00000786 .LFB9
     /tmp/ccVvyEOw.s:1552   .text:000007be .LFE9
     /tmp/ccVvyEOw.s:636    .text:000002ce .LFB8
     /tmp/ccVvyEOw.s:1510   .text:00000786 .LFE8
     /tmp/ccVvyEOw.s:4858   .debug_rnglists:0000000c .LLRL18
     /tmp/ccVvyEOw.s:2865   .debug_loclists:0000001a .LLST19
     /tmp/ccVvyEOw.s:2850   .debug_loclists:0000000c .LVUS19
     /tmp/ccVvyEOw.s:4889   .debug_rnglists:0000003b .LLRL29
     /tmp/ccVvyEOw.s:2933   .debug_loclists:0000006d .LLST30
     /tmp/ccVvyEOw.s:2922   .debug_loclists:00000063 .LVUS30
     /tmp/ccVvyEOw.s:709    .text:00000318 .LBI8
     /tmp/ccVvyEOw.s:4869   .debug_rnglists:0000001c .LLRL20
     /tmp/ccVvyEOw.s:2980   .debug_loclists:000000a4 .LLST21
     /tmp/ccVvyEOw.s:2967   .debug_loclists:00000098 .LVUS21
     /tmp/ccVvyEOw.s:3071   .debug_loclists:00000109 .LLST22
     /tmp/ccVvyEOw.s:3042   .debug_loclists:000000ed .LVUS22
     /tmp/ccVvyEOw.s:3240   .debug_loclists:000001d8 .LLST23
     /tmp/ccVvyEOw.s:3205   .debug_loclists:000001b6 .LVUS23
     /tmp/ccVvyEOw.s:3437   .debug_loclists:000002cf .LLST24
     /tmp/ccVvyEOw.s:3408   .debug_loclists:000002b3 .LVUS24
     /tmp/ccVvyEOw.s:3592   .debug_loclists:00000393 .LLST25
     /tmp/ccVvyEOw.s:3579   .debug_loclists:00000387 .LVUS25
     /tmp/ccVvyEOw.s:3697   .debug_loclists:00000406 .LLST26
     /tmp/ccVvyEOw.s:3654   .debug_loclists:000003dc .LVUS26
     /tmp/ccVvyEOw.s:4028   .debug_loclists:000005a0 .LLST27
     /tmp/ccVvyEOw.s:4015   .debug_loclists:00000594 .LVUS27
     /tmp/ccVvyEOw.s:4123   .debug_loclists:00000609 .LLST28
     /tmp/ccVvyEOw.s:4090   .debug_loclists:000005e9 .LVUS28
     /tmp/ccVvyEOw.s:1477   .text:00000742 .LBB27
     /tmp/ccVvyEOw.s:1506   .text:00000784 .LBE27
     /tmp/ccVvyEOw.s:449    .text:000001f4 .LFB7
     /tmp/ccVvyEOw.s:631    .text:000002ce .LFE7
     /tmp/ccVvyEOw.s:4265   .debug_loclists:000006b8 .LLST12
     /tmp/ccVvyEOw.s:4260   .debug_loclists:000006b4 .LVUS12
     /tmp/ccVvyEOw.s:4304   .debug_loclists:000006e1 .LLST13
     /tmp/ccVvyEOw.s:4299   .debug_loclists:000006dd .LVUS13
     /tmp/ccVvyEOw.s:4335   .debug_loclists:00000702 .LLST14
     /tmp/ccVvyEOw.s:4330   .debug_loclists:000006fe .LVUS14
     /tmp/ccVvyEOw.s:4360   .debug_loclists:0000071d .LLST15
     /tmp/ccVvyEOw.s:4355   .debug_loclists:00000719 .LVUS15
     /tmp/ccVvyEOw.s:4389   .debug_loclists:0000073c .LLST16
     /tmp/ccVvyEOw.s:4380   .debug_loclists:00000734 .LVUS16
     /tmp/ccVvyEOw.s:4433   .debug_loclists:0000076e .LLST17
     /tmp/ccVvyEOw.s:4428   .debug_loclists:0000076a .LVUS17
     /tmp/ccVvyEOw.s:606    .text:000002a8 .LVL27
     /tmp/ccVvyEOw.s:243    .text:000000f0 .LFB6
     /tmp/ccVvyEOw.s:443    .text:000001f4 .LFE6
     /tmp/ccVvyEOw.s:4474   .debug_loclists:00000799 .LLST7
     /tmp/ccVvyEOw.s:4467   .debug_loclists:00000793 .LVUS7
     /tmp/ccVvyEOw.s:4523   .debug_loclists:000007ce .LLST8
     /tmp/ccVvyEOw.s:4516   .debug_loclists:000007c8 .LVUS8
     /tmp/ccVvyEOw.s:4560   .debug_loclists:000007f7 .LLST9
     /tmp/ccVvyEOw.s:4553   .debug_loclists:000007f1 .LVUS9
     /tmp/ccVvyEOw.s:4597   .debug_loclists:00000820 .LLST10
     /tmp/ccVvyEOw.s:4590   .debug_loclists:0000081a .LVUS10
     /tmp/ccVvyEOw.s:4644   .debug_loclists:00000853 .LLST11
     /tmp/ccVvyEOw.s:4639   .debug_loclists:0000084f .LVUS11
     /tmp/ccVvyEOw.s:78     .text:0000002a .LFB5
     /tmp/ccVvyEOw.s:237    .text:000000f0 .LFE5
     /tmp/ccVvyEOw.s:4678   .debug_loclists:0000087d .LLST3
     /tmp/ccVvyEOw.s:4673   .debug_loclists:00000879 .LVUS3
     /tmp/ccVvyEOw.s:4709   .debug_loclists:0000089d .LLST4
     /tmp/ccVvyEOw.s:4704   .debug_loclists:00000899 .LVUS4
     /tmp/ccVvyEOw.s:4740   .debug_loclists:000008bd .LLST5
     /tmp/ccVvyEOw.s:4735   .debug_loclists:000008b9 .LVUS5
     /tmp/ccVvyEOw.s:4763   .debug_loclists:000008d5 .LLST6
     /tmp/ccVvyEOw.s:4760   .debug_loclists:000008d3 .LVUS6
     /tmp/ccVvyEOw.s:32     .text:00000002 .LFB4
     /tmp/ccVvyEOw.s:72     .text:0000002a .LFE4
     /tmp/ccVvyEOw.s:4782   .debug_loclists:000008eb .LLST0
     /tmp/ccVvyEOw.s:4777   .debug_loclists:000008e7 .LVUS0
     /tmp/ccVvyEOw.s:4802   .debug_loclists:000008fd .LLST1
     /tmp/ccVvyEOw.s:4797   .debug_loclists:000008f9 .LVUS1
     /tmp/ccVvyEOw.s:4822   .debug_loclists:0000090f .LLST2
     /tmp/ccVvyEOw.s:4817   .debug_loclists:0000090b .LVUS2
     /tmp/ccVvyEOw.s:14     .text:00000000 .LFB3
     /tmp/ccVvyEOw.s:26     .text:00000002 .LFE3
     /tmp/ccVvyEOw.s:1640   .debug_info:00000000 .Ldebug_info0

UNDEFINED SYMBOLS
__tablejump2__
__muluhisi3
__do_copy_data
__do_clear_bss
