   1               		.file	"lcd.c"
   2               	__SP_H__ = 0x3e
   3               	__SP_L__ = 0x3d
   4               	__SREG__ = 0x3f
   5               	__tmp_reg__ = 0
   6               	__zero_reg__ = 1
   7               		.text
   8               	.Ltext0:
   9               		.cfi_sections	.debug_frame
  10               		.file 0 "/home/files/osdev/platform/avr" "lcd/lcd.c"
  12               	_lcd_write_data:
  13               	.LVL0:
  14               	.LFB16:
  15               		.file 1 "lcd/lcd.c"
   1:lcd/lcd.c     **** /**
   2:lcd/lcd.c     ****  * @file    lcd.c
   3:lcd/lcd.c     ****  * @author  Anton Tchekov
   4:lcd/lcd.c     ****  * @version 0.2
   5:lcd/lcd.c     ****  * @date    17.05.2023
   6:lcd/lcd.c     ****  */
   7:lcd/lcd.c     **** 
   8:lcd/lcd.c     **** #include <lcd.h>
   9:lcd/lcd.c     **** #include <logger.h>
  10:lcd/lcd.c     **** #include <spi.h>
  11:lcd/lcd.c     **** #include <avr/pgmspace.h>
  12:lcd/lcd.c     **** #include <util/delay.h>
  13:lcd/lcd.c     **** 
  14:lcd/lcd.c     **** enum
  15:lcd/lcd.c     **** {
  16:lcd/lcd.c     **** 	L2R_U2D,
  17:lcd/lcd.c     **** 	L2R_D2U,
  18:lcd/lcd.c     **** 	R2L_U2D,
  19:lcd/lcd.c     **** 	R2L_D2U,
  20:lcd/lcd.c     **** 	U2D_L2R,
  21:lcd/lcd.c     **** 	U2D_R2L,
  22:lcd/lcd.c     **** 	D2U_L2R,
  23:lcd/lcd.c     **** 	D2U_R2L
  24:lcd/lcd.c     **** };
  25:lcd/lcd.c     **** 
  26:lcd/lcd.c     **** #define SCAN_DIR       L2R_U2D
  27:lcd/lcd.c     **** 
  28:lcd/lcd.c     **** #define LCD_RST_DIR    DDRD
  29:lcd/lcd.c     **** #define LCD_RST_OUT    PORTD
  30:lcd/lcd.c     **** #define LCD_RST_PIN   7
  31:lcd/lcd.c     **** 
  32:lcd/lcd.c     **** #define LCD_CS_DIR     DDRC
  33:lcd/lcd.c     **** #define LCD_CS_OUT     PORTC
  34:lcd/lcd.c     **** #define LCD_CS_PIN    0
  35:lcd/lcd.c     **** 
  36:lcd/lcd.c     **** #define LCD_DC_DIR     DDRC
  37:lcd/lcd.c     **** #define LCD_DC_OUT     PORTC
  38:lcd/lcd.c     **** #define LCD_DC_PIN    1
  39:lcd/lcd.c     **** 
  40:lcd/lcd.c     **** #define LCD_CS_0        LCD_CS_OUT &= ~(1 << LCD_CS_PIN)
  41:lcd/lcd.c     **** #define LCD_CS_1        LCD_CS_OUT |= (1 << LCD_CS_PIN)
  42:lcd/lcd.c     **** 
  43:lcd/lcd.c     **** #define LCD_DC_0        LCD_DC_OUT &= ~(1 << LCD_DC_PIN)
  44:lcd/lcd.c     **** #define LCD_DC_1        LCD_DC_OUT |= (1 << LCD_DC_PIN)
  45:lcd/lcd.c     **** 
  46:lcd/lcd.c     **** #define LCD_RST_0       LCD_RST_OUT &= ~(1 << LCD_RST_PIN)
  47:lcd/lcd.c     **** #define LCD_RST_1       LCD_RST_OUT |= (1 << LCD_RST_PIN)
  48:lcd/lcd.c     **** 
  49:lcd/lcd.c     **** /* --- PRIVATE --- */
  50:lcd/lcd.c     **** static void _lcd_configure_gpio(void)
  51:lcd/lcd.c     **** {
  52:lcd/lcd.c     **** 	LCD_RST_DIR |= (1 << LCD_RST_PIN);
  53:lcd/lcd.c     **** 	LCD_CS_DIR |= (1 << LCD_CS_PIN);
  54:lcd/lcd.c     **** 	LCD_DC_DIR |= (1 << LCD_DC_PIN);
  55:lcd/lcd.c     **** 	LCD_CS_1;
  56:lcd/lcd.c     **** }
  57:lcd/lcd.c     **** 
  58:lcd/lcd.c     **** static void _lcd_reset(void)
  59:lcd/lcd.c     **** {
  60:lcd/lcd.c     **** 	LCD_RST_1;
  61:lcd/lcd.c     **** 	_delay_ms(500);
  62:lcd/lcd.c     **** 	LCD_RST_0;
  63:lcd/lcd.c     **** 	_delay_ms(500);
  64:lcd/lcd.c     **** 	LCD_RST_1;
  65:lcd/lcd.c     **** 	_delay_ms(500);
  66:lcd/lcd.c     **** }
  67:lcd/lcd.c     **** 
  68:lcd/lcd.c     **** static void _lcd_write_reg(u8 reg)
  69:lcd/lcd.c     **** {
  70:lcd/lcd.c     **** 	LCD_DC_0;
  71:lcd/lcd.c     **** 	LCD_CS_0;
  72:lcd/lcd.c     **** 	spi_xchg(reg);
  73:lcd/lcd.c     **** 	LCD_CS_1;
  74:lcd/lcd.c     **** }
  75:lcd/lcd.c     **** 
  76:lcd/lcd.c     **** static void _lcd_write_data(u8 data)
  77:lcd/lcd.c     **** {
  16               		.loc 1 77 1 view -0
  17               		.cfi_startproc
  18               		.loc 1 77 1 is_stmt 0 view .LVU1
  19 0000 CF93      		push r28
  20               		.cfi_def_cfa_offset 3
  21               		.cfi_offset 28, -2
  22               	/* prologue: function */
  23               	/* frame size = 0 */
  24               	/* stack size = 1 */
  25               	.L__stack_usage = 1
  26 0002 C82F      		mov r28,r24
  78:lcd/lcd.c     **** 	LCD_DC_1;
  27               		.loc 1 78 2 is_stmt 1 view .LVU2
  28 0004 419A      		sbi 0x8,1
  79:lcd/lcd.c     **** 	LCD_CS_0;
  29               		.loc 1 79 2 view .LVU3
  30 0006 4098      		cbi 0x8,0
  80:lcd/lcd.c     **** 	spi_xchg(0);
  31               		.loc 1 80 2 view .LVU4
  32 0008 80E0      		ldi r24,0
  33               	.LVL1:
  34               		.loc 1 80 2 is_stmt 0 view .LVU5
  35 000a 0E94 0000 		call spi_xchg
  36               	.LVL2:
  81:lcd/lcd.c     **** 	spi_xchg(data);
  37               		.loc 1 81 2 is_stmt 1 view .LVU6
  38 000e 8C2F      		mov r24,r28
  39 0010 0E94 0000 		call spi_xchg
  40               	.LVL3:
  82:lcd/lcd.c     **** 	LCD_CS_1;
  41               		.loc 1 82 2 view .LVU7
  42 0014 409A      		sbi 0x8,0
  43               	/* epilogue start */
  83:lcd/lcd.c     **** }
  44               		.loc 1 83 1 is_stmt 0 view .LVU8
  45 0016 CF91      		pop r28
  46               	.LVL4:
  47               		.loc 1 83 1 view .LVU9
  48 0018 0895      		ret
  49               		.cfi_endproc
  50               	.LFE16:
  53               	_lcd_write_reg:
  54               	.LVL5:
  55               	.LFB15:
  69:lcd/lcd.c     **** 	LCD_DC_0;
  56               		.loc 1 69 1 is_stmt 1 view -0
  57               		.cfi_startproc
  58               	/* prologue: function */
  59               	/* frame size = 0 */
  60               	/* stack size = 0 */
  61               	.L__stack_usage = 0
  70:lcd/lcd.c     **** 	LCD_CS_0;
  62               		.loc 1 70 2 view .LVU11
  63 001a 4198      		cbi 0x8,1
  71:lcd/lcd.c     **** 	spi_xchg(reg);
  64               		.loc 1 71 2 view .LVU12
  65 001c 4098      		cbi 0x8,0
  72:lcd/lcd.c     **** 	LCD_CS_1;
  66               		.loc 1 72 2 view .LVU13
  67 001e 0E94 0000 		call spi_xchg
  68               	.LVL6:
  73:lcd/lcd.c     **** }
  69               		.loc 1 73 2 view .LVU14
  70 0022 409A      		sbi 0x8,0
  71               	/* epilogue start */
  74:lcd/lcd.c     **** 
  72               		.loc 1 74 1 is_stmt 0 view .LVU15
  73 0024 0895      		ret
  74               		.cfi_endproc
  75               	.LFE15:
  77               	.global	lcd_backlight
  79               	lcd_backlight:
  80               	.LVL7:
  81               	.LFB22:
  84:lcd/lcd.c     **** 
  85:lcd/lcd.c     **** static void _lcd_window_start(u16 x, u16 y, u16 w, u16 h)
  86:lcd/lcd.c     **** {
  87:lcd/lcd.c     **** 	u16 x_end, y_end;
  88:lcd/lcd.c     **** 
  89:lcd/lcd.c     **** 	x_end = x + w - 1;
  90:lcd/lcd.c     **** 	y_end = y + h - 1;
  91:lcd/lcd.c     **** 
  92:lcd/lcd.c     **** 	_lcd_write_reg(0x2A);
  93:lcd/lcd.c     **** 	_lcd_write_data(x >> 8);
  94:lcd/lcd.c     **** 	_lcd_write_data(x);
  95:lcd/lcd.c     **** 	_lcd_write_data(x_end >> 8);
  96:lcd/lcd.c     **** 	_lcd_write_data(x_end);
  97:lcd/lcd.c     **** 	_lcd_write_reg(0x2B);
  98:lcd/lcd.c     **** 	_lcd_write_data(y >> 8);
  99:lcd/lcd.c     **** 	_lcd_write_data(y);
 100:lcd/lcd.c     **** 	_lcd_write_data(y_end >> 8);
 101:lcd/lcd.c     **** 	_lcd_write_data(y_end);
 102:lcd/lcd.c     **** 	_lcd_write_reg(0x2C);
 103:lcd/lcd.c     **** 	LCD_DC_1;
 104:lcd/lcd.c     **** 	LCD_CS_0;
 105:lcd/lcd.c     **** }
 106:lcd/lcd.c     **** 
 107:lcd/lcd.c     **** static inline void _lcd_pixel(u16 data)
 108:lcd/lcd.c     **** {
 109:lcd/lcd.c     **** 	spi_xchg(data >> 8);
 110:lcd/lcd.c     **** 	spi_xchg(data);
 111:lcd/lcd.c     **** }
 112:lcd/lcd.c     **** 
 113:lcd/lcd.c     **** static inline void _lcd_window_end(void)
 114:lcd/lcd.c     **** {
 115:lcd/lcd.c     **** 	LCD_CS_1;
 116:lcd/lcd.c     **** }
 117:lcd/lcd.c     **** 
 118:lcd/lcd.c     **** static void _lcd_init_reg(void)
 119:lcd/lcd.c     **** {
 120:lcd/lcd.c     **** 	_lcd_write_reg(0xF9);
 121:lcd/lcd.c     **** 	_lcd_write_data(0x00);
 122:lcd/lcd.c     **** 	_lcd_write_data(0x08);
 123:lcd/lcd.c     **** 	_lcd_write_reg(0xC0);
 124:lcd/lcd.c     **** 	_lcd_write_data(0x19);
 125:lcd/lcd.c     **** 	_lcd_write_data(0x1a);
 126:lcd/lcd.c     **** 	_lcd_write_reg(0xC1);
 127:lcd/lcd.c     **** 	_lcd_write_data(0x45);
 128:lcd/lcd.c     **** 	_lcd_write_data(0x00);
 129:lcd/lcd.c     **** 	_lcd_write_reg(0xC2);
 130:lcd/lcd.c     **** 	_lcd_write_data(0x33);
 131:lcd/lcd.c     **** 	_lcd_write_reg(0xC5);
 132:lcd/lcd.c     **** 	_lcd_write_data(0x00);
 133:lcd/lcd.c     **** 	_lcd_write_data(0x28);
 134:lcd/lcd.c     **** 	_lcd_write_reg(0xB1);
 135:lcd/lcd.c     **** 	_lcd_write_data(0xA0);
 136:lcd/lcd.c     **** 	_lcd_write_data(0x11);
 137:lcd/lcd.c     **** 	_lcd_write_reg(0xB4);
 138:lcd/lcd.c     **** 	_lcd_write_data(0x02);
 139:lcd/lcd.c     **** 	_lcd_write_reg(0xB6);
 140:lcd/lcd.c     **** 	_lcd_write_data(0x00);
 141:lcd/lcd.c     **** 	_lcd_write_data(0x42);
 142:lcd/lcd.c     **** 	_lcd_write_data(0x3B);
 143:lcd/lcd.c     **** 	_lcd_write_reg(0xB7);
 144:lcd/lcd.c     **** 	_lcd_write_data(0x07);
 145:lcd/lcd.c     **** 	_lcd_write_reg(0xE0);
 146:lcd/lcd.c     **** 	_lcd_write_data(0x1F);
 147:lcd/lcd.c     **** 	_lcd_write_data(0x25);
 148:lcd/lcd.c     **** 	_lcd_write_data(0x22);
 149:lcd/lcd.c     **** 	_lcd_write_data(0x0B);
 150:lcd/lcd.c     **** 	_lcd_write_data(0x06);
 151:lcd/lcd.c     **** 	_lcd_write_data(0x0A);
 152:lcd/lcd.c     **** 	_lcd_write_data(0x4E);
 153:lcd/lcd.c     **** 	_lcd_write_data(0xC6);
 154:lcd/lcd.c     **** 	_lcd_write_data(0x39);
 155:lcd/lcd.c     **** 	_lcd_write_data(0x00);
 156:lcd/lcd.c     **** 	_lcd_write_data(0x00);
 157:lcd/lcd.c     **** 	_lcd_write_data(0x00);
 158:lcd/lcd.c     **** 	_lcd_write_data(0x00);
 159:lcd/lcd.c     **** 	_lcd_write_data(0x00);
 160:lcd/lcd.c     **** 	_lcd_write_data(0x00);
 161:lcd/lcd.c     **** 	_lcd_write_reg(0xE1);
 162:lcd/lcd.c     **** 	_lcd_write_data(0x1F);
 163:lcd/lcd.c     **** 	_lcd_write_data(0x3F);
 164:lcd/lcd.c     **** 	_lcd_write_data(0x3F);
 165:lcd/lcd.c     **** 	_lcd_write_data(0x0F);
 166:lcd/lcd.c     **** 	_lcd_write_data(0x1F);
 167:lcd/lcd.c     **** 	_lcd_write_data(0x0F);
 168:lcd/lcd.c     **** 	_lcd_write_data(0x46);
 169:lcd/lcd.c     **** 	_lcd_write_data(0x49);
 170:lcd/lcd.c     **** 	_lcd_write_data(0x31);
 171:lcd/lcd.c     **** 	_lcd_write_data(0x05);
 172:lcd/lcd.c     **** 	_lcd_write_data(0x09);
 173:lcd/lcd.c     **** 	_lcd_write_data(0x03);
 174:lcd/lcd.c     **** 	_lcd_write_data(0x1C);
 175:lcd/lcd.c     **** 	_lcd_write_data(0x1A);
 176:lcd/lcd.c     **** 	_lcd_write_data(0x00);
 177:lcd/lcd.c     **** 	_lcd_write_reg(0xF1);
 178:lcd/lcd.c     **** 	_lcd_write_data(0x36);
 179:lcd/lcd.c     **** 	_lcd_write_data(0x04);
 180:lcd/lcd.c     **** 	_lcd_write_data(0x00);
 181:lcd/lcd.c     **** 	_lcd_write_data(0x3C);
 182:lcd/lcd.c     **** 	_lcd_write_data(0x0F);
 183:lcd/lcd.c     **** 	_lcd_write_data(0x0F);
 184:lcd/lcd.c     **** 	_lcd_write_data(0xA4);
 185:lcd/lcd.c     **** 	_lcd_write_data(0x02);
 186:lcd/lcd.c     **** 	_lcd_write_reg(0xF2);
 187:lcd/lcd.c     **** 	_lcd_write_data(0x18);
 188:lcd/lcd.c     **** 	_lcd_write_data(0xA3);
 189:lcd/lcd.c     **** 	_lcd_write_data(0x12);
 190:lcd/lcd.c     **** 	_lcd_write_data(0x02);
 191:lcd/lcd.c     **** 	_lcd_write_data(0x32);
 192:lcd/lcd.c     **** 	_lcd_write_data(0x12);
 193:lcd/lcd.c     **** 	_lcd_write_data(0xFF);
 194:lcd/lcd.c     **** 	_lcd_write_data(0x32);
 195:lcd/lcd.c     **** 	_lcd_write_data(0x00);
 196:lcd/lcd.c     **** 	_lcd_write_reg(0xF4);
 197:lcd/lcd.c     **** 	_lcd_write_data(0x40);
 198:lcd/lcd.c     **** 	_lcd_write_data(0x00);
 199:lcd/lcd.c     **** 	_lcd_write_data(0x08);
 200:lcd/lcd.c     **** 	_lcd_write_data(0x91);
 201:lcd/lcd.c     **** 	_lcd_write_data(0x04);
 202:lcd/lcd.c     **** 	_lcd_write_reg(0xF8);
 203:lcd/lcd.c     **** 	_lcd_write_data(0x21);
 204:lcd/lcd.c     **** 	_lcd_write_data(0x04);
 205:lcd/lcd.c     **** 	_lcd_write_reg(0x3A);
 206:lcd/lcd.c     **** 	_lcd_write_data(0x55);
 207:lcd/lcd.c     **** }
 208:lcd/lcd.c     **** 
 209:lcd/lcd.c     **** static void _lcd_set_gram_scan_dir(u8 scan_dir)
 210:lcd/lcd.c     **** {
 211:lcd/lcd.c     **** 	u16 a, b;
 212:lcd/lcd.c     **** 	switch(scan_dir)
 213:lcd/lcd.c     **** 	{
 214:lcd/lcd.c     **** 	case L2R_U2D:
 215:lcd/lcd.c     **** 		a = 0x08;
 216:lcd/lcd.c     **** 		b = 0x22;
 217:lcd/lcd.c     **** 		break;
 218:lcd/lcd.c     **** 
 219:lcd/lcd.c     **** 	case L2R_D2U:
 220:lcd/lcd.c     **** 		a = 0x08;
 221:lcd/lcd.c     **** 		b = 0x62;
 222:lcd/lcd.c     **** 		break;
 223:lcd/lcd.c     **** 
 224:lcd/lcd.c     **** 	case R2L_U2D:
 225:lcd/lcd.c     **** 		a = 0x08;
 226:lcd/lcd.c     **** 		b = 0x02;
 227:lcd/lcd.c     **** 		break;
 228:lcd/lcd.c     **** 
 229:lcd/lcd.c     **** 	case R2L_D2U:
 230:lcd/lcd.c     **** 		a = 0x08;
 231:lcd/lcd.c     **** 		b = 0x42;
 232:lcd/lcd.c     **** 		break;
 233:lcd/lcd.c     **** 
 234:lcd/lcd.c     **** 	case U2D_L2R:
 235:lcd/lcd.c     **** 		a = 0x28;
 236:lcd/lcd.c     **** 		b = 0x22;
 237:lcd/lcd.c     **** 		break;
 238:lcd/lcd.c     **** 
 239:lcd/lcd.c     **** 	case U2D_R2L:
 240:lcd/lcd.c     **** 		a = 0x28;
 241:lcd/lcd.c     **** 		b = 0x02;
 242:lcd/lcd.c     **** 		break;
 243:lcd/lcd.c     **** 
 244:lcd/lcd.c     **** 	case D2U_L2R:
 245:lcd/lcd.c     **** 		a = 0x28;
 246:lcd/lcd.c     **** 		b = 0x62;
 247:lcd/lcd.c     **** 		break;
 248:lcd/lcd.c     **** 
 249:lcd/lcd.c     **** 	case D2U_R2L:
 250:lcd/lcd.c     **** 		a = 0x28;
 251:lcd/lcd.c     **** 		b = 0x42;
 252:lcd/lcd.c     **** 		break;
 253:lcd/lcd.c     **** 	}
 254:lcd/lcd.c     **** 
 255:lcd/lcd.c     **** 	_lcd_write_reg(0xB6);
 256:lcd/lcd.c     **** 	_lcd_write_data(0x00);
 257:lcd/lcd.c     **** 	_lcd_write_data(b);
 258:lcd/lcd.c     **** 	_lcd_write_reg(0x36);
 259:lcd/lcd.c     **** 	_lcd_write_data(a);
 260:lcd/lcd.c     **** }
 261:lcd/lcd.c     **** 
 262:lcd/lcd.c     **** /* --- PUBLIC --- */
 263:lcd/lcd.c     **** void lcd_backlight(u8 value)
 264:lcd/lcd.c     **** {
  82               		.loc 1 264 1 is_stmt 1 view -0
  83               		.cfi_startproc
  84               	/* prologue: function */
  85               	/* frame size = 0 */
  86               	/* stack size = 0 */
  87               	.L__stack_usage = 0
 265:lcd/lcd.c     **** 	/* TODO: Write PWM Value */
 266:lcd/lcd.c     **** 	(void)value;
  88               		.loc 1 266 2 view .LVU17
  89               	/* epilogue start */
 267:lcd/lcd.c     **** }
  90               		.loc 1 267 1 is_stmt 0 view .LVU18
  91 0026 0895      		ret
  92               		.cfi_endproc
  93               	.LFE22:
  95               	.global	lcd_rect
  97               	lcd_rect:
  98               	.LVL8:
  99               	.LFB24:
 268:lcd/lcd.c     **** 
 269:lcd/lcd.c     **** void lcd_init(u8 backlight, RGB565 bg)
 270:lcd/lcd.c     **** {
 271:lcd/lcd.c     **** 	/* Initialize LCD */
 272:lcd/lcd.c     **** 	_lcd_configure_gpio();
 273:lcd/lcd.c     **** 	spi_fast();
 274:lcd/lcd.c     **** 
 275:lcd/lcd.c     **** 	_lcd_reset();
 276:lcd/lcd.c     **** 	lcd_backlight(backlight);
 277:lcd/lcd.c     **** 	_lcd_init_reg();
 278:lcd/lcd.c     **** 	_lcd_set_gram_scan_dir(SCAN_DIR);
 279:lcd/lcd.c     **** 	_delay_ms(200);
 280:lcd/lcd.c     **** 	_lcd_write_reg(0x11);
 281:lcd/lcd.c     **** 	_delay_ms(120);
 282:lcd/lcd.c     **** 	_lcd_write_reg(0x29);
 283:lcd/lcd.c     **** 
 284:lcd/lcd.c     **** 	lcd_rect(0, 0, LCD_WIDTH, LCD_HEIGHT, bg);
 285:lcd/lcd.c     **** 
 286:lcd/lcd.c     **** 	log_boot_P(PSTR("LCD driver initialized"));
 287:lcd/lcd.c     **** }
 288:lcd/lcd.c     **** 
 289:lcd/lcd.c     **** void lcd_rect(u16 x, u16 y, u16 w, u16 h, RGB565 color)
 290:lcd/lcd.c     **** {
 100               		.loc 1 290 1 is_stmt 1 view -0
 101               		.cfi_startproc
 102               		.loc 1 290 1 is_stmt 0 view .LVU20
 103 0028 6F92      		push r6
 104               		.cfi_def_cfa_offset 3
 105               		.cfi_offset 6, -2
 106 002a 7F92      		push r7
 107               		.cfi_def_cfa_offset 4
 108               		.cfi_offset 7, -3
 109 002c 8F92      		push r8
 110               		.cfi_def_cfa_offset 5
 111               		.cfi_offset 8, -4
 112 002e 9F92      		push r9
 113               		.cfi_def_cfa_offset 6
 114               		.cfi_offset 9, -5
 115 0030 AF92      		push r10
 116               		.cfi_def_cfa_offset 7
 117               		.cfi_offset 10, -6
 118 0032 BF92      		push r11
 119               		.cfi_def_cfa_offset 8
 120               		.cfi_offset 11, -7
 121 0034 CF92      		push r12
 122               		.cfi_def_cfa_offset 9
 123               		.cfi_offset 12, -8
 124 0036 DF92      		push r13
 125               		.cfi_def_cfa_offset 10
 126               		.cfi_offset 13, -9
 127 0038 EF92      		push r14
 128               		.cfi_def_cfa_offset 11
 129               		.cfi_offset 14, -10
 130 003a FF92      		push r15
 131               		.cfi_def_cfa_offset 12
 132               		.cfi_offset 15, -11
 133 003c 0F93      		push r16
 134               		.cfi_def_cfa_offset 13
 135               		.cfi_offset 16, -12
 136 003e 1F93      		push r17
 137               		.cfi_def_cfa_offset 14
 138               		.cfi_offset 17, -13
 139 0040 CF93      		push r28
 140               		.cfi_def_cfa_offset 15
 141               		.cfi_offset 28, -14
 142 0042 DF93      		push r29
 143               		.cfi_def_cfa_offset 16
 144               		.cfi_offset 29, -15
 145               	/* prologue: function */
 146               	/* frame size = 0 */
 147               	/* stack size = 14 */
 148               	.L__stack_usage = 14
 149 0044 7C01      		movw r14,r24
 150 0046 EB01      		movw r28,r22
 151 0048 5A01      		movw r10,r20
 152 004a 6901      		movw r12,r18
 291:lcd/lcd.c     **** 	u16 w0, h0;
 153               		.loc 1 291 2 is_stmt 1 view .LVU21
 292:lcd/lcd.c     **** 
 293:lcd/lcd.c     **** 	spi_fast();
 154               		.loc 1 293 2 view .LVU22
 155 004c 0E94 0000 		call spi_fast
 156               	.LVL9:
 294:lcd/lcd.c     **** 	_lcd_window_start(x, y, w, h);
 157               		.loc 1 294 2 view .LVU23
 158               	.LBB58:
 159               	.LBI58:
  85:lcd/lcd.c     **** {
 160               		.loc 1 85 13 view .LVU24
 161               	.LBB59:
  87:lcd/lcd.c     **** 
 162               		.loc 1 87 2 view .LVU25
  89:lcd/lcd.c     **** 	y_end = y + h - 1;
 163               		.loc 1 89 2 view .LVU26
  89:lcd/lcd.c     **** 	y_end = y + h - 1;
 164               		.loc 1 89 8 is_stmt 0 view .LVU27
 165 0050 3501      		movw r6,r10
 166 0052 81E0      		ldi r24,1
 167 0054 681A      		sub r6,r24
 168 0056 7108      		sbc r7,__zero_reg__
 169 0058 6E0C      		add r6,r14
 170 005a 7F1C      		adc r7,r15
 171               	.LVL10:
  90:lcd/lcd.c     **** 
 172               		.loc 1 90 2 is_stmt 1 view .LVU28
  90:lcd/lcd.c     **** 
 173               		.loc 1 90 8 is_stmt 0 view .LVU29
 174 005c 4601      		movw r8,r12
 175 005e 81E0      		ldi r24,1
 176 0060 881A      		sub r8,r24
 177 0062 9108      		sbc r9,__zero_reg__
 178 0064 8C0E      		add r8,r28
 179 0066 9D1E      		adc r9,r29
 180               	.LVL11:
  92:lcd/lcd.c     **** 	_lcd_write_data(x >> 8);
 181               		.loc 1 92 2 is_stmt 1 view .LVU30
 182 0068 8AE2      		ldi r24,lo8(42)
 183 006a 0E94 0000 		call _lcd_write_reg
 184               	.LVL12:
  93:lcd/lcd.c     **** 	_lcd_write_data(x);
 185               		.loc 1 93 2 view .LVU31
 186 006e 8F2D      		mov r24,r15
 187 0070 0E94 0000 		call _lcd_write_data
 188               	.LVL13:
  94:lcd/lcd.c     **** 	_lcd_write_data(x_end >> 8);
 189               		.loc 1 94 2 view .LVU32
 190 0074 8E2D      		mov r24,r14
 191 0076 0E94 0000 		call _lcd_write_data
 192               	.LVL14:
  95:lcd/lcd.c     **** 	_lcd_write_data(x_end);
 193               		.loc 1 95 2 view .LVU33
 194 007a 872D      		mov r24,r7
 195 007c 0E94 0000 		call _lcd_write_data
 196               	.LVL15:
  96:lcd/lcd.c     **** 	_lcd_write_reg(0x2B);
 197               		.loc 1 96 2 view .LVU34
 198 0080 862D      		mov r24,r6
 199 0082 0E94 0000 		call _lcd_write_data
 200               	.LVL16:
  97:lcd/lcd.c     **** 	_lcd_write_data(y >> 8);
 201               		.loc 1 97 2 view .LVU35
 202 0086 8BE2      		ldi r24,lo8(43)
 203 0088 0E94 0000 		call _lcd_write_reg
 204               	.LVL17:
  98:lcd/lcd.c     **** 	_lcd_write_data(y);
 205               		.loc 1 98 2 view .LVU36
 206 008c 8D2F      		mov r24,r29
 207 008e 0E94 0000 		call _lcd_write_data
 208               	.LVL18:
  99:lcd/lcd.c     **** 	_lcd_write_data(y_end >> 8);
 209               		.loc 1 99 2 view .LVU37
 210 0092 8C2F      		mov r24,r28
 211 0094 0E94 0000 		call _lcd_write_data
 212               	.LVL19:
 100:lcd/lcd.c     **** 	_lcd_write_data(y_end);
 213               		.loc 1 100 2 view .LVU38
 214 0098 892D      		mov r24,r9
 215 009a 0E94 0000 		call _lcd_write_data
 216               	.LVL20:
 101:lcd/lcd.c     **** 	_lcd_write_reg(0x2C);
 217               		.loc 1 101 2 view .LVU39
 218 009e 882D      		mov r24,r8
 219 00a0 0E94 0000 		call _lcd_write_data
 220               	.LVL21:
 102:lcd/lcd.c     **** 	LCD_DC_1;
 221               		.loc 1 102 2 view .LVU40
 222 00a4 8CE2      		ldi r24,lo8(44)
 223 00a6 0E94 0000 		call _lcd_write_reg
 224               	.LVL22:
 103:lcd/lcd.c     **** 	LCD_CS_0;
 225               		.loc 1 103 2 view .LVU41
 226 00aa 419A      		sbi 0x8,1
 104:lcd/lcd.c     **** }
 227               		.loc 1 104 2 view .LVU42
 228 00ac 4098      		cbi 0x8,0
 229               	.LBE59:
 230               	.LBE58:
 295:lcd/lcd.c     **** 	for(h0 = 0; h0 < h; ++h0)
 231               		.loc 1 295 9 is_stmt 0 view .LVU43
 232 00ae C0E0      		ldi r28,0
 233 00b0 D0E0      		ldi r29,0
 234               	.LVL23:
 235               	.L5:
 236               		.loc 1 295 17 is_stmt 1 discriminator 1 view .LVU44
 237 00b2 CC15      		cp r28,r12
 238 00b4 DD05      		cpc r29,r13
 239 00b6 01F4      		brne .L8
 296:lcd/lcd.c     **** 	{
 297:lcd/lcd.c     **** 		for(w0 = 0; w0 < w; ++w0)
 298:lcd/lcd.c     **** 		{
 299:lcd/lcd.c     **** 			_lcd_pixel(color);
 300:lcd/lcd.c     **** 		}
 301:lcd/lcd.c     **** 	}
 302:lcd/lcd.c     **** 
 303:lcd/lcd.c     **** 	_lcd_window_end();
 240               		.loc 1 303 2 view .LVU45
 241               	.LBB60:
 242               	.LBI60:
 113:lcd/lcd.c     **** {
 243               		.loc 1 113 20 view .LVU46
 244               	.LBB61:
 115:lcd/lcd.c     **** }
 245               		.loc 1 115 2 view .LVU47
 246 00b8 409A      		sbi 0x8,0
 247               	/* epilogue start */
 248               	.LBE61:
 249               	.LBE60:
 304:lcd/lcd.c     **** }
 250               		.loc 1 304 1 is_stmt 0 view .LVU48
 251 00ba DF91      		pop r29
 252 00bc CF91      		pop r28
 253               	.LVL24:
 254               		.loc 1 304 1 view .LVU49
 255 00be 1F91      		pop r17
 256 00c0 0F91      		pop r16
 257               	.LVL25:
 258               		.loc 1 304 1 view .LVU50
 259 00c2 FF90      		pop r15
 260 00c4 EF90      		pop r14
 261 00c6 DF90      		pop r13
 262 00c8 CF90      		pop r12
 263               	.LVL26:
 264               		.loc 1 304 1 view .LVU51
 265 00ca BF90      		pop r11
 266 00cc AF90      		pop r10
 267               	.LVL27:
 268               		.loc 1 304 1 view .LVU52
 269 00ce 9F90      		pop r9
 270 00d0 8F90      		pop r8
 271 00d2 7F90      		pop r7
 272 00d4 6F90      		pop r6
 273 00d6 0895      		ret
 274               	.LVL28:
 275               	.L6:
 299:lcd/lcd.c     **** 		}
 276               		.loc 1 299 4 is_stmt 1 view .LVU53
 277               	.LBB62:
 278               	.LBI62:
 107:lcd/lcd.c     **** {
 279               		.loc 1 107 20 view .LVU54
 280               	.LBB63:
 109:lcd/lcd.c     **** 	spi_xchg(data);
 281               		.loc 1 109 2 view .LVU55
 282 00d8 812F      		mov r24,r17
 283 00da 0E94 0000 		call spi_xchg
 284               	.LVL29:
 110:lcd/lcd.c     **** }
 285               		.loc 1 110 2 view .LVU56
 286 00de 802F      		mov r24,r16
 287 00e0 0E94 0000 		call spi_xchg
 288               	.LVL30:
 110:lcd/lcd.c     **** }
 289               		.loc 1 110 2 is_stmt 0 view .LVU57
 290               	.LBE63:
 291               	.LBE62:
 297:lcd/lcd.c     **** 		{
 292               		.loc 1 297 23 is_stmt 1 view .LVU58
 293 00e4 8FEF      		ldi r24,-1
 294 00e6 E81A      		sub r14,r24
 295 00e8 F80A      		sbc r15,r24
 296               	.LVL31:
 297               	.L7:
 297:lcd/lcd.c     **** 		{
 298               		.loc 1 297 18 discriminator 1 view .LVU59
 299 00ea EA14      		cp r14,r10
 300 00ec FB04      		cpc r15,r11
 301 00ee 01F4      		brne .L6
 295:lcd/lcd.c     **** 	{
 302               		.loc 1 295 22 discriminator 2 view .LVU60
 303 00f0 2196      		adiw r28,1
 304               	.LVL32:
 295:lcd/lcd.c     **** 	{
 305               		.loc 1 295 22 is_stmt 0 discriminator 2 view .LVU61
 306 00f2 00C0      		rjmp .L5
 307               	.LVL33:
 308               	.L8:
 297:lcd/lcd.c     **** 		{
 309               		.loc 1 297 10 view .LVU62
 310 00f4 E12C      		mov r14,__zero_reg__
 311 00f6 F12C      		mov r15,__zero_reg__
 312 00f8 00C0      		rjmp .L7
 313               		.cfi_endproc
 314               	.LFE24:
 316               	.global	lcd_init
 318               	lcd_init:
 319               	.LVL34:
 320               	.LFB23:
 270:lcd/lcd.c     **** 	/* Initialize LCD */
 321               		.loc 1 270 1 is_stmt 1 view -0
 322               		.cfi_startproc
 270:lcd/lcd.c     **** 	/* Initialize LCD */
 323               		.loc 1 270 1 is_stmt 0 view .LVU64
 324 00fa 0F93      		push r16
 325               		.cfi_def_cfa_offset 3
 326               		.cfi_offset 16, -2
 327 00fc 1F93      		push r17
 328               		.cfi_def_cfa_offset 4
 329               		.cfi_offset 17, -3
 330               	/* prologue: function */
 331               	/* frame size = 0 */
 332               	/* stack size = 2 */
 333               	.L__stack_usage = 2
 334 00fe 8B01      		movw r16,r22
 272:lcd/lcd.c     **** 	spi_fast();
 335               		.loc 1 272 2 is_stmt 1 view .LVU65
 336               	.LBB93:
 337               	.LBI93:
  50:lcd/lcd.c     **** {
 338               		.loc 1 50 13 view .LVU66
 339               	.LBB94:
  52:lcd/lcd.c     **** 	LCD_CS_DIR |= (1 << LCD_CS_PIN);
 340               		.loc 1 52 2 view .LVU67
  52:lcd/lcd.c     **** 	LCD_CS_DIR |= (1 << LCD_CS_PIN);
 341               		.loc 1 52 14 is_stmt 0 view .LVU68
 342 0100 579A      		sbi 0xa,7
  53:lcd/lcd.c     **** 	LCD_DC_DIR |= (1 << LCD_DC_PIN);
 343               		.loc 1 53 2 is_stmt 1 view .LVU69
  53:lcd/lcd.c     **** 	LCD_DC_DIR |= (1 << LCD_DC_PIN);
 344               		.loc 1 53 13 is_stmt 0 view .LVU70
 345 0102 389A      		sbi 0x7,0
  54:lcd/lcd.c     **** 	LCD_CS_1;
 346               		.loc 1 54 2 is_stmt 1 view .LVU71
  54:lcd/lcd.c     **** 	LCD_CS_1;
 347               		.loc 1 54 13 is_stmt 0 view .LVU72
 348 0104 399A      		sbi 0x7,1
  55:lcd/lcd.c     **** }
 349               		.loc 1 55 2 is_stmt 1 view .LVU73
 350 0106 409A      		sbi 0x8,0
 351               	.LBE94:
 352               	.LBE93:
 273:lcd/lcd.c     **** 
 353               		.loc 1 273 2 view .LVU74
 354 0108 0E94 0000 		call spi_fast
 355               	.LVL35:
 275:lcd/lcd.c     **** 	lcd_backlight(backlight);
 356               		.loc 1 275 2 view .LVU75
 357               	.LBB95:
 358               	.LBI95:
  58:lcd/lcd.c     **** {
 359               		.loc 1 58 13 view .LVU76
 360               	.LBB96:
  60:lcd/lcd.c     **** 	_delay_ms(500);
 361               		.loc 1 60 2 view .LVU77
 362 010c 5F9A      		sbi 0xb,7
  61:lcd/lcd.c     **** 	LCD_RST_0;
 363               		.loc 1 61 2 view .LVU78
 364               	.LVL36:
 365               	.LBB97:
 366               	.LBI97:
 367               		.file 2 "/usr/avr/include/util/delay.h"
   1:/usr/avr/include/util/delay.h **** /* Copyright (c) 2002, Marek Michalkiewicz
   2:/usr/avr/include/util/delay.h ****    Copyright (c) 2004,2005,2007 Joerg Wunsch
   3:/usr/avr/include/util/delay.h ****    Copyright (c) 2007  Florin-Viorel Petrov
   4:/usr/avr/include/util/delay.h ****    All rights reserved.
   5:/usr/avr/include/util/delay.h **** 
   6:/usr/avr/include/util/delay.h ****    Redistribution and use in source and binary forms, with or without
   7:/usr/avr/include/util/delay.h ****    modification, are permitted provided that the following conditions are met:
   8:/usr/avr/include/util/delay.h **** 
   9:/usr/avr/include/util/delay.h ****    * Redistributions of source code must retain the above copyright
  10:/usr/avr/include/util/delay.h ****      notice, this list of conditions and the following disclaimer.
  11:/usr/avr/include/util/delay.h **** 
  12:/usr/avr/include/util/delay.h ****    * Redistributions in binary form must reproduce the above copyright
  13:/usr/avr/include/util/delay.h ****      notice, this list of conditions and the following disclaimer in
  14:/usr/avr/include/util/delay.h ****      the documentation and/or other materials provided with the
  15:/usr/avr/include/util/delay.h ****      distribution.
  16:/usr/avr/include/util/delay.h **** 
  17:/usr/avr/include/util/delay.h ****    * Neither the name of the copyright holders nor the names of
  18:/usr/avr/include/util/delay.h ****      contributors may be used to endorse or promote products derived
  19:/usr/avr/include/util/delay.h ****      from this software without specific prior written permission.
  20:/usr/avr/include/util/delay.h **** 
  21:/usr/avr/include/util/delay.h ****   THIS SOFTWARE IS PROVIDED BY THE COPYRIGHT HOLDERS AND CONTRIBUTORS "AS IS"
  22:/usr/avr/include/util/delay.h ****   AND ANY EXPRESS OR IMPLIED WARRANTIES, INCLUDING, BUT NOT LIMITED TO, THE
  23:/usr/avr/include/util/delay.h ****   IMPLIED WARRANTIES OF MERCHANTABILITY AND FITNESS FOR A PARTICULAR PURPOSE
  24:/usr/avr/include/util/delay.h ****   ARE DISCLAIMED. IN NO EVENT SHALL THE COPYRIGHT OWNER OR CONTRIBUTORS BE
  25:/usr/avr/include/util/delay.h ****   LIABLE FOR ANY DIRECT, INDIRECT, INCIDENTAL, SPECIAL, EXEMPLARY, OR
  26:/usr/avr/include/util/delay.h ****   CONSEQUENTIAL DAMAGES (INCLUDING, BUT NOT LIMITED TO, PROCUREMENT OF
  27:/usr/avr/include/util/delay.h ****   SUBSTITUTE GOODS OR SERVICES; LOSS OF USE, DATA, OR PROFITS; OR BUSINESS
  28:/usr/avr/include/util/delay.h ****   INTERRUPTION) HOWEVER CAUSED AND ON ANY THEORY OF LIABILITY, WHETHER IN
  29:/usr/avr/include/util/delay.h ****   CONTRACT, STRICT LIABILITY, OR TORT (INCLUDING NEGLIGENCE OR OTHERWISE)
  30:/usr/avr/include/util/delay.h ****   ARISING IN ANY WAY OUT OF THE USE OF THIS SOFTWARE, EVEN IF ADVISED OF THE
  31:/usr/avr/include/util/delay.h ****   POSSIBILITY OF SUCH DAMAGE. */
  32:/usr/avr/include/util/delay.h **** 
  33:/usr/avr/include/util/delay.h **** /* $Id: delay.h.in 2551 2020-10-10 20:33:35Z joerg_wunsch $ */
  34:/usr/avr/include/util/delay.h **** 
  35:/usr/avr/include/util/delay.h **** #ifndef _UTIL_DELAY_H_
  36:/usr/avr/include/util/delay.h **** #define _UTIL_DELAY_H_ 1
  37:/usr/avr/include/util/delay.h **** 
  38:/usr/avr/include/util/delay.h **** #ifndef __DOXYGEN__
  39:/usr/avr/include/util/delay.h **** #  ifndef __HAS_DELAY_CYCLES
  40:/usr/avr/include/util/delay.h **** #    define __HAS_DELAY_CYCLES 1
  41:/usr/avr/include/util/delay.h **** #  endif
  42:/usr/avr/include/util/delay.h **** #endif  /* __DOXYGEN__ */
  43:/usr/avr/include/util/delay.h **** 
  44:/usr/avr/include/util/delay.h **** #include <inttypes.h>
  45:/usr/avr/include/util/delay.h **** #include <util/delay_basic.h>
  46:/usr/avr/include/util/delay.h **** #include <math.h>
  47:/usr/avr/include/util/delay.h **** 
  48:/usr/avr/include/util/delay.h **** /** \file */
  49:/usr/avr/include/util/delay.h **** /** \defgroup util_delay <util/delay.h>: Convenience functions for busy-wait delay loops
  50:/usr/avr/include/util/delay.h ****     \code
  51:/usr/avr/include/util/delay.h ****     #define F_CPU 1000000UL  // 1 MHz
  52:/usr/avr/include/util/delay.h ****     //#define F_CPU 14.7456E6
  53:/usr/avr/include/util/delay.h ****     #include <util/delay.h>
  54:/usr/avr/include/util/delay.h ****     \endcode
  55:/usr/avr/include/util/delay.h **** 
  56:/usr/avr/include/util/delay.h ****     \note As an alternative method, it is possible to pass the
  57:/usr/avr/include/util/delay.h ****     F_CPU macro down to the compiler from the Makefile.
  58:/usr/avr/include/util/delay.h ****     Obviously, in that case, no \c \#define statement should be
  59:/usr/avr/include/util/delay.h ****     used.
  60:/usr/avr/include/util/delay.h **** 
  61:/usr/avr/include/util/delay.h ****     The functions in this header file are wrappers around the basic
  62:/usr/avr/include/util/delay.h ****     busy-wait functions from <util/delay_basic.h>.  They are meant as
  63:/usr/avr/include/util/delay.h ****     convenience functions where actual time values can be specified
  64:/usr/avr/include/util/delay.h ****     rather than a number of cycles to wait for.  The idea behind is
  65:/usr/avr/include/util/delay.h ****     that compile-time constant expressions will be eliminated by
  66:/usr/avr/include/util/delay.h ****     compiler optimization so floating-point expressions can be used
  67:/usr/avr/include/util/delay.h ****     to calculate the number of delay cycles needed based on the CPU
  68:/usr/avr/include/util/delay.h ****     frequency passed by the macro F_CPU.
  69:/usr/avr/include/util/delay.h **** 
  70:/usr/avr/include/util/delay.h ****     \note In order for these functions to work as intended, compiler
  71:/usr/avr/include/util/delay.h ****     optimizations <em>must</em> be enabled, and the delay time
  72:/usr/avr/include/util/delay.h ****     <em>must</em> be an expression that is a known constant at
  73:/usr/avr/include/util/delay.h ****     compile-time.  If these requirements are not met, the resulting
  74:/usr/avr/include/util/delay.h ****     delay will be much longer (and basically unpredictable), and
  75:/usr/avr/include/util/delay.h ****     applications that otherwise do not use floating-point calculations
  76:/usr/avr/include/util/delay.h ****     will experience severe code bloat by the floating-point library
  77:/usr/avr/include/util/delay.h ****     routines linked into the application.
  78:/usr/avr/include/util/delay.h **** 
  79:/usr/avr/include/util/delay.h ****     The functions available allow the specification of microsecond, and
  80:/usr/avr/include/util/delay.h ****     millisecond delays directly, using the application-supplied macro
  81:/usr/avr/include/util/delay.h ****     F_CPU as the CPU clock frequency (in Hertz).
  82:/usr/avr/include/util/delay.h **** 
  83:/usr/avr/include/util/delay.h **** */
  84:/usr/avr/include/util/delay.h **** 
  85:/usr/avr/include/util/delay.h **** #if !defined(__DOXYGEN__)
  86:/usr/avr/include/util/delay.h **** static __inline__ void _delay_us(double __us) __attribute__((__always_inline__));
  87:/usr/avr/include/util/delay.h **** static __inline__ void _delay_ms(double __ms) __attribute__((__always_inline__));
  88:/usr/avr/include/util/delay.h **** #endif
  89:/usr/avr/include/util/delay.h **** 
  90:/usr/avr/include/util/delay.h **** #ifndef F_CPU
  91:/usr/avr/include/util/delay.h **** /* prevent compiler error by supplying a default */
  92:/usr/avr/include/util/delay.h **** # warning "F_CPU not defined for <util/delay.h>"
  93:/usr/avr/include/util/delay.h **** /** \ingroup util_delay
  94:/usr/avr/include/util/delay.h ****     \def F_CPU
  95:/usr/avr/include/util/delay.h ****     \brief CPU frequency in Hz
  96:/usr/avr/include/util/delay.h **** 
  97:/usr/avr/include/util/delay.h ****     The macro F_CPU specifies the CPU frequency to be considered by
  98:/usr/avr/include/util/delay.h ****     the delay macros.  This macro is normally supplied by the
  99:/usr/avr/include/util/delay.h ****     environment (e.g. from within a project header, or the project's
 100:/usr/avr/include/util/delay.h ****     Makefile).  The value 1 MHz here is only provided as a "vanilla"
 101:/usr/avr/include/util/delay.h ****     fallback if no such user-provided definition could be found.
 102:/usr/avr/include/util/delay.h **** 
 103:/usr/avr/include/util/delay.h ****     In terms of the delay functions, the CPU frequency can be given as
 104:/usr/avr/include/util/delay.h ****     a floating-point constant (e.g. 3.6864E6 for 3.6864 MHz).
 105:/usr/avr/include/util/delay.h ****     However, the macros in <util/setbaud.h> require it to be an
 106:/usr/avr/include/util/delay.h ****     integer value.
 107:/usr/avr/include/util/delay.h ****  */
 108:/usr/avr/include/util/delay.h **** # define F_CPU 1000000UL
 109:/usr/avr/include/util/delay.h **** #endif
 110:/usr/avr/include/util/delay.h **** 
 111:/usr/avr/include/util/delay.h **** #ifndef __OPTIMIZE__
 112:/usr/avr/include/util/delay.h **** # warning "Compiler optimizations disabled; functions from <util/delay.h> won't work as designed"
 113:/usr/avr/include/util/delay.h **** #endif
 114:/usr/avr/include/util/delay.h **** 
 115:/usr/avr/include/util/delay.h **** #if __HAS_DELAY_CYCLES && defined(__OPTIMIZE__) && \
 116:/usr/avr/include/util/delay.h ****   !defined(__DELAY_BACKWARD_COMPATIBLE__) &&	   \
 117:/usr/avr/include/util/delay.h ****   __STDC_HOSTED__
 118:/usr/avr/include/util/delay.h **** #  include <math.h>
 119:/usr/avr/include/util/delay.h **** #endif
 120:/usr/avr/include/util/delay.h **** 
 121:/usr/avr/include/util/delay.h **** /**
 122:/usr/avr/include/util/delay.h ****    \ingroup util_delay
 123:/usr/avr/include/util/delay.h **** 
 124:/usr/avr/include/util/delay.h ****    Perform a delay of \c __ms milliseconds, using _delay_loop_2().
 125:/usr/avr/include/util/delay.h **** 
 126:/usr/avr/include/util/delay.h ****    The macro F_CPU is supposed to be defined to a
 127:/usr/avr/include/util/delay.h ****    constant defining the CPU clock frequency (in Hertz).
 128:/usr/avr/include/util/delay.h **** 
 129:/usr/avr/include/util/delay.h ****    The maximal possible delay is 262.14 ms / F_CPU in MHz.
 130:/usr/avr/include/util/delay.h **** 
 131:/usr/avr/include/util/delay.h ****    When the user request delay which exceed the maximum possible one,
 132:/usr/avr/include/util/delay.h ****    _delay_ms() provides a decreased resolution functionality. In this
 133:/usr/avr/include/util/delay.h ****    mode _delay_ms() will work with a resolution of 1/10 ms, providing
 134:/usr/avr/include/util/delay.h ****    delays up to 6.5535 seconds (independent from CPU frequency).  The
 135:/usr/avr/include/util/delay.h ****    user will not be informed about decreased resolution.
 136:/usr/avr/include/util/delay.h **** 
 137:/usr/avr/include/util/delay.h ****    If the avr-gcc toolchain has __builtin_avr_delay_cycles()
 138:/usr/avr/include/util/delay.h ****    support, maximal possible delay is 4294967.295 ms/ F_CPU in MHz. For
 139:/usr/avr/include/util/delay.h ****    values greater than the maximal possible delay, overflows results in
 140:/usr/avr/include/util/delay.h ****    no delay i.e., 0ms.
 141:/usr/avr/include/util/delay.h **** 
 142:/usr/avr/include/util/delay.h ****    Conversion of \c __ms into clock cycles may not always result in
 143:/usr/avr/include/util/delay.h ****    integer.  By default, the clock cycles rounded up to next
 144:/usr/avr/include/util/delay.h ****    integer. This ensures that the user gets at least \c __ms
 145:/usr/avr/include/util/delay.h ****    microseconds of delay.
 146:/usr/avr/include/util/delay.h **** 
 147:/usr/avr/include/util/delay.h ****    Alternatively, by defining the macro \c __DELAY_ROUND_DOWN__, or
 148:/usr/avr/include/util/delay.h ****    \c __DELAY_ROUND_CLOSEST__, before including this header file, the
 149:/usr/avr/include/util/delay.h ****    algorithm can be made to round down, or round to closest integer,
 150:/usr/avr/include/util/delay.h ****    respectively.
 151:/usr/avr/include/util/delay.h **** 
 152:/usr/avr/include/util/delay.h ****    \note
 153:/usr/avr/include/util/delay.h **** 
 154:/usr/avr/include/util/delay.h ****    The implementation of _delay_ms() based on
 155:/usr/avr/include/util/delay.h ****    __builtin_avr_delay_cycles() is not backward compatible with older
 156:/usr/avr/include/util/delay.h ****    implementations.  In order to get functionality backward compatible
 157:/usr/avr/include/util/delay.h ****    with previous versions, the macro \c "__DELAY_BACKWARD_COMPATIBLE__"
 158:/usr/avr/include/util/delay.h ****    must be defined before including this header file. Also, the
 159:/usr/avr/include/util/delay.h ****    backward compatible algorithm will be chosen if the code is
 160:/usr/avr/include/util/delay.h ****    compiled in a <em>freestanding environment</em> (GCC option
 161:/usr/avr/include/util/delay.h ****    \c -ffreestanding), as the math functions required for rounding are
 162:/usr/avr/include/util/delay.h ****    not available to the compiler then.
 163:/usr/avr/include/util/delay.h **** 
 164:/usr/avr/include/util/delay.h ****  */
 165:/usr/avr/include/util/delay.h **** void
 166:/usr/avr/include/util/delay.h **** _delay_ms(double __ms)
 368               		.loc 2 166 1 view .LVU79
 369               	.LBB98:
 167:/usr/avr/include/util/delay.h **** {
 168:/usr/avr/include/util/delay.h **** 	double __tmp ;
 370               		.loc 2 168 2 view .LVU80
 169:/usr/avr/include/util/delay.h **** #if __HAS_DELAY_CYCLES && defined(__OPTIMIZE__) && \
 170:/usr/avr/include/util/delay.h ****   !defined(__DELAY_BACKWARD_COMPATIBLE__) &&	   \
 171:/usr/avr/include/util/delay.h ****   __STDC_HOSTED__
 172:/usr/avr/include/util/delay.h **** 	uint32_t __ticks_dc;
 173:/usr/avr/include/util/delay.h **** 	extern void __builtin_avr_delay_cycles(unsigned long);
 174:/usr/avr/include/util/delay.h **** 	__tmp = ((F_CPU) / 1e3) * __ms;
 175:/usr/avr/include/util/delay.h **** 
 176:/usr/avr/include/util/delay.h **** 	#if defined(__DELAY_ROUND_DOWN__)
 177:/usr/avr/include/util/delay.h **** 		__ticks_dc = (uint32_t)fabs(__tmp);
 178:/usr/avr/include/util/delay.h **** 
 179:/usr/avr/include/util/delay.h **** 	#elif defined(__DELAY_ROUND_CLOSEST__)
 180:/usr/avr/include/util/delay.h **** 		__ticks_dc = (uint32_t)(fabs(__tmp)+0.5);
 181:/usr/avr/include/util/delay.h **** 
 182:/usr/avr/include/util/delay.h **** 	#else
 183:/usr/avr/include/util/delay.h **** 		//round up by default
 184:/usr/avr/include/util/delay.h **** 		__ticks_dc = (uint32_t)(ceil(fabs(__tmp)));
 185:/usr/avr/include/util/delay.h **** 	#endif
 186:/usr/avr/include/util/delay.h **** 
 187:/usr/avr/include/util/delay.h **** 	__builtin_avr_delay_cycles(__ticks_dc);
 188:/usr/avr/include/util/delay.h **** 
 189:/usr/avr/include/util/delay.h **** #else
 190:/usr/avr/include/util/delay.h **** 	uint16_t __ticks;
 371               		.loc 2 190 2 view .LVU81
 191:/usr/avr/include/util/delay.h **** 	__tmp = ((F_CPU) / 4e3) * __ms;
 372               		.loc 2 191 2 view .LVU82
 192:/usr/avr/include/util/delay.h **** 	if (__tmp < 1.0)
 373               		.loc 2 192 2 view .LVU83
 193:/usr/avr/include/util/delay.h **** 		__ticks = 1;
 194:/usr/avr/include/util/delay.h **** 	else if (__tmp > 65535)
 374               		.loc 2 194 7 view .LVU84
 195:/usr/avr/include/util/delay.h **** 	{
 196:/usr/avr/include/util/delay.h **** 		//	__ticks = requested delay in 1/10 ms
 197:/usr/avr/include/util/delay.h **** 		__ticks = (uint16_t) (__ms * 10.0);
 198:/usr/avr/include/util/delay.h **** 		while(__ticks)
 375               		.loc 2 198 9 view .LVU85
 376               	.LBE98:
 377               	.LBE97:
  60:lcd/lcd.c     **** 	_delay_ms(500);
 378               		.loc 1 60 2 is_stmt 0 view .LVU86
 379 010e 88E8      		ldi r24,lo8(-120)
 380 0110 93E1      		ldi r25,lo8(19)
 381               	.LBB104:
 382               	.LBB103:
 383               	.LBB99:
 384               	.LBB100:
 385               		.file 3 "/usr/avr/include/util/delay_basic.h"
   1:/usr/avr/include/util/delay_basic.h **** /* Copyright (c) 2002, Marek Michalkiewicz
   2:/usr/avr/include/util/delay_basic.h ****    Copyright (c) 2007 Joerg Wunsch
   3:/usr/avr/include/util/delay_basic.h ****    All rights reserved.
   4:/usr/avr/include/util/delay_basic.h **** 
   5:/usr/avr/include/util/delay_basic.h ****    Redistribution and use in source and binary forms, with or without
   6:/usr/avr/include/util/delay_basic.h ****    modification, are permitted provided that the following conditions are met:
   7:/usr/avr/include/util/delay_basic.h **** 
   8:/usr/avr/include/util/delay_basic.h ****    * Redistributions of source code must retain the above copyright
   9:/usr/avr/include/util/delay_basic.h ****      notice, this list of conditions and the following disclaimer.
  10:/usr/avr/include/util/delay_basic.h **** 
  11:/usr/avr/include/util/delay_basic.h ****    * Redistributions in binary form must reproduce the above copyright
  12:/usr/avr/include/util/delay_basic.h ****      notice, this list of conditions and the following disclaimer in
  13:/usr/avr/include/util/delay_basic.h ****      the documentation and/or other materials provided with the
  14:/usr/avr/include/util/delay_basic.h ****      distribution.
  15:/usr/avr/include/util/delay_basic.h **** 
  16:/usr/avr/include/util/delay_basic.h ****    * Neither the name of the copyright holders nor the names of
  17:/usr/avr/include/util/delay_basic.h ****      contributors may be used to endorse or promote products derived
  18:/usr/avr/include/util/delay_basic.h ****      from this software without specific prior written permission.
  19:/usr/avr/include/util/delay_basic.h **** 
  20:/usr/avr/include/util/delay_basic.h ****   THIS SOFTWARE IS PROVIDED BY THE COPYRIGHT HOLDERS AND CONTRIBUTORS "AS IS"
  21:/usr/avr/include/util/delay_basic.h ****   AND ANY EXPRESS OR IMPLIED WARRANTIES, INCLUDING, BUT NOT LIMITED TO, THE
  22:/usr/avr/include/util/delay_basic.h ****   IMPLIED WARRANTIES OF MERCHANTABILITY AND FITNESS FOR A PARTICULAR PURPOSE
  23:/usr/avr/include/util/delay_basic.h ****   ARE DISCLAIMED. IN NO EVENT SHALL THE COPYRIGHT OWNER OR CONTRIBUTORS BE
  24:/usr/avr/include/util/delay_basic.h ****   LIABLE FOR ANY DIRECT, INDIRECT, INCIDENTAL, SPECIAL, EXEMPLARY, OR
  25:/usr/avr/include/util/delay_basic.h ****   CONSEQUENTIAL DAMAGES (INCLUDING, BUT NOT LIMITED TO, PROCUREMENT OF
  26:/usr/avr/include/util/delay_basic.h ****   SUBSTITUTE GOODS OR SERVICES; LOSS OF USE, DATA, OR PROFITS; OR BUSINESS
  27:/usr/avr/include/util/delay_basic.h ****   INTERRUPTION) HOWEVER CAUSED AND ON ANY THEORY OF LIABILITY, WHETHER IN
  28:/usr/avr/include/util/delay_basic.h ****   CONTRACT, STRICT LIABILITY, OR TORT (INCLUDING NEGLIGENCE OR OTHERWISE)
  29:/usr/avr/include/util/delay_basic.h ****   ARISING IN ANY WAY OUT OF THE USE OF THIS SOFTWARE, EVEN IF ADVISED OF THE
  30:/usr/avr/include/util/delay_basic.h ****   POSSIBILITY OF SUCH DAMAGE. */
  31:/usr/avr/include/util/delay_basic.h **** 
  32:/usr/avr/include/util/delay_basic.h **** /* $Id: delay_basic.h 2453 2014-10-19 08:18:11Z saaadhu $ */
  33:/usr/avr/include/util/delay_basic.h **** 
  34:/usr/avr/include/util/delay_basic.h **** #ifndef _UTIL_DELAY_BASIC_H_
  35:/usr/avr/include/util/delay_basic.h **** #define _UTIL_DELAY_BASIC_H_ 1
  36:/usr/avr/include/util/delay_basic.h **** 
  37:/usr/avr/include/util/delay_basic.h **** #include <inttypes.h>
  38:/usr/avr/include/util/delay_basic.h **** 
  39:/usr/avr/include/util/delay_basic.h **** #if !defined(__DOXYGEN__)
  40:/usr/avr/include/util/delay_basic.h **** static __inline__ void _delay_loop_1(uint8_t __count) __attribute__((__always_inline__));
  41:/usr/avr/include/util/delay_basic.h **** static __inline__ void _delay_loop_2(uint16_t __count) __attribute__((__always_inline__));
  42:/usr/avr/include/util/delay_basic.h **** #endif
  43:/usr/avr/include/util/delay_basic.h **** 
  44:/usr/avr/include/util/delay_basic.h **** /** \file */
  45:/usr/avr/include/util/delay_basic.h **** /** \defgroup util_delay_basic <util/delay_basic.h>: Basic busy-wait delay loops
  46:/usr/avr/include/util/delay_basic.h ****     \code
  47:/usr/avr/include/util/delay_basic.h ****     #include <util/delay_basic.h>
  48:/usr/avr/include/util/delay_basic.h ****     \endcode
  49:/usr/avr/include/util/delay_basic.h **** 
  50:/usr/avr/include/util/delay_basic.h ****     The functions in this header file implement simple delay loops
  51:/usr/avr/include/util/delay_basic.h ****     that perform a busy-waiting.  They are typically used to
  52:/usr/avr/include/util/delay_basic.h ****     facilitate short delays in the program execution.  They are
  53:/usr/avr/include/util/delay_basic.h ****     implemented as count-down loops with a well-known CPU cycle
  54:/usr/avr/include/util/delay_basic.h ****     count per loop iteration.  As such, no other processing can
  55:/usr/avr/include/util/delay_basic.h ****     occur simultaneously.  It should be kept in mind that the
  56:/usr/avr/include/util/delay_basic.h ****     functions described here do not disable interrupts.
  57:/usr/avr/include/util/delay_basic.h **** 
  58:/usr/avr/include/util/delay_basic.h ****     In general, for long delays, the use of hardware timers is
  59:/usr/avr/include/util/delay_basic.h ****     much preferrable, as they free the CPU, and allow for
  60:/usr/avr/include/util/delay_basic.h ****     concurrent processing of other events while the timer is
  61:/usr/avr/include/util/delay_basic.h ****     running.  However, in particular for very short delays, the
  62:/usr/avr/include/util/delay_basic.h ****     overhead of setting up a hardware timer is too much compared
  63:/usr/avr/include/util/delay_basic.h ****     to the overall delay time.
  64:/usr/avr/include/util/delay_basic.h **** 
  65:/usr/avr/include/util/delay_basic.h ****     Two inline functions are provided for the actual delay algorithms.
  66:/usr/avr/include/util/delay_basic.h **** 
  67:/usr/avr/include/util/delay_basic.h **** */
  68:/usr/avr/include/util/delay_basic.h **** 
  69:/usr/avr/include/util/delay_basic.h **** /** \ingroup util_delay_basic
  70:/usr/avr/include/util/delay_basic.h **** 
  71:/usr/avr/include/util/delay_basic.h ****     Delay loop using an 8-bit counter \c __count, so up to 256
  72:/usr/avr/include/util/delay_basic.h ****     iterations are possible.  (The value 256 would have to be passed
  73:/usr/avr/include/util/delay_basic.h ****     as 0.)  The loop executes three CPU cycles per iteration, not
  74:/usr/avr/include/util/delay_basic.h ****     including the overhead the compiler needs to setup the counter
  75:/usr/avr/include/util/delay_basic.h ****     register.
  76:/usr/avr/include/util/delay_basic.h **** 
  77:/usr/avr/include/util/delay_basic.h ****     Thus, at a CPU speed of 1 MHz, delays of up to 768 microseconds
  78:/usr/avr/include/util/delay_basic.h ****     can be achieved.
  79:/usr/avr/include/util/delay_basic.h **** */
  80:/usr/avr/include/util/delay_basic.h **** void
  81:/usr/avr/include/util/delay_basic.h **** _delay_loop_1(uint8_t __count)
  82:/usr/avr/include/util/delay_basic.h **** {
  83:/usr/avr/include/util/delay_basic.h **** 	__asm__ volatile (
  84:/usr/avr/include/util/delay_basic.h **** 		"1: dec %0" "\n\t"
  85:/usr/avr/include/util/delay_basic.h **** 		"brne 1b"
  86:/usr/avr/include/util/delay_basic.h **** 		: "=r" (__count)
  87:/usr/avr/include/util/delay_basic.h **** 		: "0" (__count)
  88:/usr/avr/include/util/delay_basic.h **** 	);
  89:/usr/avr/include/util/delay_basic.h **** }
  90:/usr/avr/include/util/delay_basic.h **** 
  91:/usr/avr/include/util/delay_basic.h **** /** \ingroup util_delay_basic
  92:/usr/avr/include/util/delay_basic.h **** 
  93:/usr/avr/include/util/delay_basic.h ****     Delay loop using a 16-bit counter \c __count, so up to 65536
  94:/usr/avr/include/util/delay_basic.h ****     iterations are possible.  (The value 65536 would have to be
  95:/usr/avr/include/util/delay_basic.h ****     passed as 0.)  The loop executes four CPU cycles per iteration,
  96:/usr/avr/include/util/delay_basic.h ****     not including the overhead the compiler requires to setup the
  97:/usr/avr/include/util/delay_basic.h ****     counter register pair.
  98:/usr/avr/include/util/delay_basic.h **** 
  99:/usr/avr/include/util/delay_basic.h ****     Thus, at a CPU speed of 1 MHz, delays of up to about 262.1
 100:/usr/avr/include/util/delay_basic.h ****     milliseconds can be achieved.
 101:/usr/avr/include/util/delay_basic.h ****  */
 102:/usr/avr/include/util/delay_basic.h **** void
 103:/usr/avr/include/util/delay_basic.h **** _delay_loop_2(uint16_t __count)
 104:/usr/avr/include/util/delay_basic.h **** {
 105:/usr/avr/include/util/delay_basic.h **** 	__asm__ volatile (
 386               		.loc 3 105 2 view .LVU87
 387 0112 20E9      		ldi r18,lo8(-112)
 388 0114 31E0      		ldi r19,lo8(1)
 389               	.LVL37:
 390               	.L10:
 391               		.loc 3 105 2 view .LVU88
 392               	.LBE100:
 393               	.LBE99:
 199:/usr/avr/include/util/delay.h **** 		{
 200:/usr/avr/include/util/delay.h **** 			// wait 1/10 ms
 201:/usr/avr/include/util/delay.h **** 			_delay_loop_2(((F_CPU) / 4e3) / 10);
 394               		.loc 2 201 4 is_stmt 1 view .LVU89
 395               	.LBB102:
 396               	.LBI99:
 103:/usr/avr/include/util/delay_basic.h **** {
 397               		.loc 3 103 1 view .LVU90
 398               	.LBB101:
 399               		.loc 3 105 2 view .LVU91
 400 0116 F901      		movw r30,r18
 401               	/* #APP */
 402               	 ;  105 "/usr/avr/include/util/delay_basic.h" 1
 403 0118 3197      		1: sbiw r30,1
 404 011a 01F4      		brne 1b
 405               	 ;  0 "" 2
 406               	.LVL38:
 407               		.loc 3 105 2 is_stmt 0 view .LVU92
 408               	/* #NOAPP */
 409               	.LBE101:
 410               	.LBE102:
 202:/usr/avr/include/util/delay.h **** 			__ticks --;
 411               		.loc 2 202 4 is_stmt 1 view .LVU93
 198:/usr/avr/include/util/delay.h **** 		{
 412               		.loc 2 198 9 view .LVU94
 413 011c 0197      		sbiw r24,1
 414               	.LVL39:
 198:/usr/avr/include/util/delay.h **** 		{
 415               		.loc 2 198 9 is_stmt 0 view .LVU95
 416 011e 0097      		sbiw r24,0
 417 0120 01F4      		brne .L10
 418               	.LVL40:
 198:/usr/avr/include/util/delay.h **** 		{
 419               		.loc 2 198 9 view .LVU96
 420               	.LBE103:
 421               	.LBE104:
  62:lcd/lcd.c     **** 	_delay_ms(500);
 422               		.loc 1 62 2 is_stmt 1 view .LVU97
 423 0122 5F98      		cbi 0xb,7
  63:lcd/lcd.c     **** 	LCD_RST_1;
 424               		.loc 1 63 2 view .LVU98
 425               	.LVL41:
 426               	.LBB105:
 427               	.LBI105:
 166:/usr/avr/include/util/delay.h **** {
 428               		.loc 2 166 1 view .LVU99
 429               	.LBB106:
 168:/usr/avr/include/util/delay.h **** #if __HAS_DELAY_CYCLES && defined(__OPTIMIZE__) && \
 430               		.loc 2 168 2 view .LVU100
 190:/usr/avr/include/util/delay.h **** 	__tmp = ((F_CPU) / 4e3) * __ms;
 431               		.loc 2 190 2 view .LVU101
 191:/usr/avr/include/util/delay.h **** 	if (__tmp < 1.0)
 432               		.loc 2 191 2 view .LVU102
 192:/usr/avr/include/util/delay.h **** 		__ticks = 1;
 433               		.loc 2 192 2 view .LVU103
 194:/usr/avr/include/util/delay.h **** 	{
 434               		.loc 2 194 7 view .LVU104
 198:/usr/avr/include/util/delay.h **** 		{
 435               		.loc 2 198 9 view .LVU105
 436               	.LBE106:
 437               	.LBE105:
  62:lcd/lcd.c     **** 	_delay_ms(500);
 438               		.loc 1 62 2 is_stmt 0 view .LVU106
 439 0124 88E8      		ldi r24,lo8(-120)
 440 0126 93E1      		ldi r25,lo8(19)
 441               	.LBB112:
 442               	.LBB111:
 443               	.LBB107:
 444               	.LBB108:
 445               		.loc 3 105 2 view .LVU107
 446 0128 20E9      		ldi r18,lo8(-112)
 447 012a 31E0      		ldi r19,lo8(1)
 448               	.LVL42:
 449               	.L11:
 450               		.loc 3 105 2 view .LVU108
 451               	.LBE108:
 452               	.LBE107:
 201:/usr/avr/include/util/delay.h **** 			__ticks --;
 453               		.loc 2 201 4 is_stmt 1 view .LVU109
 454               	.LBB110:
 455               	.LBI107:
 103:/usr/avr/include/util/delay_basic.h **** {
 456               		.loc 3 103 1 view .LVU110
 457               	.LBB109:
 458               		.loc 3 105 2 view .LVU111
 459 012c F901      		movw r30,r18
 460               	/* #APP */
 461               	 ;  105 "/usr/avr/include/util/delay_basic.h" 1
 462 012e 3197      		1: sbiw r30,1
 463 0130 01F4      		brne 1b
 464               	 ;  0 "" 2
 465               	.LVL43:
 466               		.loc 3 105 2 is_stmt 0 view .LVU112
 467               	/* #NOAPP */
 468               	.LBE109:
 469               	.LBE110:
 470               		.loc 2 202 4 is_stmt 1 view .LVU113
 198:/usr/avr/include/util/delay.h **** 		{
 471               		.loc 2 198 9 view .LVU114
 472 0132 0197      		sbiw r24,1
 473               	.LVL44:
 198:/usr/avr/include/util/delay.h **** 		{
 474               		.loc 2 198 9 is_stmt 0 view .LVU115
 475 0134 0097      		sbiw r24,0
 476 0136 01F4      		brne .L11
 477               	.LVL45:
 198:/usr/avr/include/util/delay.h **** 		{
 478               		.loc 2 198 9 view .LVU116
 479               	.LBE111:
 480               	.LBE112:
  64:lcd/lcd.c     **** 	_delay_ms(500);
 481               		.loc 1 64 2 is_stmt 1 view .LVU117
 482 0138 5F9A      		sbi 0xb,7
  65:lcd/lcd.c     **** }
 483               		.loc 1 65 2 view .LVU118
 484               	.LVL46:
 485               	.LBB113:
 486               	.LBI113:
 166:/usr/avr/include/util/delay.h **** {
 487               		.loc 2 166 1 view .LVU119
 488               	.LBB114:
 168:/usr/avr/include/util/delay.h **** #if __HAS_DELAY_CYCLES && defined(__OPTIMIZE__) && \
 489               		.loc 2 168 2 view .LVU120
 190:/usr/avr/include/util/delay.h **** 	__tmp = ((F_CPU) / 4e3) * __ms;
 490               		.loc 2 190 2 view .LVU121
 191:/usr/avr/include/util/delay.h **** 	if (__tmp < 1.0)
 491               		.loc 2 191 2 view .LVU122
 192:/usr/avr/include/util/delay.h **** 		__ticks = 1;
 492               		.loc 2 192 2 view .LVU123
 194:/usr/avr/include/util/delay.h **** 	{
 493               		.loc 2 194 7 view .LVU124
 198:/usr/avr/include/util/delay.h **** 		{
 494               		.loc 2 198 9 view .LVU125
 495               	.LBE114:
 496               	.LBE113:
  64:lcd/lcd.c     **** 	_delay_ms(500);
 497               		.loc 1 64 2 is_stmt 0 view .LVU126
 498 013a 88E8      		ldi r24,lo8(-120)
 499 013c 93E1      		ldi r25,lo8(19)
 500               	.LBB120:
 501               	.LBB119:
 502               	.LBB115:
 503               	.LBB116:
 504               		.loc 3 105 2 view .LVU127
 505 013e 20E9      		ldi r18,lo8(-112)
 506 0140 31E0      		ldi r19,lo8(1)
 507               	.LVL47:
 508               	.L12:
 509               		.loc 3 105 2 view .LVU128
 510               	.LBE116:
 511               	.LBE115:
 201:/usr/avr/include/util/delay.h **** 			__ticks --;
 512               		.loc 2 201 4 is_stmt 1 view .LVU129
 513               	.LBB118:
 514               	.LBI115:
 103:/usr/avr/include/util/delay_basic.h **** {
 515               		.loc 3 103 1 view .LVU130
 516               	.LBB117:
 517               		.loc 3 105 2 view .LVU131
 518 0142 F901      		movw r30,r18
 519               	/* #APP */
 520               	 ;  105 "/usr/avr/include/util/delay_basic.h" 1
 521 0144 3197      		1: sbiw r30,1
 522 0146 01F4      		brne 1b
 523               	 ;  0 "" 2
 524               	.LVL48:
 525               		.loc 3 105 2 is_stmt 0 view .LVU132
 526               	/* #NOAPP */
 527               	.LBE117:
 528               	.LBE118:
 529               		.loc 2 202 4 is_stmt 1 view .LVU133
 198:/usr/avr/include/util/delay.h **** 		{
 530               		.loc 2 198 9 view .LVU134
 531 0148 0197      		sbiw r24,1
 532               	.LVL49:
 198:/usr/avr/include/util/delay.h **** 		{
 533               		.loc 2 198 9 is_stmt 0 view .LVU135
 534 014a 0097      		sbiw r24,0
 535 014c 01F4      		brne .L12
 536               	.LVL50:
 198:/usr/avr/include/util/delay.h **** 		{
 537               		.loc 2 198 9 view .LVU136
 538               	.LBE119:
 539               	.LBE120:
 540               	.LBE96:
 541               	.LBE95:
 276:lcd/lcd.c     **** 	_lcd_init_reg();
 542               		.loc 1 276 2 is_stmt 1 view .LVU137
 277:lcd/lcd.c     **** 	_lcd_set_gram_scan_dir(SCAN_DIR);
 543               		.loc 1 277 2 view .LVU138
 544               	.LBB121:
 545               	.LBI121:
 118:lcd/lcd.c     **** {
 546               		.loc 1 118 13 view .LVU139
 547               	.LBB122:
 120:lcd/lcd.c     **** 	_lcd_write_data(0x00);
 548               		.loc 1 120 2 view .LVU140
 549 014e 89EF      		ldi r24,lo8(-7)
 550 0150 0E94 0000 		call _lcd_write_reg
 551               	.LVL51:
 121:lcd/lcd.c     **** 	_lcd_write_data(0x08);
 552               		.loc 1 121 2 view .LVU141
 553 0154 80E0      		ldi r24,0
 554 0156 0E94 0000 		call _lcd_write_data
 555               	.LVL52:
 122:lcd/lcd.c     **** 	_lcd_write_reg(0xC0);
 556               		.loc 1 122 2 view .LVU142
 557 015a 88E0      		ldi r24,lo8(8)
 558 015c 0E94 0000 		call _lcd_write_data
 559               	.LVL53:
 123:lcd/lcd.c     **** 	_lcd_write_data(0x19);
 560               		.loc 1 123 2 view .LVU143
 561 0160 80EC      		ldi r24,lo8(-64)
 562 0162 0E94 0000 		call _lcd_write_reg
 563               	.LVL54:
 124:lcd/lcd.c     **** 	_lcd_write_data(0x1a);
 564               		.loc 1 124 2 view .LVU144
 565 0166 89E1      		ldi r24,lo8(25)
 566 0168 0E94 0000 		call _lcd_write_data
 567               	.LVL55:
 125:lcd/lcd.c     **** 	_lcd_write_reg(0xC1);
 568               		.loc 1 125 2 view .LVU145
 569 016c 8AE1      		ldi r24,lo8(26)
 570 016e 0E94 0000 		call _lcd_write_data
 571               	.LVL56:
 126:lcd/lcd.c     **** 	_lcd_write_data(0x45);
 572               		.loc 1 126 2 view .LVU146
 573 0172 81EC      		ldi r24,lo8(-63)
 574 0174 0E94 0000 		call _lcd_write_reg
 575               	.LVL57:
 127:lcd/lcd.c     **** 	_lcd_write_data(0x00);
 576               		.loc 1 127 2 view .LVU147
 577 0178 85E4      		ldi r24,lo8(69)
 578 017a 0E94 0000 		call _lcd_write_data
 579               	.LVL58:
 128:lcd/lcd.c     **** 	_lcd_write_reg(0xC2);
 580               		.loc 1 128 2 view .LVU148
 581 017e 80E0      		ldi r24,0
 582 0180 0E94 0000 		call _lcd_write_data
 583               	.LVL59:
 129:lcd/lcd.c     **** 	_lcd_write_data(0x33);
 584               		.loc 1 129 2 view .LVU149
 585 0184 82EC      		ldi r24,lo8(-62)
 586 0186 0E94 0000 		call _lcd_write_reg
 587               	.LVL60:
 130:lcd/lcd.c     **** 	_lcd_write_reg(0xC5);
 588               		.loc 1 130 2 view .LVU150
 589 018a 83E3      		ldi r24,lo8(51)
 590 018c 0E94 0000 		call _lcd_write_data
 591               	.LVL61:
 131:lcd/lcd.c     **** 	_lcd_write_data(0x00);
 592               		.loc 1 131 2 view .LVU151
 593 0190 85EC      		ldi r24,lo8(-59)
 594 0192 0E94 0000 		call _lcd_write_reg
 595               	.LVL62:
 132:lcd/lcd.c     **** 	_lcd_write_data(0x28);
 596               		.loc 1 132 2 view .LVU152
 597 0196 80E0      		ldi r24,0
 598 0198 0E94 0000 		call _lcd_write_data
 599               	.LVL63:
 133:lcd/lcd.c     **** 	_lcd_write_reg(0xB1);
 600               		.loc 1 133 2 view .LVU153
 601 019c 88E2      		ldi r24,lo8(40)
 602 019e 0E94 0000 		call _lcd_write_data
 603               	.LVL64:
 134:lcd/lcd.c     **** 	_lcd_write_data(0xA0);
 604               		.loc 1 134 2 view .LVU154
 605 01a2 81EB      		ldi r24,lo8(-79)
 606 01a4 0E94 0000 		call _lcd_write_reg
 607               	.LVL65:
 135:lcd/lcd.c     **** 	_lcd_write_data(0x11);
 608               		.loc 1 135 2 view .LVU155
 609 01a8 80EA      		ldi r24,lo8(-96)
 610 01aa 0E94 0000 		call _lcd_write_data
 611               	.LVL66:
 136:lcd/lcd.c     **** 	_lcd_write_reg(0xB4);
 612               		.loc 1 136 2 view .LVU156
 613 01ae 81E1      		ldi r24,lo8(17)
 614 01b0 0E94 0000 		call _lcd_write_data
 615               	.LVL67:
 137:lcd/lcd.c     **** 	_lcd_write_data(0x02);
 616               		.loc 1 137 2 view .LVU157
 617 01b4 84EB      		ldi r24,lo8(-76)
 618 01b6 0E94 0000 		call _lcd_write_reg
 619               	.LVL68:
 138:lcd/lcd.c     **** 	_lcd_write_reg(0xB6);
 620               		.loc 1 138 2 view .LVU158
 621 01ba 82E0      		ldi r24,lo8(2)
 622 01bc 0E94 0000 		call _lcd_write_data
 623               	.LVL69:
 139:lcd/lcd.c     **** 	_lcd_write_data(0x00);
 624               		.loc 1 139 2 view .LVU159
 625 01c0 86EB      		ldi r24,lo8(-74)
 626 01c2 0E94 0000 		call _lcd_write_reg
 627               	.LVL70:
 140:lcd/lcd.c     **** 	_lcd_write_data(0x42);
 628               		.loc 1 140 2 view .LVU160
 629 01c6 80E0      		ldi r24,0
 630 01c8 0E94 0000 		call _lcd_write_data
 631               	.LVL71:
 141:lcd/lcd.c     **** 	_lcd_write_data(0x3B);
 632               		.loc 1 141 2 view .LVU161
 633 01cc 82E4      		ldi r24,lo8(66)
 634 01ce 0E94 0000 		call _lcd_write_data
 635               	.LVL72:
 142:lcd/lcd.c     **** 	_lcd_write_reg(0xB7);
 636               		.loc 1 142 2 view .LVU162
 637 01d2 8BE3      		ldi r24,lo8(59)
 638 01d4 0E94 0000 		call _lcd_write_data
 639               	.LVL73:
 143:lcd/lcd.c     **** 	_lcd_write_data(0x07);
 640               		.loc 1 143 2 view .LVU163
 641 01d8 87EB      		ldi r24,lo8(-73)
 642 01da 0E94 0000 		call _lcd_write_reg
 643               	.LVL74:
 144:lcd/lcd.c     **** 	_lcd_write_reg(0xE0);
 644               		.loc 1 144 2 view .LVU164
 645 01de 87E0      		ldi r24,lo8(7)
 646 01e0 0E94 0000 		call _lcd_write_data
 647               	.LVL75:
 145:lcd/lcd.c     **** 	_lcd_write_data(0x1F);
 648               		.loc 1 145 2 view .LVU165
 649 01e4 80EE      		ldi r24,lo8(-32)
 650 01e6 0E94 0000 		call _lcd_write_reg
 651               	.LVL76:
 146:lcd/lcd.c     **** 	_lcd_write_data(0x25);
 652               		.loc 1 146 2 view .LVU166
 653 01ea 8FE1      		ldi r24,lo8(31)
 654 01ec 0E94 0000 		call _lcd_write_data
 655               	.LVL77:
 147:lcd/lcd.c     **** 	_lcd_write_data(0x22);
 656               		.loc 1 147 2 view .LVU167
 657 01f0 85E2      		ldi r24,lo8(37)
 658 01f2 0E94 0000 		call _lcd_write_data
 659               	.LVL78:
 148:lcd/lcd.c     **** 	_lcd_write_data(0x0B);
 660               		.loc 1 148 2 view .LVU168
 661 01f6 82E2      		ldi r24,lo8(34)
 662 01f8 0E94 0000 		call _lcd_write_data
 663               	.LVL79:
 149:lcd/lcd.c     **** 	_lcd_write_data(0x06);
 664               		.loc 1 149 2 view .LVU169
 665 01fc 8BE0      		ldi r24,lo8(11)
 666 01fe 0E94 0000 		call _lcd_write_data
 667               	.LVL80:
 150:lcd/lcd.c     **** 	_lcd_write_data(0x0A);
 668               		.loc 1 150 2 view .LVU170
 669 0202 86E0      		ldi r24,lo8(6)
 670 0204 0E94 0000 		call _lcd_write_data
 671               	.LVL81:
 151:lcd/lcd.c     **** 	_lcd_write_data(0x4E);
 672               		.loc 1 151 2 view .LVU171
 673 0208 8AE0      		ldi r24,lo8(10)
 674 020a 0E94 0000 		call _lcd_write_data
 675               	.LVL82:
 152:lcd/lcd.c     **** 	_lcd_write_data(0xC6);
 676               		.loc 1 152 2 view .LVU172
 677 020e 8EE4      		ldi r24,lo8(78)
 678 0210 0E94 0000 		call _lcd_write_data
 679               	.LVL83:
 153:lcd/lcd.c     **** 	_lcd_write_data(0x39);
 680               		.loc 1 153 2 view .LVU173
 681 0214 86EC      		ldi r24,lo8(-58)
 682 0216 0E94 0000 		call _lcd_write_data
 683               	.LVL84:
 154:lcd/lcd.c     **** 	_lcd_write_data(0x00);
 684               		.loc 1 154 2 view .LVU174
 685 021a 89E3      		ldi r24,lo8(57)
 686 021c 0E94 0000 		call _lcd_write_data
 687               	.LVL85:
 155:lcd/lcd.c     **** 	_lcd_write_data(0x00);
 688               		.loc 1 155 2 view .LVU175
 689 0220 80E0      		ldi r24,0
 690 0222 0E94 0000 		call _lcd_write_data
 691               	.LVL86:
 156:lcd/lcd.c     **** 	_lcd_write_data(0x00);
 692               		.loc 1 156 2 view .LVU176
 693 0226 80E0      		ldi r24,0
 694 0228 0E94 0000 		call _lcd_write_data
 695               	.LVL87:
 157:lcd/lcd.c     **** 	_lcd_write_data(0x00);
 696               		.loc 1 157 2 view .LVU177
 697 022c 80E0      		ldi r24,0
 698 022e 0E94 0000 		call _lcd_write_data
 699               	.LVL88:
 158:lcd/lcd.c     **** 	_lcd_write_data(0x00);
 700               		.loc 1 158 2 view .LVU178
 701 0232 80E0      		ldi r24,0
 702 0234 0E94 0000 		call _lcd_write_data
 703               	.LVL89:
 159:lcd/lcd.c     **** 	_lcd_write_data(0x00);
 704               		.loc 1 159 2 view .LVU179
 705 0238 80E0      		ldi r24,0
 706 023a 0E94 0000 		call _lcd_write_data
 707               	.LVL90:
 160:lcd/lcd.c     **** 	_lcd_write_reg(0xE1);
 708               		.loc 1 160 2 view .LVU180
 709 023e 80E0      		ldi r24,0
 710 0240 0E94 0000 		call _lcd_write_data
 711               	.LVL91:
 161:lcd/lcd.c     **** 	_lcd_write_data(0x1F);
 712               		.loc 1 161 2 view .LVU181
 713 0244 81EE      		ldi r24,lo8(-31)
 714 0246 0E94 0000 		call _lcd_write_reg
 715               	.LVL92:
 162:lcd/lcd.c     **** 	_lcd_write_data(0x3F);
 716               		.loc 1 162 2 view .LVU182
 717 024a 8FE1      		ldi r24,lo8(31)
 718 024c 0E94 0000 		call _lcd_write_data
 719               	.LVL93:
 163:lcd/lcd.c     **** 	_lcd_write_data(0x3F);
 720               		.loc 1 163 2 view .LVU183
 721 0250 8FE3      		ldi r24,lo8(63)
 722 0252 0E94 0000 		call _lcd_write_data
 723               	.LVL94:
 164:lcd/lcd.c     **** 	_lcd_write_data(0x0F);
 724               		.loc 1 164 2 view .LVU184
 725 0256 8FE3      		ldi r24,lo8(63)
 726 0258 0E94 0000 		call _lcd_write_data
 727               	.LVL95:
 165:lcd/lcd.c     **** 	_lcd_write_data(0x1F);
 728               		.loc 1 165 2 view .LVU185
 729 025c 8FE0      		ldi r24,lo8(15)
 730 025e 0E94 0000 		call _lcd_write_data
 731               	.LVL96:
 166:lcd/lcd.c     **** 	_lcd_write_data(0x0F);
 732               		.loc 1 166 2 view .LVU186
 733 0262 8FE1      		ldi r24,lo8(31)
 734 0264 0E94 0000 		call _lcd_write_data
 735               	.LVL97:
 167:lcd/lcd.c     **** 	_lcd_write_data(0x46);
 736               		.loc 1 167 2 view .LVU187
 737 0268 8FE0      		ldi r24,lo8(15)
 738 026a 0E94 0000 		call _lcd_write_data
 739               	.LVL98:
 168:lcd/lcd.c     **** 	_lcd_write_data(0x49);
 740               		.loc 1 168 2 view .LVU188
 741 026e 86E4      		ldi r24,lo8(70)
 742 0270 0E94 0000 		call _lcd_write_data
 743               	.LVL99:
 169:lcd/lcd.c     **** 	_lcd_write_data(0x31);
 744               		.loc 1 169 2 view .LVU189
 745 0274 89E4      		ldi r24,lo8(73)
 746 0276 0E94 0000 		call _lcd_write_data
 747               	.LVL100:
 170:lcd/lcd.c     **** 	_lcd_write_data(0x05);
 748               		.loc 1 170 2 view .LVU190
 749 027a 81E3      		ldi r24,lo8(49)
 750 027c 0E94 0000 		call _lcd_write_data
 751               	.LVL101:
 171:lcd/lcd.c     **** 	_lcd_write_data(0x09);
 752               		.loc 1 171 2 view .LVU191
 753 0280 85E0      		ldi r24,lo8(5)
 754 0282 0E94 0000 		call _lcd_write_data
 755               	.LVL102:
 172:lcd/lcd.c     **** 	_lcd_write_data(0x03);
 756               		.loc 1 172 2 view .LVU192
 757 0286 89E0      		ldi r24,lo8(9)
 758 0288 0E94 0000 		call _lcd_write_data
 759               	.LVL103:
 173:lcd/lcd.c     **** 	_lcd_write_data(0x1C);
 760               		.loc 1 173 2 view .LVU193
 761 028c 83E0      		ldi r24,lo8(3)
 762 028e 0E94 0000 		call _lcd_write_data
 763               	.LVL104:
 174:lcd/lcd.c     **** 	_lcd_write_data(0x1A);
 764               		.loc 1 174 2 view .LVU194
 765 0292 8CE1      		ldi r24,lo8(28)
 766 0294 0E94 0000 		call _lcd_write_data
 767               	.LVL105:
 175:lcd/lcd.c     **** 	_lcd_write_data(0x00);
 768               		.loc 1 175 2 view .LVU195
 769 0298 8AE1      		ldi r24,lo8(26)
 770 029a 0E94 0000 		call _lcd_write_data
 771               	.LVL106:
 176:lcd/lcd.c     **** 	_lcd_write_reg(0xF1);
 772               		.loc 1 176 2 view .LVU196
 773 029e 80E0      		ldi r24,0
 774 02a0 0E94 0000 		call _lcd_write_data
 775               	.LVL107:
 177:lcd/lcd.c     **** 	_lcd_write_data(0x36);
 776               		.loc 1 177 2 view .LVU197
 777 02a4 81EF      		ldi r24,lo8(-15)
 778 02a6 0E94 0000 		call _lcd_write_reg
 779               	.LVL108:
 178:lcd/lcd.c     **** 	_lcd_write_data(0x04);
 780               		.loc 1 178 2 view .LVU198
 781 02aa 86E3      		ldi r24,lo8(54)
 782 02ac 0E94 0000 		call _lcd_write_data
 783               	.LVL109:
 179:lcd/lcd.c     **** 	_lcd_write_data(0x00);
 784               		.loc 1 179 2 view .LVU199
 785 02b0 84E0      		ldi r24,lo8(4)
 786 02b2 0E94 0000 		call _lcd_write_data
 787               	.LVL110:
 180:lcd/lcd.c     **** 	_lcd_write_data(0x3C);
 788               		.loc 1 180 2 view .LVU200
 789 02b6 80E0      		ldi r24,0
 790 02b8 0E94 0000 		call _lcd_write_data
 791               	.LVL111:
 181:lcd/lcd.c     **** 	_lcd_write_data(0x0F);
 792               		.loc 1 181 2 view .LVU201
 793 02bc 8CE3      		ldi r24,lo8(60)
 794 02be 0E94 0000 		call _lcd_write_data
 795               	.LVL112:
 182:lcd/lcd.c     **** 	_lcd_write_data(0x0F);
 796               		.loc 1 182 2 view .LVU202
 797 02c2 8FE0      		ldi r24,lo8(15)
 798 02c4 0E94 0000 		call _lcd_write_data
 799               	.LVL113:
 183:lcd/lcd.c     **** 	_lcd_write_data(0xA4);
 800               		.loc 1 183 2 view .LVU203
 801 02c8 8FE0      		ldi r24,lo8(15)
 802 02ca 0E94 0000 		call _lcd_write_data
 803               	.LVL114:
 184:lcd/lcd.c     **** 	_lcd_write_data(0x02);
 804               		.loc 1 184 2 view .LVU204
 805 02ce 84EA      		ldi r24,lo8(-92)
 806 02d0 0E94 0000 		call _lcd_write_data
 807               	.LVL115:
 185:lcd/lcd.c     **** 	_lcd_write_reg(0xF2);
 808               		.loc 1 185 2 view .LVU205
 809 02d4 82E0      		ldi r24,lo8(2)
 810 02d6 0E94 0000 		call _lcd_write_data
 811               	.LVL116:
 186:lcd/lcd.c     **** 	_lcd_write_data(0x18);
 812               		.loc 1 186 2 view .LVU206
 813 02da 82EF      		ldi r24,lo8(-14)
 814 02dc 0E94 0000 		call _lcd_write_reg
 815               	.LVL117:
 187:lcd/lcd.c     **** 	_lcd_write_data(0xA3);
 816               		.loc 1 187 2 view .LVU207
 817 02e0 88E1      		ldi r24,lo8(24)
 818 02e2 0E94 0000 		call _lcd_write_data
 819               	.LVL118:
 188:lcd/lcd.c     **** 	_lcd_write_data(0x12);
 820               		.loc 1 188 2 view .LVU208
 821 02e6 83EA      		ldi r24,lo8(-93)
 822 02e8 0E94 0000 		call _lcd_write_data
 823               	.LVL119:
 189:lcd/lcd.c     **** 	_lcd_write_data(0x02);
 824               		.loc 1 189 2 view .LVU209
 825 02ec 82E1      		ldi r24,lo8(18)
 826 02ee 0E94 0000 		call _lcd_write_data
 827               	.LVL120:
 190:lcd/lcd.c     **** 	_lcd_write_data(0x32);
 828               		.loc 1 190 2 view .LVU210
 829 02f2 82E0      		ldi r24,lo8(2)
 830 02f4 0E94 0000 		call _lcd_write_data
 831               	.LVL121:
 191:lcd/lcd.c     **** 	_lcd_write_data(0x12);
 832               		.loc 1 191 2 view .LVU211
 833 02f8 82E3      		ldi r24,lo8(50)
 834 02fa 0E94 0000 		call _lcd_write_data
 835               	.LVL122:
 192:lcd/lcd.c     **** 	_lcd_write_data(0xFF);
 836               		.loc 1 192 2 view .LVU212
 837 02fe 82E1      		ldi r24,lo8(18)
 838 0300 0E94 0000 		call _lcd_write_data
 839               	.LVL123:
 193:lcd/lcd.c     **** 	_lcd_write_data(0x32);
 840               		.loc 1 193 2 view .LVU213
 841 0304 8FEF      		ldi r24,lo8(-1)
 842 0306 0E94 0000 		call _lcd_write_data
 843               	.LVL124:
 194:lcd/lcd.c     **** 	_lcd_write_data(0x00);
 844               		.loc 1 194 2 view .LVU214
 845 030a 82E3      		ldi r24,lo8(50)
 846 030c 0E94 0000 		call _lcd_write_data
 847               	.LVL125:
 195:lcd/lcd.c     **** 	_lcd_write_reg(0xF4);
 848               		.loc 1 195 2 view .LVU215
 849 0310 80E0      		ldi r24,0
 850 0312 0E94 0000 		call _lcd_write_data
 851               	.LVL126:
 196:lcd/lcd.c     **** 	_lcd_write_data(0x40);
 852               		.loc 1 196 2 view .LVU216
 853 0316 84EF      		ldi r24,lo8(-12)
 854 0318 0E94 0000 		call _lcd_write_reg
 855               	.LVL127:
 197:lcd/lcd.c     **** 	_lcd_write_data(0x00);
 856               		.loc 1 197 2 view .LVU217
 857 031c 80E4      		ldi r24,lo8(64)
 858 031e 0E94 0000 		call _lcd_write_data
 859               	.LVL128:
 198:lcd/lcd.c     **** 	_lcd_write_data(0x08);
 860               		.loc 1 198 2 view .LVU218
 861 0322 80E0      		ldi r24,0
 862 0324 0E94 0000 		call _lcd_write_data
 863               	.LVL129:
 199:lcd/lcd.c     **** 	_lcd_write_data(0x91);
 864               		.loc 1 199 2 view .LVU219
 865 0328 88E0      		ldi r24,lo8(8)
 866 032a 0E94 0000 		call _lcd_write_data
 867               	.LVL130:
 200:lcd/lcd.c     **** 	_lcd_write_data(0x04);
 868               		.loc 1 200 2 view .LVU220
 869 032e 81E9      		ldi r24,lo8(-111)
 870 0330 0E94 0000 		call _lcd_write_data
 871               	.LVL131:
 201:lcd/lcd.c     **** 	_lcd_write_reg(0xF8);
 872               		.loc 1 201 2 view .LVU221
 873 0334 84E0      		ldi r24,lo8(4)
 874 0336 0E94 0000 		call _lcd_write_data
 875               	.LVL132:
 202:lcd/lcd.c     **** 	_lcd_write_data(0x21);
 876               		.loc 1 202 2 view .LVU222
 877 033a 88EF      		ldi r24,lo8(-8)
 878 033c 0E94 0000 		call _lcd_write_reg
 879               	.LVL133:
 203:lcd/lcd.c     **** 	_lcd_write_data(0x04);
 880               		.loc 1 203 2 view .LVU223
 881 0340 81E2      		ldi r24,lo8(33)
 882 0342 0E94 0000 		call _lcd_write_data
 883               	.LVL134:
 204:lcd/lcd.c     **** 	_lcd_write_reg(0x3A);
 884               		.loc 1 204 2 view .LVU224
 885 0346 84E0      		ldi r24,lo8(4)
 886 0348 0E94 0000 		call _lcd_write_data
 887               	.LVL135:
 205:lcd/lcd.c     **** 	_lcd_write_data(0x55);
 888               		.loc 1 205 2 view .LVU225
 889 034c 8AE3      		ldi r24,lo8(58)
 890 034e 0E94 0000 		call _lcd_write_reg
 891               	.LVL136:
 206:lcd/lcd.c     **** }
 892               		.loc 1 206 2 view .LVU226
 893 0352 85E5      		ldi r24,lo8(85)
 894 0354 0E94 0000 		call _lcd_write_data
 895               	.LVL137:
 896               	.LBE122:
 897               	.LBE121:
 278:lcd/lcd.c     **** 	_delay_ms(200);
 898               		.loc 1 278 2 view .LVU227
 899               	.LBB123:
 900               	.LBI123:
 209:lcd/lcd.c     **** {
 901               		.loc 1 209 13 view .LVU228
 902               	.LBB124:
 211:lcd/lcd.c     **** 	switch(scan_dir)
 903               		.loc 1 211 2 view .LVU229
 212:lcd/lcd.c     **** 	{
 904               		.loc 1 212 2 view .LVU230
 255:lcd/lcd.c     **** 	_lcd_write_data(0x00);
 905               		.loc 1 255 2 view .LVU231
 906 0358 86EB      		ldi r24,lo8(-74)
 907 035a 0E94 0000 		call _lcd_write_reg
 908               	.LVL138:
 256:lcd/lcd.c     **** 	_lcd_write_data(b);
 909               		.loc 1 256 2 view .LVU232
 910 035e 80E0      		ldi r24,0
 911 0360 0E94 0000 		call _lcd_write_data
 912               	.LVL139:
 257:lcd/lcd.c     **** 	_lcd_write_reg(0x36);
 913               		.loc 1 257 2 view .LVU233
 914 0364 82E2      		ldi r24,lo8(34)
 915 0366 0E94 0000 		call _lcd_write_data
 916               	.LVL140:
 258:lcd/lcd.c     **** 	_lcd_write_data(a);
 917               		.loc 1 258 2 view .LVU234
 918 036a 86E3      		ldi r24,lo8(54)
 919 036c 0E94 0000 		call _lcd_write_reg
 920               	.LVL141:
 259:lcd/lcd.c     **** }
 921               		.loc 1 259 2 view .LVU235
 922 0370 88E0      		ldi r24,lo8(8)
 923 0372 0E94 0000 		call _lcd_write_data
 924               	.LVL142:
 259:lcd/lcd.c     **** }
 925               		.loc 1 259 2 is_stmt 0 view .LVU236
 926               	.LBE124:
 927               	.LBE123:
 928               	.LBB126:
 929               	.LBB127:
 198:/usr/avr/include/util/delay.h **** 		{
 930               		.loc 2 198 9 is_stmt 1 view .LVU237
 931               	.LBE127:
 932               	.LBE126:
 933               	.LBB133:
 934               	.LBB125:
 259:lcd/lcd.c     **** }
 935               		.loc 1 259 2 is_stmt 0 view .LVU238
 936 0376 80ED      		ldi r24,lo8(-48)
 937 0378 97E0      		ldi r25,lo8(7)
 938               	.LBE125:
 939               	.LBE133:
 940               	.LBB134:
 941               	.LBB132:
 942               	.LBB128:
 943               	.LBB129:
 944               		.loc 3 105 2 view .LVU239
 945 037a 20E9      		ldi r18,lo8(-112)
 946 037c 31E0      		ldi r19,lo8(1)
 947               	.LVL143:
 948               	.L13:
 949               		.loc 3 105 2 view .LVU240
 950               	.LBE129:
 951               	.LBE128:
 201:/usr/avr/include/util/delay.h **** 			__ticks --;
 952               		.loc 2 201 4 is_stmt 1 view .LVU241
 953               	.LBB131:
 954               	.LBI128:
 103:/usr/avr/include/util/delay_basic.h **** {
 955               		.loc 3 103 1 view .LVU242
 956               	.LBB130:
 957               		.loc 3 105 2 view .LVU243
 958 037e F901      		movw r30,r18
 959               	/* #APP */
 960               	 ;  105 "/usr/avr/include/util/delay_basic.h" 1
 961 0380 3197      		1: sbiw r30,1
 962 0382 01F4      		brne 1b
 963               	 ;  0 "" 2
 964               	.LVL144:
 965               		.loc 3 105 2 is_stmt 0 view .LVU244
 966               	/* #NOAPP */
 967               	.LBE130:
 968               	.LBE131:
 969               		.loc 2 202 4 is_stmt 1 view .LVU245
 198:/usr/avr/include/util/delay.h **** 		{
 970               		.loc 2 198 9 view .LVU246
 971 0384 0197      		sbiw r24,1
 972               	.LVL145:
 198:/usr/avr/include/util/delay.h **** 		{
 973               		.loc 2 198 9 is_stmt 0 view .LVU247
 974 0386 0097      		sbiw r24,0
 975 0388 01F4      		brne .L13
 976               	.LVL146:
 198:/usr/avr/include/util/delay.h **** 		{
 977               		.loc 2 198 9 view .LVU248
 978               	.LBE132:
 979               	.LBE134:
 280:lcd/lcd.c     **** 	_delay_ms(120);
 980               		.loc 1 280 2 is_stmt 1 view .LVU249
 981 038a 81E1      		ldi r24,lo8(17)
 982 038c 0E94 0000 		call _lcd_write_reg
 983               	.LVL147:
 281:lcd/lcd.c     **** 	_lcd_write_reg(0x29);
 984               		.loc 1 281 2 view .LVU250
 985               	.LBB135:
 986               	.LBI135:
 166:/usr/avr/include/util/delay.h **** {
 987               		.loc 2 166 1 view .LVU251
 988               	.LBB136:
 168:/usr/avr/include/util/delay.h **** #if __HAS_DELAY_CYCLES && defined(__OPTIMIZE__) && \
 989               		.loc 2 168 2 view .LVU252
 190:/usr/avr/include/util/delay.h **** 	__tmp = ((F_CPU) / 4e3) * __ms;
 990               		.loc 2 190 2 view .LVU253
 191:/usr/avr/include/util/delay.h **** 	if (__tmp < 1.0)
 991               		.loc 2 191 2 view .LVU254
 192:/usr/avr/include/util/delay.h **** 		__ticks = 1;
 992               		.loc 2 192 2 view .LVU255
 194:/usr/avr/include/util/delay.h **** 	{
 993               		.loc 2 194 7 view .LVU256
 198:/usr/avr/include/util/delay.h **** 		{
 994               		.loc 2 198 9 view .LVU257
 995               	.LBE136:
 996               	.LBE135:
 280:lcd/lcd.c     **** 	_delay_ms(120);
 997               		.loc 1 280 2 is_stmt 0 view .LVU258
 998 0390 80EB      		ldi r24,lo8(-80)
 999 0392 94E0      		ldi r25,lo8(4)
 1000               	.LBB142:
 1001               	.LBB141:
 1002               	.LBB137:
 1003               	.LBB138:
 1004               		.loc 3 105 2 view .LVU259
 1005 0394 20E9      		ldi r18,lo8(-112)
 1006 0396 31E0      		ldi r19,lo8(1)
 1007               	.LVL148:
 1008               	.L14:
 1009               		.loc 3 105 2 view .LVU260
 1010               	.LBE138:
 1011               	.LBE137:
 201:/usr/avr/include/util/delay.h **** 			__ticks --;
 1012               		.loc 2 201 4 is_stmt 1 view .LVU261
 1013               	.LBB140:
 1014               	.LBI137:
 103:/usr/avr/include/util/delay_basic.h **** {
 1015               		.loc 3 103 1 view .LVU262
 1016               	.LBB139:
 1017               		.loc 3 105 2 view .LVU263
 1018 0398 F901      		movw r30,r18
 1019               	/* #APP */
 1020               	 ;  105 "/usr/avr/include/util/delay_basic.h" 1
 1021 039a 3197      		1: sbiw r30,1
 1022 039c 01F4      		brne 1b
 1023               	 ;  0 "" 2
 1024               	.LVL149:
 1025               		.loc 3 105 2 is_stmt 0 view .LVU264
 1026               	/* #NOAPP */
 1027               	.LBE139:
 1028               	.LBE140:
 1029               		.loc 2 202 4 is_stmt 1 view .LVU265
 198:/usr/avr/include/util/delay.h **** 		{
 1030               		.loc 2 198 9 view .LVU266
 1031 039e 0197      		sbiw r24,1
 1032               	.LVL150:
 198:/usr/avr/include/util/delay.h **** 		{
 1033               		.loc 2 198 9 is_stmt 0 view .LVU267
 1034 03a0 0097      		sbiw r24,0
 1035 03a2 01F4      		brne .L14
 1036               	.LVL151:
 198:/usr/avr/include/util/delay.h **** 		{
 1037               		.loc 2 198 9 view .LVU268
 1038               	.LBE141:
 1039               	.LBE142:
 282:lcd/lcd.c     **** 
 1040               		.loc 1 282 2 is_stmt 1 view .LVU269
 1041 03a4 89E2      		ldi r24,lo8(41)
 1042 03a6 0E94 0000 		call _lcd_write_reg
 1043               	.LVL152:
 284:lcd/lcd.c     **** 
 1044               		.loc 1 284 2 view .LVU270
 1045 03aa 20EE      		ldi r18,lo8(-32)
 1046 03ac 31E0      		ldi r19,lo8(1)
 1047 03ae 40E4      		ldi r20,lo8(64)
 1048 03b0 51E0      		ldi r21,lo8(1)
 1049 03b2 60E0      		ldi r22,0
 1050 03b4 70E0      		ldi r23,0
 1051 03b6 80E0      		ldi r24,0
 1052 03b8 90E0      		ldi r25,0
 1053 03ba 0E94 0000 		call lcd_rect
 1054               	.LVL153:
 286:lcd/lcd.c     **** }
 1055               		.loc 1 286 2 view .LVU271
 1056               	.LBB143:
 286:lcd/lcd.c     **** }
 1057               		.loc 1 286 13 view .LVU272
 286:lcd/lcd.c     **** }
 1058               		.loc 1 286 13 view .LVU273
 1059               	.LBE143:
 286:lcd/lcd.c     **** }
 1060               		.loc 1 286 2 is_stmt 0 view .LVU274
 1061 03be 80E0      		ldi r24,lo8(__c.0)
 1062 03c0 90E0      		ldi r25,hi8(__c.0)
 1063 03c2 9F93      		push r25
 1064               		.cfi_def_cfa_offset 5
 1065 03c4 8F93      		push r24
 1066               		.cfi_def_cfa_offset 6
 1067 03c6 0E94 0000 		call log_boot_P
 1068               	.LVL154:
 287:lcd/lcd.c     **** 
 1069               		.loc 1 287 1 view .LVU275
 1070 03ca 0F90      		pop __tmp_reg__
 1071 03cc 0F90      		pop __tmp_reg__
 1072               		.cfi_def_cfa_offset 4
 1073               	/* epilogue start */
 1074 03ce 1F91      		pop r17
 1075 03d0 0F91      		pop r16
 1076               	.LVL155:
 287:lcd/lcd.c     **** 
 1077               		.loc 1 287 1 view .LVU276
 1078 03d2 0895      		ret
 1079               		.cfi_endproc
 1080               	.LFE23:
 1082               		.section	.progmem.data,"a",@progbits
 1085               	__c.0:
 1086 0000 4C43 4420 		.string	"LCD driver initialized"
 1086      6472 6976 
 1086      6572 2069 
 1086      6E69 7469 
 1086      616C 697A 
 1087               		.text
 1088               	.Letext0:
 1089               		.file 4 "/usr/lib/gcc/avr/12.2.0/include/stdint-gcc.h"
 1090               		.file 5 "../../types/types.h"
 1091               		.file 6 "lcd/lcd.h"
 1092               		.file 7 "logger/logger.h"
 1093               		.file 8 "spi/spi.h"
DEFINED SYMBOLS
                            *ABS*:00000000 lcd.c
     /tmp/ccQTa6xL.s:2      *ABS*:0000003e __SP_H__
     /tmp/ccQTa6xL.s:3      *ABS*:0000003d __SP_L__
     /tmp/ccQTa6xL.s:4      *ABS*:0000003f __SREG__
     /tmp/ccQTa6xL.s:5      *ABS*:00000000 __tmp_reg__
     /tmp/ccQTa6xL.s:6      *ABS*:00000001 __zero_reg__
     /tmp/ccQTa6xL.s:12     .text:00000000 _lcd_write_data
     /tmp/ccQTa6xL.s:16     .text:00000000 .Loc.0
     /tmp/ccQTa6xL.s:17     .text:00000000 L0
     /tmp/ccQTa6xL.s:18     .text:00000000 .Loc.1
     /tmp/ccQTa6xL.s:27     .text:00000004 .Loc.2
     /tmp/ccQTa6xL.s:29     .text:00000006 .Loc.3
     /tmp/ccQTa6xL.s:31     .text:00000008 .Loc.4
     /tmp/ccQTa6xL.s:34     .text:0000000a .Loc.5
     /tmp/ccQTa6xL.s:37     .text:0000000e .Loc.6
     /tmp/ccQTa6xL.s:41     .text:00000014 .Loc.7
     /tmp/ccQTa6xL.s:44     .text:00000016 .Loc.8
     /tmp/ccQTa6xL.s:47     .text:00000018 .Loc.9
     /tmp/ccQTa6xL.s:49     .text:0000001a L0
     /tmp/ccQTa6xL.s:53     .text:0000001a _lcd_write_reg
     /tmp/ccQTa6xL.s:56     .text:0000001a .Loc.10
     /tmp/ccQTa6xL.s:57     .text:0000001a L0
     /tmp/ccQTa6xL.s:62     .text:0000001a .Loc.11
     /tmp/ccQTa6xL.s:64     .text:0000001c .Loc.12
     /tmp/ccQTa6xL.s:66     .text:0000001e .Loc.13
     /tmp/ccQTa6xL.s:69     .text:00000022 .Loc.14
     /tmp/ccQTa6xL.s:72     .text:00000024 .Loc.15
     /tmp/ccQTa6xL.s:74     .text:00000026 L0
     /tmp/ccQTa6xL.s:79     .text:00000026 lcd_backlight
     /tmp/ccQTa6xL.s:82     .text:00000026 .Loc.16
     /tmp/ccQTa6xL.s:83     .text:00000026 L0
     /tmp/ccQTa6xL.s:88     .text:00000026 .Loc.17
     /tmp/ccQTa6xL.s:90     .text:00000026 .Loc.18
     /tmp/ccQTa6xL.s:92     .text:00000028 L0
     /tmp/ccQTa6xL.s:97     .text:00000028 lcd_rect
     /tmp/ccQTa6xL.s:100    .text:00000028 .Loc.19
     /tmp/ccQTa6xL.s:101    .text:00000028 L0
     /tmp/ccQTa6xL.s:102    .text:00000028 .Loc.20
     /tmp/ccQTa6xL.s:153    .text:0000004c .Loc.21
     /tmp/ccQTa6xL.s:154    .text:0000004c .Loc.22
     /tmp/ccQTa6xL.s:157    .text:00000050 .Loc.23
     /tmp/ccQTa6xL.s:160    .text:00000050 .Loc.24
     /tmp/ccQTa6xL.s:162    .text:00000050 .Loc.25
     /tmp/ccQTa6xL.s:163    .text:00000050 .Loc.26
     /tmp/ccQTa6xL.s:164    .text:00000050 .Loc.27
     /tmp/ccQTa6xL.s:172    .text:0000005c .Loc.28
     /tmp/ccQTa6xL.s:173    .text:0000005c .Loc.29
     /tmp/ccQTa6xL.s:181    .text:00000068 .Loc.30
     /tmp/ccQTa6xL.s:185    .text:0000006e .Loc.31
     /tmp/ccQTa6xL.s:189    .text:00000074 .Loc.32
     /tmp/ccQTa6xL.s:193    .text:0000007a .Loc.33
     /tmp/ccQTa6xL.s:197    .text:00000080 .Loc.34
     /tmp/ccQTa6xL.s:201    .text:00000086 .Loc.35
     /tmp/ccQTa6xL.s:205    .text:0000008c .Loc.36
     /tmp/ccQTa6xL.s:209    .text:00000092 .Loc.37
     /tmp/ccQTa6xL.s:213    .text:00000098 .Loc.38
     /tmp/ccQTa6xL.s:217    .text:0000009e .Loc.39
     /tmp/ccQTa6xL.s:221    .text:000000a4 .Loc.40
     /tmp/ccQTa6xL.s:225    .text:000000aa .Loc.41
     /tmp/ccQTa6xL.s:227    .text:000000ac .Loc.42
     /tmp/ccQTa6xL.s:231    .text:000000ae .Loc.43
     /tmp/ccQTa6xL.s:236    .text:000000b2 .Loc.44
     /tmp/ccQTa6xL.s:240    .text:000000b8 .Loc.45
     /tmp/ccQTa6xL.s:243    .text:000000b8 .Loc.46
     /tmp/ccQTa6xL.s:245    .text:000000b8 .Loc.47
     /tmp/ccQTa6xL.s:250    .text:000000ba .Loc.48
     /tmp/ccQTa6xL.s:254    .text:000000be .Loc.49
     /tmp/ccQTa6xL.s:258    .text:000000c2 .Loc.50
     /tmp/ccQTa6xL.s:264    .text:000000ca .Loc.51
     /tmp/ccQTa6xL.s:268    .text:000000ce .Loc.52
     /tmp/ccQTa6xL.s:276    .text:000000d8 .Loc.53
     /tmp/ccQTa6xL.s:279    .text:000000d8 .Loc.54
     /tmp/ccQTa6xL.s:281    .text:000000d8 .Loc.55
     /tmp/ccQTa6xL.s:285    .text:000000de .Loc.56
     /tmp/ccQTa6xL.s:289    .text:000000e4 .Loc.57
     /tmp/ccQTa6xL.s:292    .text:000000e4 .Loc.58
     /tmp/ccQTa6xL.s:298    .text:000000ea .Loc.59
     /tmp/ccQTa6xL.s:302    .text:000000f0 .Loc.60
     /tmp/ccQTa6xL.s:305    .text:000000f2 .Loc.61
     /tmp/ccQTa6xL.s:309    .text:000000f4 .Loc.62
     /tmp/ccQTa6xL.s:313    .text:000000fa L0
     /tmp/ccQTa6xL.s:318    .text:000000fa lcd_init
     /tmp/ccQTa6xL.s:321    .text:000000fa .Loc.63
     /tmp/ccQTa6xL.s:322    .text:000000fa L0
     /tmp/ccQTa6xL.s:323    .text:000000fa .Loc.64
     /tmp/ccQTa6xL.s:335    .text:00000100 .Loc.65
     /tmp/ccQTa6xL.s:338    .text:00000100 .Loc.66
     /tmp/ccQTa6xL.s:340    .text:00000100 .Loc.67
     /tmp/ccQTa6xL.s:341    .text:00000100 .Loc.68
     /tmp/ccQTa6xL.s:343    .text:00000102 .Loc.69
     /tmp/ccQTa6xL.s:344    .text:00000102 .Loc.70
     /tmp/ccQTa6xL.s:346    .text:00000104 .Loc.71
     /tmp/ccQTa6xL.s:347    .text:00000104 .Loc.72
     /tmp/ccQTa6xL.s:349    .text:00000106 .Loc.73
     /tmp/ccQTa6xL.s:353    .text:00000108 .Loc.74
     /tmp/ccQTa6xL.s:356    .text:0000010c .Loc.75
     /tmp/ccQTa6xL.s:359    .text:0000010c .Loc.76
     /tmp/ccQTa6xL.s:361    .text:0000010c .Loc.77
     /tmp/ccQTa6xL.s:363    .text:0000010e .Loc.78
     /tmp/ccQTa6xL.s:368    .text:0000010e .Loc.79
     /tmp/ccQTa6xL.s:370    .text:0000010e .Loc.80
     /tmp/ccQTa6xL.s:371    .text:0000010e .Loc.81
     /tmp/ccQTa6xL.s:372    .text:0000010e .Loc.82
     /tmp/ccQTa6xL.s:373    .text:0000010e .Loc.83
     /tmp/ccQTa6xL.s:374    .text:0000010e .Loc.84
     /tmp/ccQTa6xL.s:375    .text:0000010e .Loc.85
     /tmp/ccQTa6xL.s:378    .text:0000010e .Loc.86
     /tmp/ccQTa6xL.s:386    .text:00000112 .Loc.87
     /tmp/ccQTa6xL.s:391    .text:00000116 .Loc.88
     /tmp/ccQTa6xL.s:394    .text:00000116 .Loc.89
     /tmp/ccQTa6xL.s:397    .text:00000116 .Loc.90
     /tmp/ccQTa6xL.s:399    .text:00000116 .Loc.91
     /tmp/ccQTa6xL.s:407    .text:0000011c .Loc.92
     /tmp/ccQTa6xL.s:411    .text:0000011c .Loc.93
     /tmp/ccQTa6xL.s:412    .text:0000011c .Loc.94
     /tmp/ccQTa6xL.s:415    .text:0000011e .Loc.95
     /tmp/ccQTa6xL.s:419    .text:00000122 .Loc.96
     /tmp/ccQTa6xL.s:422    .text:00000122 .Loc.97
     /tmp/ccQTa6xL.s:424    .text:00000124 .Loc.98
     /tmp/ccQTa6xL.s:428    .text:00000124 .Loc.99
     /tmp/ccQTa6xL.s:430    .text:00000124 .Loc.100
     /tmp/ccQTa6xL.s:431    .text:00000124 .Loc.101
     /tmp/ccQTa6xL.s:432    .text:00000124 .Loc.102
     /tmp/ccQTa6xL.s:433    .text:00000124 .Loc.103
     /tmp/ccQTa6xL.s:434    .text:00000124 .Loc.104
     /tmp/ccQTa6xL.s:435    .text:00000124 .Loc.105
     /tmp/ccQTa6xL.s:438    .text:00000124 .Loc.106
     /tmp/ccQTa6xL.s:445    .text:00000128 .Loc.107
     /tmp/ccQTa6xL.s:450    .text:0000012c .Loc.108
     /tmp/ccQTa6xL.s:453    .text:0000012c .Loc.109
     /tmp/ccQTa6xL.s:456    .text:0000012c .Loc.110
     /tmp/ccQTa6xL.s:458    .text:0000012c .Loc.111
     /tmp/ccQTa6xL.s:466    .text:00000132 .Loc.112
     /tmp/ccQTa6xL.s:470    .text:00000132 .Loc.113
     /tmp/ccQTa6xL.s:471    .text:00000132 .Loc.114
     /tmp/ccQTa6xL.s:474    .text:00000134 .Loc.115
     /tmp/ccQTa6xL.s:478    .text:00000138 .Loc.116
     /tmp/ccQTa6xL.s:481    .text:00000138 .Loc.117
     /tmp/ccQTa6xL.s:483    .text:0000013a .Loc.118
     /tmp/ccQTa6xL.s:487    .text:0000013a .Loc.119
     /tmp/ccQTa6xL.s:489    .text:0000013a .Loc.120
     /tmp/ccQTa6xL.s:490    .text:0000013a .Loc.121
     /tmp/ccQTa6xL.s:491    .text:0000013a .Loc.122
     /tmp/ccQTa6xL.s:492    .text:0000013a .Loc.123
     /tmp/ccQTa6xL.s:493    .text:0000013a .Loc.124
     /tmp/ccQTa6xL.s:494    .text:0000013a .Loc.125
     /tmp/ccQTa6xL.s:497    .text:0000013a .Loc.126
     /tmp/ccQTa6xL.s:504    .text:0000013e .Loc.127
     /tmp/ccQTa6xL.s:509    .text:00000142 .Loc.128
     /tmp/ccQTa6xL.s:512    .text:00000142 .Loc.129
     /tmp/ccQTa6xL.s:515    .text:00000142 .Loc.130
     /tmp/ccQTa6xL.s:517    .text:00000142 .Loc.131
     /tmp/ccQTa6xL.s:525    .text:00000148 .Loc.132
     /tmp/ccQTa6xL.s:529    .text:00000148 .Loc.133
     /tmp/ccQTa6xL.s:530    .text:00000148 .Loc.134
     /tmp/ccQTa6xL.s:533    .text:0000014a .Loc.135
     /tmp/ccQTa6xL.s:537    .text:0000014e .Loc.136
     /tmp/ccQTa6xL.s:542    .text:0000014e .Loc.137
     /tmp/ccQTa6xL.s:543    .text:0000014e .Loc.138
     /tmp/ccQTa6xL.s:546    .text:0000014e .Loc.139
     /tmp/ccQTa6xL.s:548    .text:0000014e .Loc.140
     /tmp/ccQTa6xL.s:552    .text:00000154 .Loc.141
     /tmp/ccQTa6xL.s:556    .text:0000015a .Loc.142
     /tmp/ccQTa6xL.s:560    .text:00000160 .Loc.143
     /tmp/ccQTa6xL.s:564    .text:00000166 .Loc.144
     /tmp/ccQTa6xL.s:568    .text:0000016c .Loc.145
     /tmp/ccQTa6xL.s:572    .text:00000172 .Loc.146
     /tmp/ccQTa6xL.s:576    .text:00000178 .Loc.147
     /tmp/ccQTa6xL.s:580    .text:0000017e .Loc.148
     /tmp/ccQTa6xL.s:584    .text:00000184 .Loc.149
     /tmp/ccQTa6xL.s:588    .text:0000018a .Loc.150
     /tmp/ccQTa6xL.s:592    .text:00000190 .Loc.151
     /tmp/ccQTa6xL.s:596    .text:00000196 .Loc.152
     /tmp/ccQTa6xL.s:600    .text:0000019c .Loc.153
     /tmp/ccQTa6xL.s:604    .text:000001a2 .Loc.154
     /tmp/ccQTa6xL.s:608    .text:000001a8 .Loc.155
     /tmp/ccQTa6xL.s:612    .text:000001ae .Loc.156
     /tmp/ccQTa6xL.s:616    .text:000001b4 .Loc.157
     /tmp/ccQTa6xL.s:620    .text:000001ba .Loc.158
     /tmp/ccQTa6xL.s:624    .text:000001c0 .Loc.159
     /tmp/ccQTa6xL.s:628    .text:000001c6 .Loc.160
     /tmp/ccQTa6xL.s:632    .text:000001cc .Loc.161
     /tmp/ccQTa6xL.s:636    .text:000001d2 .Loc.162
     /tmp/ccQTa6xL.s:640    .text:000001d8 .Loc.163
     /tmp/ccQTa6xL.s:644    .text:000001de .Loc.164
     /tmp/ccQTa6xL.s:648    .text:000001e4 .Loc.165
     /tmp/ccQTa6xL.s:652    .text:000001ea .Loc.166
     /tmp/ccQTa6xL.s:656    .text:000001f0 .Loc.167
     /tmp/ccQTa6xL.s:660    .text:000001f6 .Loc.168
     /tmp/ccQTa6xL.s:664    .text:000001fc .Loc.169
     /tmp/ccQTa6xL.s:668    .text:00000202 .Loc.170
     /tmp/ccQTa6xL.s:672    .text:00000208 .Loc.171
     /tmp/ccQTa6xL.s:676    .text:0000020e .Loc.172
     /tmp/ccQTa6xL.s:680    .text:00000214 .Loc.173
     /tmp/ccQTa6xL.s:684    .text:0000021a .Loc.174
     /tmp/ccQTa6xL.s:688    .text:00000220 .Loc.175
     /tmp/ccQTa6xL.s:692    .text:00000226 .Loc.176
     /tmp/ccQTa6xL.s:696    .text:0000022c .Loc.177
     /tmp/ccQTa6xL.s:700    .text:00000232 .Loc.178
     /tmp/ccQTa6xL.s:704    .text:00000238 .Loc.179
     /tmp/ccQTa6xL.s:708    .text:0000023e .Loc.180
     /tmp/ccQTa6xL.s:712    .text:00000244 .Loc.181
     /tmp/ccQTa6xL.s:716    .text:0000024a .Loc.182
     /tmp/ccQTa6xL.s:720    .text:00000250 .Loc.183
     /tmp/ccQTa6xL.s:724    .text:00000256 .Loc.184
     /tmp/ccQTa6xL.s:728    .text:0000025c .Loc.185
     /tmp/ccQTa6xL.s:732    .text:00000262 .Loc.186
     /tmp/ccQTa6xL.s:736    .text:00000268 .Loc.187
     /tmp/ccQTa6xL.s:740    .text:0000026e .Loc.188
     /tmp/ccQTa6xL.s:744    .text:00000274 .Loc.189
     /tmp/ccQTa6xL.s:748    .text:0000027a .Loc.190
     /tmp/ccQTa6xL.s:752    .text:00000280 .Loc.191
     /tmp/ccQTa6xL.s:756    .text:00000286 .Loc.192
     /tmp/ccQTa6xL.s:760    .text:0000028c .Loc.193
     /tmp/ccQTa6xL.s:764    .text:00000292 .Loc.194
     /tmp/ccQTa6xL.s:768    .text:00000298 .Loc.195
     /tmp/ccQTa6xL.s:772    .text:0000029e .Loc.196
     /tmp/ccQTa6xL.s:776    .text:000002a4 .Loc.197
     /tmp/ccQTa6xL.s:780    .text:000002aa .Loc.198
     /tmp/ccQTa6xL.s:784    .text:000002b0 .Loc.199
     /tmp/ccQTa6xL.s:788    .text:000002b6 .Loc.200
     /tmp/ccQTa6xL.s:792    .text:000002bc .Loc.201
     /tmp/ccQTa6xL.s:796    .text:000002c2 .Loc.202
     /tmp/ccQTa6xL.s:800    .text:000002c8 .Loc.203
     /tmp/ccQTa6xL.s:804    .text:000002ce .Loc.204
     /tmp/ccQTa6xL.s:808    .text:000002d4 .Loc.205
     /tmp/ccQTa6xL.s:812    .text:000002da .Loc.206
     /tmp/ccQTa6xL.s:816    .text:000002e0 .Loc.207
     /tmp/ccQTa6xL.s:820    .text:000002e6 .Loc.208
     /tmp/ccQTa6xL.s:824    .text:000002ec .Loc.209
     /tmp/ccQTa6xL.s:828    .text:000002f2 .Loc.210
     /tmp/ccQTa6xL.s:832    .text:000002f8 .Loc.211
     /tmp/ccQTa6xL.s:836    .text:000002fe .Loc.212
     /tmp/ccQTa6xL.s:840    .text:00000304 .Loc.213
     /tmp/ccQTa6xL.s:844    .text:0000030a .Loc.214
     /tmp/ccQTa6xL.s:848    .text:00000310 .Loc.215
     /tmp/ccQTa6xL.s:852    .text:00000316 .Loc.216
     /tmp/ccQTa6xL.s:856    .text:0000031c .Loc.217
     /tmp/ccQTa6xL.s:860    .text:00000322 .Loc.218
     /tmp/ccQTa6xL.s:864    .text:00000328 .Loc.219
     /tmp/ccQTa6xL.s:868    .text:0000032e .Loc.220
     /tmp/ccQTa6xL.s:872    .text:00000334 .Loc.221
     /tmp/ccQTa6xL.s:876    .text:0000033a .Loc.222
     /tmp/ccQTa6xL.s:880    .text:00000340 .Loc.223
     /tmp/ccQTa6xL.s:884    .text:00000346 .Loc.224
     /tmp/ccQTa6xL.s:888    .text:0000034c .Loc.225
     /tmp/ccQTa6xL.s:892    .text:00000352 .Loc.226
     /tmp/ccQTa6xL.s:898    .text:00000358 .Loc.227
     /tmp/ccQTa6xL.s:901    .text:00000358 .Loc.228
     /tmp/ccQTa6xL.s:903    .text:00000358 .Loc.229
     /tmp/ccQTa6xL.s:904    .text:00000358 .Loc.230
     /tmp/ccQTa6xL.s:905    .text:00000358 .Loc.231
     /tmp/ccQTa6xL.s:909    .text:0000035e .Loc.232
     /tmp/ccQTa6xL.s:913    .text:00000364 .Loc.233
     /tmp/ccQTa6xL.s:917    .text:0000036a .Loc.234
     /tmp/ccQTa6xL.s:921    .text:00000370 .Loc.235
     /tmp/ccQTa6xL.s:925    .text:00000376 .Loc.236
     /tmp/ccQTa6xL.s:930    .text:00000376 .Loc.237
     /tmp/ccQTa6xL.s:935    .text:00000376 .Loc.238
     /tmp/ccQTa6xL.s:944    .text:0000037a .Loc.239
     /tmp/ccQTa6xL.s:949    .text:0000037e .Loc.240
     /tmp/ccQTa6xL.s:952    .text:0000037e .Loc.241
     /tmp/ccQTa6xL.s:955    .text:0000037e .Loc.242
     /tmp/ccQTa6xL.s:957    .text:0000037e .Loc.243
     /tmp/ccQTa6xL.s:965    .text:00000384 .Loc.244
     /tmp/ccQTa6xL.s:969    .text:00000384 .Loc.245
     /tmp/ccQTa6xL.s:970    .text:00000384 .Loc.246
     /tmp/ccQTa6xL.s:973    .text:00000386 .Loc.247
     /tmp/ccQTa6xL.s:977    .text:0000038a .Loc.248
     /tmp/ccQTa6xL.s:980    .text:0000038a .Loc.249
     /tmp/ccQTa6xL.s:984    .text:00000390 .Loc.250
     /tmp/ccQTa6xL.s:987    .text:00000390 .Loc.251
     /tmp/ccQTa6xL.s:989    .text:00000390 .Loc.252
     /tmp/ccQTa6xL.s:990    .text:00000390 .Loc.253
     /tmp/ccQTa6xL.s:991    .text:00000390 .Loc.254
     /tmp/ccQTa6xL.s:992    .text:00000390 .Loc.255
     /tmp/ccQTa6xL.s:993    .text:00000390 .Loc.256
     /tmp/ccQTa6xL.s:994    .text:00000390 .Loc.257
     /tmp/ccQTa6xL.s:997    .text:00000390 .Loc.258
     /tmp/ccQTa6xL.s:1004   .text:00000394 .Loc.259
     /tmp/ccQTa6xL.s:1009   .text:00000398 .Loc.260
     /tmp/ccQTa6xL.s:1012   .text:00000398 .Loc.261
     /tmp/ccQTa6xL.s:1015   .text:00000398 .Loc.262
     /tmp/ccQTa6xL.s:1017   .text:00000398 .Loc.263
     /tmp/ccQTa6xL.s:1025   .text:0000039e .Loc.264
     /tmp/ccQTa6xL.s:1029   .text:0000039e .Loc.265
     /tmp/ccQTa6xL.s:1030   .text:0000039e .Loc.266
     /tmp/ccQTa6xL.s:1033   .text:000003a0 .Loc.267
     /tmp/ccQTa6xL.s:1037   .text:000003a4 .Loc.268
     /tmp/ccQTa6xL.s:1040   .text:000003a4 .Loc.269
     /tmp/ccQTa6xL.s:1044   .text:000003aa .Loc.270
     /tmp/ccQTa6xL.s:1055   .text:000003be .Loc.271
     /tmp/ccQTa6xL.s:1057   .text:000003be .Loc.272
     /tmp/ccQTa6xL.s:1058   .text:000003be .Loc.273
     /tmp/ccQTa6xL.s:1060   .text:000003be .Loc.274
     /tmp/ccQTa6xL.s:1085   .progmem.data:00000000 __c.0
     /tmp/ccQTa6xL.s:1069   .text:000003ca .Loc.275
     /tmp/ccQTa6xL.s:1077   .text:000003d2 .Loc.276
     /tmp/ccQTa6xL.s:1079   .text:000003d4 L0
     /tmp/ccQTa6xL.s:1094   .text:000003d4 L0
                     .debug_frame:00000000 L0
     /tmp/ccQTa6xL.s:308    .text:000000f4 .L8
     /tmp/ccQTa6xL.s:275    .text:000000d8 .L6
     /tmp/ccQTa6xL.s:235    .text:000000b2 .L5
     /tmp/ccQTa6xL.s:297    .text:000000ea .L7
     /tmp/ccQTa6xL.s:403    .text:00000118 .L11
     /tmp/ccQTa6xL.s:390    .text:00000116 .L10
     /tmp/ccQTa6xL.s:462    .text:0000012e .L12
     /tmp/ccQTa6xL.s:449    .text:0000012c .L11
     /tmp/ccQTa6xL.s:521    .text:00000144 .L13
     /tmp/ccQTa6xL.s:508    .text:00000142 .L12
     /tmp/ccQTa6xL.s:961    .text:00000380 .L14
     /tmp/ccQTa6xL.s:948    .text:0000037e .L13
     /tmp/ccQTa6xL.s:1021   .text:0000039a .L15
     /tmp/ccQTa6xL.s:1008   .text:00000398 .L14
     /tmp/ccQTa6xL.s:3036   .debug_abbrev:00000000 .Ldebug_abbrev0
     /tmp/ccQTa6xL.s:8      .text:00000000 .Ltext0
     /tmp/ccQTa6xL.s:1088   .text:000003d4 .Letext0
     /tmp/ccQTa6xL.s:4794   .debug_line:00000000 .Ldebug_line0
     /tmp/ccQTa6xL.s:99     .text:00000028 .LFB24
     /tmp/ccQTa6xL.s:314    .text:000000fa .LFE24
     /tmp/ccQTa6xL.s:3815   .debug_loclists:00000012 .LLST2
     /tmp/ccQTa6xL.s:3808   .debug_loclists:0000000c .LVUS2
     /tmp/ccQTa6xL.s:3852   .debug_loclists:00000038 .LLST3
     /tmp/ccQTa6xL.s:3845   .debug_loclists:00000032 .LVUS3
     /tmp/ccQTa6xL.s:3891   .debug_loclists:00000060 .LLST4
     /tmp/ccQTa6xL.s:3882   .debug_loclists:00000058 .LVUS4
     /tmp/ccQTa6xL.s:3940   .debug_loclists:00000094 .LLST5
     /tmp/ccQTa6xL.s:3931   .debug_loclists:0000008c .LVUS5
     /tmp/ccQTa6xL.s:3987   .debug_loclists:000000c6 .LLST6
     /tmp/ccQTa6xL.s:3980   .debug_loclists:000000c0 .LVUS6
     /tmp/ccQTa6xL.s:4020   .debug_loclists:000000ea .LLST7
     /tmp/ccQTa6xL.s:4017   .debug_loclists:000000e8 .LVUS7
     /tmp/ccQTa6xL.s:4037   .debug_loclists:000000fb .LLST8
     /tmp/ccQTa6xL.s:4032   .debug_loclists:000000f7 .LVUS8
     /tmp/ccQTa6xL.s:159    .text:00000050 .LBI58
     /tmp/ccQTa6xL.s:158    .text:00000050 .LBB58
     /tmp/ccQTa6xL.s:230    .text:000000ae .LBE58
     /tmp/ccQTa6xL.s:4062   .debug_loclists:00000116 .LLST9
     /tmp/ccQTa6xL.s:4059   .debug_loclists:00000114 .LVUS9
     /tmp/ccQTa6xL.s:4077   .debug_loclists:00000124 .LLST10
     /tmp/ccQTa6xL.s:4074   .debug_loclists:00000122 .LVUS10
     /tmp/ccQTa6xL.s:4092   .debug_loclists:00000132 .LLST11
     /tmp/ccQTa6xL.s:4089   .debug_loclists:00000130 .LVUS11
     /tmp/ccQTa6xL.s:4107   .debug_loclists:00000140 .LLST12
     /tmp/ccQTa6xL.s:4104   .debug_loclists:0000013e .LVUS12
     /tmp/ccQTa6xL.s:4122   .debug_loclists:0000014e .LLST13
     /tmp/ccQTa6xL.s:4119   .debug_loclists:0000014c .LVUS13
     /tmp/ccQTa6xL.s:4137   .debug_loclists:0000015c .LLST14
     /tmp/ccQTa6xL.s:4134   .debug_loclists:0000015a .LVUS14
     /tmp/ccQTa6xL.s:184    .text:0000006e .LVL12
     /tmp/ccQTa6xL.s:188    .text:00000074 .LVL13
     /tmp/ccQTa6xL.s:192    .text:0000007a .LVL14
     /tmp/ccQTa6xL.s:196    .text:00000080 .LVL15
     /tmp/ccQTa6xL.s:200    .text:00000086 .LVL16
     /tmp/ccQTa6xL.s:204    .text:0000008c .LVL17
     /tmp/ccQTa6xL.s:208    .text:00000092 .LVL18
     /tmp/ccQTa6xL.s:212    .text:00000098 .LVL19
     /tmp/ccQTa6xL.s:216    .text:0000009e .LVL20
     /tmp/ccQTa6xL.s:220    .text:000000a4 .LVL21
     /tmp/ccQTa6xL.s:224    .text:000000aa .LVL22
     /tmp/ccQTa6xL.s:242    .text:000000b8 .LBI60
     /tmp/ccQTa6xL.s:241    .text:000000b8 .LBB60
     /tmp/ccQTa6xL.s:249    .text:000000ba .LBE60
     /tmp/ccQTa6xL.s:278    .text:000000d8 .LBI62
     /tmp/ccQTa6xL.s:277    .text:000000d8 .LBB62
     /tmp/ccQTa6xL.s:291    .text:000000e4 .LBE62
     /tmp/ccQTa6xL.s:4152   .debug_loclists:0000016a .LLST15
     /tmp/ccQTa6xL.s:4149   .debug_loclists:00000168 .LVUS15
     /tmp/ccQTa6xL.s:284    .text:000000de .LVL29
     /tmp/ccQTa6xL.s:288    .text:000000e4 .LVL30
     /tmp/ccQTa6xL.s:156    .text:00000050 .LVL9
     /tmp/ccQTa6xL.s:320    .text:000000fa .LFB23
     /tmp/ccQTa6xL.s:1080   .text:000003d4 .LFE23
     /tmp/ccQTa6xL.s:4169   .debug_loclists:0000017b .LLST16
     /tmp/ccQTa6xL.s:4164   .debug_loclists:00000177 .LVUS16
     /tmp/ccQTa6xL.s:4191   .debug_loclists:00000193 .LLST17
     /tmp/ccQTa6xL.s:4184   .debug_loclists:0000018d .LVUS17
     /tmp/ccQTa6xL.s:1056   .text:000003be .LBB143
     /tmp/ccQTa6xL.s:1059   .text:000003be .LBE143
     /tmp/ccQTa6xL.s:337    .text:00000100 .LBI93
     /tmp/ccQTa6xL.s:336    .text:00000100 .LBB93
     /tmp/ccQTa6xL.s:352    .text:00000108 .LBE93
     /tmp/ccQTa6xL.s:358    .text:0000010c .LBI95
     /tmp/ccQTa6xL.s:357    .text:0000010c .LBB95
     /tmp/ccQTa6xL.s:541    .text:0000014e .LBE95
     /tmp/ccQTa6xL.s:366    .text:0000010e .LBI97
     /tmp/ccQTa6xL.s:4704   .debug_rnglists:0000000c .LLRL18
     /tmp/ccQTa6xL.s:4224   .debug_loclists:000001b8 .LLST19
     /tmp/ccQTa6xL.s:4221   .debug_loclists:000001b6 .LVUS19
     /tmp/ccQTa6xL.s:4236   .debug_loclists:000001c7 .LLST20
     /tmp/ccQTa6xL.s:4233   .debug_loclists:000001c5 .LVUS20
     /tmp/ccQTa6xL.s:4254   .debug_loclists:000001dc .LLST21
     /tmp/ccQTa6xL.s:4245   .debug_loclists:000001d4 .LVUS21
     /tmp/ccQTa6xL.s:396    .text:00000116 .LBI99
     /tmp/ccQTa6xL.s:4712   .debug_rnglists:00000017 .LLRL22
     /tmp/ccQTa6xL.s:4293   .debug_loclists:0000020a .LLST23
     /tmp/ccQTa6xL.s:4290   .debug_loclists:00000208 .LVUS23
     /tmp/ccQTa6xL.s:427    .text:00000124 .LBI105
     /tmp/ccQTa6xL.s:4720   .debug_rnglists:00000022 .LLRL24
     /tmp/ccQTa6xL.s:4305   .debug_loclists:00000217 .LLST25
     /tmp/ccQTa6xL.s:4302   .debug_loclists:00000215 .LVUS25
     /tmp/ccQTa6xL.s:4317   .debug_loclists:00000226 .LLST26
     /tmp/ccQTa6xL.s:4314   .debug_loclists:00000224 .LVUS26
     /tmp/ccQTa6xL.s:4335   .debug_loclists:0000023b .LLST27
     /tmp/ccQTa6xL.s:4326   .debug_loclists:00000233 .LVUS27
     /tmp/ccQTa6xL.s:455    .text:0000012c .LBI107
     /tmp/ccQTa6xL.s:4728   .debug_rnglists:0000002d .LLRL28
     /tmp/ccQTa6xL.s:4374   .debug_loclists:00000269 .LLST29
     /tmp/ccQTa6xL.s:4371   .debug_loclists:00000267 .LVUS29
     /tmp/ccQTa6xL.s:486    .text:0000013a .LBI113
     /tmp/ccQTa6xL.s:4736   .debug_rnglists:00000038 .LLRL30
     /tmp/ccQTa6xL.s:4386   .debug_loclists:00000276 .LLST31
     /tmp/ccQTa6xL.s:4383   .debug_loclists:00000274 .LVUS31
     /tmp/ccQTa6xL.s:4398   .debug_loclists:00000285 .LLST32
     /tmp/ccQTa6xL.s:4395   .debug_loclists:00000283 .LVUS32
     /tmp/ccQTa6xL.s:4416   .debug_loclists:0000029a .LLST33
     /tmp/ccQTa6xL.s:4407   .debug_loclists:00000292 .LVUS33
     /tmp/ccQTa6xL.s:514    .text:00000142 .LBI115
     /tmp/ccQTa6xL.s:4744   .debug_rnglists:00000043 .LLRL34
     /tmp/ccQTa6xL.s:4455   .debug_loclists:000002c8 .LLST35
     /tmp/ccQTa6xL.s:4452   .debug_loclists:000002c6 .LVUS35
     /tmp/ccQTa6xL.s:545    .text:0000014e .LBI121
     /tmp/ccQTa6xL.s:544    .text:0000014e .LBB121
     /tmp/ccQTa6xL.s:897    .text:00000358 .LBE121
     /tmp/ccQTa6xL.s:551    .text:00000154 .LVL51
     /tmp/ccQTa6xL.s:555    .text:0000015a .LVL52
     /tmp/ccQTa6xL.s:559    .text:00000160 .LVL53
     /tmp/ccQTa6xL.s:563    .text:00000166 .LVL54
     /tmp/ccQTa6xL.s:567    .text:0000016c .LVL55
     /tmp/ccQTa6xL.s:571    .text:00000172 .LVL56
     /tmp/ccQTa6xL.s:575    .text:00000178 .LVL57
     /tmp/ccQTa6xL.s:579    .text:0000017e .LVL58
     /tmp/ccQTa6xL.s:583    .text:00000184 .LVL59
     /tmp/ccQTa6xL.s:587    .text:0000018a .LVL60
     /tmp/ccQTa6xL.s:591    .text:00000190 .LVL61
     /tmp/ccQTa6xL.s:595    .text:00000196 .LVL62
     /tmp/ccQTa6xL.s:599    .text:0000019c .LVL63
     /tmp/ccQTa6xL.s:603    .text:000001a2 .LVL64
     /tmp/ccQTa6xL.s:607    .text:000001a8 .LVL65
     /tmp/ccQTa6xL.s:611    .text:000001ae .LVL66
     /tmp/ccQTa6xL.s:615    .text:000001b4 .LVL67
     /tmp/ccQTa6xL.s:619    .text:000001ba .LVL68
     /tmp/ccQTa6xL.s:623    .text:000001c0 .LVL69
     /tmp/ccQTa6xL.s:627    .text:000001c6 .LVL70
     /tmp/ccQTa6xL.s:631    .text:000001cc .LVL71
     /tmp/ccQTa6xL.s:635    .text:000001d2 .LVL72
     /tmp/ccQTa6xL.s:639    .text:000001d8 .LVL73
     /tmp/ccQTa6xL.s:643    .text:000001de .LVL74
     /tmp/ccQTa6xL.s:647    .text:000001e4 .LVL75
     /tmp/ccQTa6xL.s:651    .text:000001ea .LVL76
     /tmp/ccQTa6xL.s:655    .text:000001f0 .LVL77
     /tmp/ccQTa6xL.s:659    .text:000001f6 .LVL78
     /tmp/ccQTa6xL.s:663    .text:000001fc .LVL79
     /tmp/ccQTa6xL.s:667    .text:00000202 .LVL80
     /tmp/ccQTa6xL.s:671    .text:00000208 .LVL81
     /tmp/ccQTa6xL.s:675    .text:0000020e .LVL82
     /tmp/ccQTa6xL.s:679    .text:00000214 .LVL83
     /tmp/ccQTa6xL.s:683    .text:0000021a .LVL84
     /tmp/ccQTa6xL.s:687    .text:00000220 .LVL85
     /tmp/ccQTa6xL.s:691    .text:00000226 .LVL86
     /tmp/ccQTa6xL.s:695    .text:0000022c .LVL87
     /tmp/ccQTa6xL.s:699    .text:00000232 .LVL88
     /tmp/ccQTa6xL.s:703    .text:00000238 .LVL89
     /tmp/ccQTa6xL.s:707    .text:0000023e .LVL90
     /tmp/ccQTa6xL.s:711    .text:00000244 .LVL91
     /tmp/ccQTa6xL.s:715    .text:0000024a .LVL92
     /tmp/ccQTa6xL.s:719    .text:00000250 .LVL93
     /tmp/ccQTa6xL.s:723    .text:00000256 .LVL94
     /tmp/ccQTa6xL.s:727    .text:0000025c .LVL95
     /tmp/ccQTa6xL.s:731    .text:00000262 .LVL96
     /tmp/ccQTa6xL.s:735    .text:00000268 .LVL97
     /tmp/ccQTa6xL.s:739    .text:0000026e .LVL98
     /tmp/ccQTa6xL.s:743    .text:00000274 .LVL99
     /tmp/ccQTa6xL.s:747    .text:0000027a .LVL100
     /tmp/ccQTa6xL.s:751    .text:00000280 .LVL101
     /tmp/ccQTa6xL.s:755    .text:00000286 .LVL102
     /tmp/ccQTa6xL.s:759    .text:0000028c .LVL103
     /tmp/ccQTa6xL.s:763    .text:00000292 .LVL104
     /tmp/ccQTa6xL.s:767    .text:00000298 .LVL105
     /tmp/ccQTa6xL.s:771    .text:0000029e .LVL106
     /tmp/ccQTa6xL.s:775    .text:000002a4 .LVL107
     /tmp/ccQTa6xL.s:779    .text:000002aa .LVL108
     /tmp/ccQTa6xL.s:783    .text:000002b0 .LVL109
     /tmp/ccQTa6xL.s:787    .text:000002b6 .LVL110
     /tmp/ccQTa6xL.s:791    .text:000002bc .LVL111
     /tmp/ccQTa6xL.s:795    .text:000002c2 .LVL112
     /tmp/ccQTa6xL.s:799    .text:000002c8 .LVL113
     /tmp/ccQTa6xL.s:803    .text:000002ce .LVL114
     /tmp/ccQTa6xL.s:807    .text:000002d4 .LVL115
     /tmp/ccQTa6xL.s:811    .text:000002da .LVL116
     /tmp/ccQTa6xL.s:815    .text:000002e0 .LVL117
     /tmp/ccQTa6xL.s:819    .text:000002e6 .LVL118
     /tmp/ccQTa6xL.s:823    .text:000002ec .LVL119
     /tmp/ccQTa6xL.s:827    .text:000002f2 .LVL120
     /tmp/ccQTa6xL.s:831    .text:000002f8 .LVL121
     /tmp/ccQTa6xL.s:835    .text:000002fe .LVL122
     /tmp/ccQTa6xL.s:839    .text:00000304 .LVL123
     /tmp/ccQTa6xL.s:843    .text:0000030a .LVL124
     /tmp/ccQTa6xL.s:847    .text:00000310 .LVL125
     /tmp/ccQTa6xL.s:851    .text:00000316 .LVL126
     /tmp/ccQTa6xL.s:855    .text:0000031c .LVL127
     /tmp/ccQTa6xL.s:859    .text:00000322 .LVL128
     /tmp/ccQTa6xL.s:863    .text:00000328 .LVL129
     /tmp/ccQTa6xL.s:867    .text:0000032e .LVL130
     /tmp/ccQTa6xL.s:871    .text:00000334 .LVL131
     /tmp/ccQTa6xL.s:875    .text:0000033a .LVL132
     /tmp/ccQTa6xL.s:879    .text:00000340 .LVL133
     /tmp/ccQTa6xL.s:883    .text:00000346 .LVL134
     /tmp/ccQTa6xL.s:887    .text:0000034c .LVL135
     /tmp/ccQTa6xL.s:891    .text:00000352 .LVL136
     /tmp/ccQTa6xL.s:895    .text:00000358 .LVL137
     /tmp/ccQTa6xL.s:900    .text:00000358 .LBI123
     /tmp/ccQTa6xL.s:4752   .debug_rnglists:0000004e .LLRL36
     /tmp/ccQTa6xL.s:4467   .debug_loclists:000002d5 .LLST37
     /tmp/ccQTa6xL.s:4464   .debug_loclists:000002d3 .LVUS37
     /tmp/ccQTa6xL.s:4478   .debug_loclists:000002e0 .LLST38
     /tmp/ccQTa6xL.s:4475   .debug_loclists:000002de .LVUS38
     /tmp/ccQTa6xL.s:4489   .debug_loclists:000002eb .LLST39
     /tmp/ccQTa6xL.s:4486   .debug_loclists:000002e9 .LVUS39
     /tmp/ccQTa6xL.s:908    .text:0000035e .LVL138
     /tmp/ccQTa6xL.s:912    .text:00000364 .LVL139
     /tmp/ccQTa6xL.s:916    .text:0000036a .LVL140
     /tmp/ccQTa6xL.s:920    .text:00000370 .LVL141
     /tmp/ccQTa6xL.s:924    .text:00000376 .LVL142
     /tmp/ccQTa6xL.s:4760   .debug_rnglists:00000059 .LLRL40
     /tmp/ccQTa6xL.s:4507   .debug_loclists:000002fd .LLST41
     /tmp/ccQTa6xL.s:4498   .debug_loclists:000002f5 .LVUS41
     /tmp/ccQTa6xL.s:954    .text:0000037e .LBI128
     /tmp/ccQTa6xL.s:4768   .debug_rnglists:00000064 .LLRL42
     /tmp/ccQTa6xL.s:4546   .debug_loclists:0000032b .LLST43
     /tmp/ccQTa6xL.s:4543   .debug_loclists:00000329 .LVUS43
     /tmp/ccQTa6xL.s:986    .text:00000390 .LBI135
     /tmp/ccQTa6xL.s:4776   .debug_rnglists:0000006f .LLRL44
     /tmp/ccQTa6xL.s:4558   .debug_loclists:00000338 .LLST45
     /tmp/ccQTa6xL.s:4555   .debug_loclists:00000336 .LVUS45
     /tmp/ccQTa6xL.s:4570   .debug_loclists:00000347 .LLST46
     /tmp/ccQTa6xL.s:4567   .debug_loclists:00000345 .LVUS46
     /tmp/ccQTa6xL.s:4588   .debug_loclists:0000035c .LLST47
     /tmp/ccQTa6xL.s:4579   .debug_loclists:00000354 .LVUS47
     /tmp/ccQTa6xL.s:1014   .text:00000398 .LBI137
     /tmp/ccQTa6xL.s:4784   .debug_rnglists:0000007a .LLRL48
     /tmp/ccQTa6xL.s:4627   .debug_loclists:0000038a .LLST49
     /tmp/ccQTa6xL.s:4624   .debug_loclists:00000388 .LVUS49
     /tmp/ccQTa6xL.s:355    .text:0000010c .LVL35
     /tmp/ccQTa6xL.s:983    .text:00000390 .LVL147
     /tmp/ccQTa6xL.s:1043   .text:000003aa .LVL152
     /tmp/ccQTa6xL.s:1054   .text:000003be .LVL153
     /tmp/ccQTa6xL.s:1068   .text:000003ca .LVL154
     /tmp/ccQTa6xL.s:14     .text:00000000 .LFB16
     /tmp/ccQTa6xL.s:50     .text:0000001a .LFE16
     /tmp/ccQTa6xL.s:4643   .debug_loclists:0000039b .LLST0
     /tmp/ccQTa6xL.s:4636   .debug_loclists:00000395 .LVUS0
     /tmp/ccQTa6xL.s:36     .text:0000000e .LVL2
     /tmp/ccQTa6xL.s:40     .text:00000014 .LVL3
     /tmp/ccQTa6xL.s:55     .text:0000001a .LFB15
     /tmp/ccQTa6xL.s:75     .text:00000026 .LFE15
     /tmp/ccQTa6xL.s:4668   .debug_loclists:000003b2 .LLST1
     /tmp/ccQTa6xL.s:4663   .debug_loclists:000003ae .LVUS1
     /tmp/ccQTa6xL.s:68     .text:00000022 .LVL6
     /tmp/ccQTa6xL.s:81     .text:00000026 .LFB22
     /tmp/ccQTa6xL.s:93     .text:00000028 .LFE22
     /tmp/ccQTa6xL.s:1095   .debug_info:00000000 .Ldebug_info0

UNDEFINED SYMBOLS
spi_xchg
spi_fast
log_boot_P
