   1               		.file	"emulator.c"
   2               	__SP_H__ = 0x3e
   3               	__SP_L__ = 0x3d
   4               	__SREG__ = 0x3f
   5               	__tmp_reg__ = 0
   6               	__zero_reg__ = 1
   7               		.text
   8               	.Ltext0:
   9               		.cfi_sections	.debug_frame
  10               		.file 0 "/home/files/osdev/platform/avr" "../../emulator/emulator.c"
  11               	.global	syscall_event_register
  13               	syscall_event_register:
  14               	.LVL0:
  15               	.LFB12:
  16               		.file 1 "../../emulator/emulator.c"
   1:../../emulator/emulator.c **** #include <types.h>
   2:../../emulator/emulator.c **** #include <platform.h>
   3:../../emulator/emulator.c **** #include <emulator.h>
   4:../../emulator/emulator.c **** 
   5:../../emulator/emulator.c **** #include <stdio.h>
   6:../../emulator/emulator.c **** #include <stdlib.h>
   7:../../emulator/emulator.c **** #include <string.h>
   8:../../emulator/emulator.c **** 
   9:../../emulator/emulator.c **** #include <time.h>
  10:../../emulator/emulator.c **** #include <util.h>
  11:../../emulator/emulator.c **** 
  12:../../emulator/emulator.c **** /* --- OPCODES --- */
  13:../../emulator/emulator.c **** #define OPCODE_LOAD   0x00
  14:../../emulator/emulator.c **** #define OPCODE_IMM    0x04
  15:../../emulator/emulator.c **** #define OPCODE_AUIPC  0x05 /* Add Upper Immediate to Program Counter */
  16:../../emulator/emulator.c **** #define OPCODE_STORE  0x08
  17:../../emulator/emulator.c **** #define OPCODE_REG    0x0C
  18:../../emulator/emulator.c **** #define OPCODE_LUI    0x0D /* Load Upper Immediate */
  19:../../emulator/emulator.c **** #define OPCODE_BRANCH 0x18
  20:../../emulator/emulator.c **** #define OPCODE_JALR   0x19 /* Jump and Link Register */
  21:../../emulator/emulator.c **** #define OPCODE_JAL    0x1B /* Jump and Link */
  22:../../emulator/emulator.c **** #define OPCODE_ECALL  0x1C
  23:../../emulator/emulator.c **** 
  24:../../emulator/emulator.c **** /**
  25:../../emulator/emulator.c ****  * @brief Sign extend
  26:../../emulator/emulator.c ****  *
  27:../../emulator/emulator.c ****  * @param bits
  28:../../emulator/emulator.c ****  * @param value
  29:../../emulator/emulator.c ****  * @return u32
  30:../../emulator/emulator.c ****  */
  31:../../emulator/emulator.c **** static inline u32 sext(u32 bits, u32 value)
  32:../../emulator/emulator.c **** {
  33:../../emulator/emulator.c **** 	u32 m = 1 << (bits - 1);
  34:../../emulator/emulator.c **** 	return (value ^ m) - m;
  35:../../emulator/emulator.c **** }
  36:../../emulator/emulator.c **** 
  37:../../emulator/emulator.c **** static bool _finished;
  38:../../emulator/emulator.c **** static Emulator _cur, *_emu = &_cur;
  39:../../emulator/emulator.c **** static bool _keys[KEY_COUNT];
  40:../../emulator/emulator.c **** static u32 _memory_size;
  41:../../emulator/emulator.c **** 
  42:../../emulator/emulator.c **** void kernel_init(void)
  43:../../emulator/emulator.c **** {
  44:../../emulator/emulator.c **** 	_memory_size = memory_size();
  45:../../emulator/emulator.c **** }
  46:../../emulator/emulator.c **** 
  47:../../emulator/emulator.c **** void process_setup(void)
  48:../../emulator/emulator.c **** {
  49:../../emulator/emulator.c **** 	emulator_call(_emu, 0, NULL, 0, _memory_size, 1000000);
  50:../../emulator/emulator.c **** }
  51:../../emulator/emulator.c **** 
  52:../../emulator/emulator.c **** void os_update(void)
  53:../../emulator/emulator.c **** {
  54:../../emulator/emulator.c **** 	u32 addr = _emu->Events[EVENT_LOOP];
  55:../../emulator/emulator.c **** 	if(addr)
  56:../../emulator/emulator.c **** 	{
  57:../../emulator/emulator.c **** 		emulator_call(_emu, addr, NULL, 0, _memory_size, 1000000);
  58:../../emulator/emulator.c **** 	}
  59:../../emulator/emulator.c **** }
  60:../../emulator/emulator.c **** 
  61:../../emulator/emulator.c **** u32 syscall_event_register(u32 *args)
  62:../../emulator/emulator.c **** {
  17               		.loc 1 62 1 view -0
  18               		.cfi_startproc
  19               	/* prologue: function */
  20               	/* frame size = 0 */
  21               	/* stack size = 0 */
  22               	.L__stack_usage = 0
  23               		.loc 1 62 1 is_stmt 0 view .LVU1
  24 0000 FC01      		movw r30,r24
  63:../../emulator/emulator.c **** 	u32 type = args[0];
  25               		.loc 1 63 2 is_stmt 1 view .LVU2
  26               		.loc 1 63 6 is_stmt 0 view .LVU3
  27 0002 8081      		ld r24,Z
  28 0004 9181      		ldd r25,Z+1
  29 0006 A281      		ldd r26,Z+2
  30 0008 B381      		ldd r27,Z+3
  31               	.LVL1:
  64:../../emulator/emulator.c **** 	u32 addr = args[1];
  32               		.loc 1 64 2 is_stmt 1 view .LVU4
  65:../../emulator/emulator.c **** 	if(type < EVENT_COUNT)
  33               		.loc 1 65 2 view .LVU5
  34               		.loc 1 65 4 is_stmt 0 view .LVU6
  35 000a 8230      		cpi r24,2
  36 000c 9105      		cpc r25,__zero_reg__
  37 000e A105      		cpc r26,__zero_reg__
  38 0010 B105      		cpc r27,__zero_reg__
  39 0012 00F4      		brsh .L2
  64:../../emulator/emulator.c **** 	u32 addr = args[1];
  40               		.loc 1 64 6 view .LVU7
  41 0014 4481      		ldd r20,Z+4
  42 0016 5581      		ldd r21,Z+5
  43 0018 6681      		ldd r22,Z+6
  44 001a 7781      		ldd r23,Z+7
  66:../../emulator/emulator.c **** 	{
  67:../../emulator/emulator.c **** 		_emu->Events[type] = addr;
  45               		.loc 1 67 3 is_stmt 1 view .LVU8
  46               		.loc 1 67 22 is_stmt 0 view .LVU9
  47 001c 880F      		lsl r24
  48 001e 991F      		rol r25
  49 0020 880F      		lsl r24
  50 0022 991F      		rol r25
  51               	.LVL2:
  52               		.loc 1 67 22 view .LVU10
  53 0024 FC01      		movw r30,r24
  54               	.LVL3:
  55               		.loc 1 67 22 view .LVU11
  56 0026 E050      		subi r30,lo8(-(_cur))
  57 0028 F040      		sbci r31,hi8(-(_cur))
  58 002a 4083      		st Z,r20
  59 002c 5183      		std Z+1,r21
  60 002e 6283      		std Z+2,r22
  61 0030 7383      		std Z+3,r23
  62               	.LVL4:
  63               	.L2:
  68:../../emulator/emulator.c **** 	}
  69:../../emulator/emulator.c **** 
  70:../../emulator/emulator.c **** 	return 0;
  64               		.loc 1 70 2 is_stmt 1 view .LVU12
  71:../../emulator/emulator.c **** }
  65               		.loc 1 71 1 is_stmt 0 view .LVU13
  66 0032 60E0      		ldi r22,0
  67 0034 70E0      		ldi r23,0
  68 0036 CB01      		movw r24,r22
  69               	/* epilogue start */
  70 0038 0895      		ret
  71               		.cfi_endproc
  72               	.LFE12:
  75               	syscall_finish:
  76               	.LVL5:
  77               	.LFB24:
  72:../../emulator/emulator.c **** 
  73:../../emulator/emulator.c **** void keyboard_event(Key key, i32 chr, KeyState down)
  74:../../emulator/emulator.c **** {
  75:../../emulator/emulator.c **** 	u32 addr = _emu->Events[EVENT_KEY];
  76:../../emulator/emulator.c **** 	if(addr)
  77:../../emulator/emulator.c **** 	{
  78:../../emulator/emulator.c **** 		u32 args[] = { key, chr, down };
  79:../../emulator/emulator.c **** 		emulator_call(_emu, addr, args, ARRLEN(args), _memory_size, 1000000);
  80:../../emulator/emulator.c **** 	}
  81:../../emulator/emulator.c **** 
  82:../../emulator/emulator.c **** 	key = key_mod_remove(key);
  83:../../emulator/emulator.c **** 	if(key >= KEY_COUNT)
  84:../../emulator/emulator.c **** 	{
  85:../../emulator/emulator.c **** 		return;
  86:../../emulator/emulator.c **** 	}
  87:../../emulator/emulator.c **** 
  88:../../emulator/emulator.c **** 	_keys[key] = down;
  89:../../emulator/emulator.c **** }
  90:../../emulator/emulator.c **** 
  91:../../emulator/emulator.c **** static bool keyboard_is_key_pressed(Key key)
  92:../../emulator/emulator.c **** {
  93:../../emulator/emulator.c **** 	if(key >= KEY_COUNT)
  94:../../emulator/emulator.c **** 	{
  95:../../emulator/emulator.c **** 		return false;
  96:../../emulator/emulator.c **** 	}
  97:../../emulator/emulator.c **** 
  98:../../emulator/emulator.c **** 	return _keys[key];
  99:../../emulator/emulator.c **** }
 100:../../emulator/emulator.c **** 
 101:../../emulator/emulator.c **** /* TODO: Paging/MProt */
 102:../../emulator/emulator.c **** 
 103:../../emulator/emulator.c **** /* Store */
 104:../../emulator/emulator.c **** static void memory_sb(u32 addr, u32 value)
 105:../../emulator/emulator.c **** {
 106:../../emulator/emulator.c **** 	i8 value8 = (i8)value;
 107:../../emulator/emulator.c **** 	memory_write(addr, &value8, 1);
 108:../../emulator/emulator.c **** }
 109:../../emulator/emulator.c **** 
 110:../../emulator/emulator.c **** static void memory_sh(u32 addr, u32 value)
 111:../../emulator/emulator.c **** {
 112:../../emulator/emulator.c **** 	i16 value16 = (i16)value;
 113:../../emulator/emulator.c **** 	memory_write(addr, &value16, 2);
 114:../../emulator/emulator.c **** }
 115:../../emulator/emulator.c **** 
 116:../../emulator/emulator.c **** static void memory_sw(u32 addr, u32 value)
 117:../../emulator/emulator.c **** {
 118:../../emulator/emulator.c **** 	memory_write(addr, &value, 4);
 119:../../emulator/emulator.c **** }
 120:../../emulator/emulator.c **** 
 121:../../emulator/emulator.c **** /* Load */
 122:../../emulator/emulator.c **** static u32 memory_lb(u32 addr)
 123:../../emulator/emulator.c **** {
 124:../../emulator/emulator.c **** 	i8 value8;
 125:../../emulator/emulator.c **** 	memory_read(addr, &value8, 1);
 126:../../emulator/emulator.c **** 	return (i32)value8;
 127:../../emulator/emulator.c **** }
 128:../../emulator/emulator.c **** 
 129:../../emulator/emulator.c **** static u32 memory_lh(u32 addr)
 130:../../emulator/emulator.c **** {
 131:../../emulator/emulator.c **** 	i16 value16;
 132:../../emulator/emulator.c **** 	memory_read(addr, &value16, 2);
 133:../../emulator/emulator.c **** 	return (i32)value16;
 134:../../emulator/emulator.c **** }
 135:../../emulator/emulator.c **** 
 136:../../emulator/emulator.c **** static u32 memory_lw(u32 addr)
 137:../../emulator/emulator.c **** {
 138:../../emulator/emulator.c **** 	u32 value;
 139:../../emulator/emulator.c **** 	memory_read(addr, &value, 4);
 140:../../emulator/emulator.c **** 	return value;
 141:../../emulator/emulator.c **** }
 142:../../emulator/emulator.c **** 
 143:../../emulator/emulator.c **** static u32 memory_lbu(u32 addr)
 144:../../emulator/emulator.c **** {
 145:../../emulator/emulator.c **** 	u8 value8;
 146:../../emulator/emulator.c **** 	memory_read(addr, &value8, 1);
 147:../../emulator/emulator.c **** 	return value8;
 148:../../emulator/emulator.c **** }
 149:../../emulator/emulator.c **** 
 150:../../emulator/emulator.c **** static u32 memory_lhu(u32 addr)
 151:../../emulator/emulator.c **** {
 152:../../emulator/emulator.c **** 	u16 value16;
 153:../../emulator/emulator.c **** 	memory_read(addr, &value16, 2);
 154:../../emulator/emulator.c **** 	return value16;
 155:../../emulator/emulator.c **** }
 156:../../emulator/emulator.c **** 
 157:../../emulator/emulator.c **** u32 syscall_exit(u32 *args)
 158:../../emulator/emulator.c **** {
 159:../../emulator/emulator.c **** 	/* Remove process from scheduler */
 160:../../emulator/emulator.c **** 
 161:../../emulator/emulator.c **** 	/* If init process, crash system */
 162:../../emulator/emulator.c **** 
 163:../../emulator/emulator.c **** 	/* TODO: We only have one process right now */
 164:../../emulator/emulator.c **** 	exit(args[0]);
 165:../../emulator/emulator.c **** 	return 0;
 166:../../emulator/emulator.c **** }
 167:../../emulator/emulator.c **** 
 168:../../emulator/emulator.c **** static u32 syscall_finish(u32 *args)
 169:../../emulator/emulator.c **** {
  78               		.loc 1 169 1 is_stmt 1 view -0
  79               		.cfi_startproc
  80               	/* prologue: function */
  81               	/* frame size = 0 */
  82               	/* stack size = 0 */
  83               	.L__stack_usage = 0
 170:../../emulator/emulator.c **** 	_finished = true;
  84               		.loc 1 170 2 view .LVU15
  85               		.loc 1 170 12 is_stmt 0 view .LVU16
  86 003a 81E0      		ldi r24,lo8(1)
  87               	.LVL6:
  88               		.loc 1 170 12 view .LVU17
  89 003c 8093 0000 		sts _finished,r24
 171:../../emulator/emulator.c **** 	return 0;
  90               		.loc 1 171 2 is_stmt 1 view .LVU18
 172:../../emulator/emulator.c **** 	(void)args;
  91               		.loc 1 172 2 view .LVU19
 173:../../emulator/emulator.c **** }
  92               		.loc 1 173 1 is_stmt 0 view .LVU20
  93 0040 60E0      		ldi r22,0
  94 0042 70E0      		ldi r23,0
  95 0044 CB01      		movw r24,r22
  96               	/* epilogue start */
  97 0046 0895      		ret
  98               		.cfi_endproc
  99               	.LFE24:
 101               	.global	syscall_keyboard_is_key_pressed
 103               	syscall_keyboard_is_key_pressed:
 104               	.LVL7:
 105               	.LFB28:
 174:../../emulator/emulator.c **** 
 175:../../emulator/emulator.c **** static u32 syscall_millis(u32 *args)
 176:../../emulator/emulator.c **** {
 177:../../emulator/emulator.c **** 	return millis();
 178:../../emulator/emulator.c **** 	(void)args;
 179:../../emulator/emulator.c **** }
 180:../../emulator/emulator.c **** 
 181:../../emulator/emulator.c **** static u32 syscall_datetime_now(u32 *args)
 182:../../emulator/emulator.c **** {
 183:../../emulator/emulator.c **** 	DateTime dt;
 184:../../emulator/emulator.c **** 	datetime_now(&dt);
 185:../../emulator/emulator.c **** 	memory_write(args[0], &dt, sizeof(dt));
 186:../../emulator/emulator.c **** 	return 0;
 187:../../emulator/emulator.c **** }
 188:../../emulator/emulator.c **** 
 189:../../emulator/emulator.c **** u32 syscall_rand(u32 *args)
 190:../../emulator/emulator.c **** {
 191:../../emulator/emulator.c **** 	return random_get();
 192:../../emulator/emulator.c **** 	(void)args;
 193:../../emulator/emulator.c **** }
 194:../../emulator/emulator.c **** 
 195:../../emulator/emulator.c **** u32 syscall_keyboard_is_key_pressed(u32 *args)
 196:../../emulator/emulator.c **** {
 106               		.loc 1 196 1 is_stmt 1 view -0
 107               		.cfi_startproc
 108               		.loc 1 196 1 is_stmt 0 view .LVU22
 109 0048 CF93      		push r28
 110               		.cfi_def_cfa_offset 3
 111               		.cfi_offset 28, -2
 112 004a DF93      		push r29
 113               		.cfi_def_cfa_offset 4
 114               		.cfi_offset 29, -3
 115 004c 00D0      		rcall .
 116 004e 00D0      		rcall .
 117               		.cfi_def_cfa_offset 8
 118 0050 CDB7      		in r28,__SP_L__
 119 0052 DEB7      		in r29,__SP_H__
 120               		.cfi_def_cfa_register 28
 121               	/* prologue: function */
 122               	/* frame size = 4 */
 123               	/* stack size = 6 */
 124               	.L__stack_usage = 6
 197:../../emulator/emulator.c **** 	return keyboard_is_key_pressed(args[0]);
 125               		.loc 1 197 2 is_stmt 1 view .LVU23
 126               		.loc 1 197 9 is_stmt 0 view .LVU24
 127 0054 FC01      		movw r30,r24
 128 0056 8081      		ld r24,Z
 129 0058 9181      		ldd r25,Z+1
 130 005a A281      		ldd r26,Z+2
 131 005c B381      		ldd r27,Z+3
 132               	.LVL8:
 133               	.LBB36:
 134               	.LBI36:
  91:../../emulator/emulator.c **** {
 135               		.loc 1 91 13 is_stmt 1 view .LVU25
 136               	.LBB37:
  93:../../emulator/emulator.c **** 	{
 137               		.loc 1 93 2 view .LVU26
  93:../../emulator/emulator.c **** 	{
 138               		.loc 1 93 4 is_stmt 0 view .LVU27
 139 005e 8D31      		cpi r24,29
 140 0060 F1E0      		ldi r31,1
 141 0062 9F07      		cpc r25,r31
 142 0064 A105      		cpc r26,__zero_reg__
 143 0066 B105      		cpc r27,__zero_reg__
 144 0068 00F4      		brsh .L6
  98:../../emulator/emulator.c **** }
 145               		.loc 1 98 2 is_stmt 1 view .LVU28
  98:../../emulator/emulator.c **** }
 146               		.loc 1 98 14 is_stmt 0 view .LVU29
 147 006a 8050      		subi r24,lo8(-(_keys))
 148 006c 9040      		sbci r25,hi8(-(_keys))
 149               	.LVL9:
  98:../../emulator/emulator.c **** }
 150               		.loc 1 98 14 view .LVU30
 151 006e FC01      		movw r30,r24
 152               	.LVL10:
  98:../../emulator/emulator.c **** }
 153               		.loc 1 98 14 view .LVU31
 154 0070 8081      		ld r24,Z
 155               	.L5:
 156               	.LVL11:
  98:../../emulator/emulator.c **** }
 157               		.loc 1 98 14 view .LVU32
 158               	.LBE37:
 159               	.LBE36:
 160               		.loc 1 197 9 view .LVU33
 161 0072 282F      		mov r18,r24
 162 0074 30E0      		ldi r19,0
 163 0076 40E0      		ldi r20,0
 164 0078 50E0      		ldi r21,0
 198:../../emulator/emulator.c **** }
 165               		.loc 1 198 1 view .LVU34
 166 007a CA01      		movw r24,r20
 167 007c B901      		movw r22,r18
 168               	/* epilogue start */
 169 007e 0F90      		pop __tmp_reg__
 170 0080 0F90      		pop __tmp_reg__
 171 0082 0F90      		pop __tmp_reg__
 172 0084 0F90      		pop __tmp_reg__
 173 0086 DF91      		pop r29
 174 0088 CF91      		pop r28
 175 008a 0895      		ret
 176               	.LVL12:
 177               	.L6:
 178               	.LBB39:
 179               	.LBB38:
  95:../../emulator/emulator.c **** 	}
 180               		.loc 1 95 10 view .LVU35
 181 008c 80E0      		ldi r24,0
 182               	.LVL13:
  95:../../emulator/emulator.c **** 	}
 183               		.loc 1 95 10 view .LVU36
 184 008e 00C0      		rjmp .L5
 185               	.LBE38:
 186               	.LBE39:
 187               		.cfi_endproc
 188               	.LFE28:
 190               	.global	syscall_exit
 192               	syscall_exit:
 193               	.LVL14:
 194               	.LFB23:
 158:../../emulator/emulator.c **** 	/* Remove process from scheduler */
 195               		.loc 1 158 1 is_stmt 1 view -0
 196               		.cfi_startproc
 197               	/* prologue: function */
 198               	/* frame size = 0 */
 199               	/* stack size = 0 */
 200               	.L__stack_usage = 0
 164:../../emulator/emulator.c **** 	return 0;
 201               		.loc 1 164 2 view .LVU38
 202 0090 FC01      		movw r30,r24
 203 0092 8081      		ld r24,Z
 204 0094 9181      		ldd r25,Z+1
 205               	.LVL15:
 164:../../emulator/emulator.c **** 	return 0;
 206               		.loc 1 164 2 is_stmt 0 view .LVU39
 207 0096 0E94 0000 		call exit
 208               	.LVL16:
 164:../../emulator/emulator.c **** 	return 0;
 209               		.loc 1 164 2 view .LVU40
 210               		.cfi_endproc
 211               	.LFE23:
 213               	.global	syscall_rand
 215               	syscall_rand:
 216               	.LVL17:
 217               	.LFB27:
 190:../../emulator/emulator.c **** 	return random_get();
 218               		.loc 1 190 1 is_stmt 1 view -0
 219               		.cfi_startproc
 220               	/* prologue: function */
 221               	/* frame size = 0 */
 222               	/* stack size = 0 */
 223               	.L__stack_usage = 0
 191:../../emulator/emulator.c **** 	(void)args;
 224               		.loc 1 191 2 view .LVU42
 191:../../emulator/emulator.c **** 	(void)args;
 225               		.loc 1 191 9 is_stmt 0 view .LVU43
 226 009a 0C94 0000 		jmp random_get
 227               	.LVL18:
 191:../../emulator/emulator.c **** 	(void)args;
 228               		.loc 1 191 9 view .LVU44
 229               		.cfi_endproc
 230               	.LFE27:
 232               	.global	syscall_serial_write
 234               	syscall_serial_write:
 235               	.LVL19:
 236               	.LFB29:
 199:../../emulator/emulator.c **** 
 200:../../emulator/emulator.c **** u32 syscall_serial_write(u32 *args)
 201:../../emulator/emulator.c **** {
 237               		.loc 1 201 1 is_stmt 1 view -0
 238               		.cfi_startproc
 239               		.loc 1 201 1 is_stmt 0 view .LVU46
 240 009e 8F92      		push r8
 241               		.cfi_def_cfa_offset 3
 242               		.cfi_offset 8, -2
 243 00a0 9F92      		push r9
 244               		.cfi_def_cfa_offset 4
 245               		.cfi_offset 9, -3
 246 00a2 AF92      		push r10
 247               		.cfi_def_cfa_offset 5
 248               		.cfi_offset 10, -4
 249 00a4 BF92      		push r11
 250               		.cfi_def_cfa_offset 6
 251               		.cfi_offset 11, -5
 252 00a6 CF92      		push r12
 253               		.cfi_def_cfa_offset 7
 254               		.cfi_offset 12, -6
 255 00a8 DF92      		push r13
 256               		.cfi_def_cfa_offset 8
 257               		.cfi_offset 13, -7
 258 00aa EF92      		push r14
 259               		.cfi_def_cfa_offset 9
 260               		.cfi_offset 14, -8
 261 00ac FF92      		push r15
 262               		.cfi_def_cfa_offset 10
 263               		.cfi_offset 15, -9
 264 00ae 0F93      		push r16
 265               		.cfi_def_cfa_offset 11
 266               		.cfi_offset 16, -10
 267 00b0 1F93      		push r17
 268               		.cfi_def_cfa_offset 12
 269               		.cfi_offset 17, -11
 270 00b2 CF93      		push r28
 271               		.cfi_def_cfa_offset 13
 272               		.cfi_offset 28, -12
 273 00b4 DF93      		push r29
 274               		.cfi_def_cfa_offset 14
 275               		.cfi_offset 29, -13
 276 00b6 CDB7      		in r28,__SP_L__
 277 00b8 DEB7      		in r29,__SP_H__
 278               		.cfi_def_cfa_register 28
 279 00ba C458      		subi r28,-124
 280 00bc D109      		sbc r29,__zero_reg__
 281               		.cfi_def_cfa_offset 146
 282 00be 0FB6      		in __tmp_reg__,__SREG__
 283 00c0 F894      		cli
 284 00c2 DEBF      		out __SP_H__,r29
 285 00c4 0FBE      		out __SREG__,__tmp_reg__
 286 00c6 CDBF      		out __SP_L__,r28
 287               	/* prologue: function */
 288               	/* frame size = 132 */
 289               	/* stack size = 144 */
 290               	.L__stack_usage = 144
 291 00c8 FC01      		movw r30,r24
 202:../../emulator/emulator.c **** 	u16 cur;
 292               		.loc 1 202 2 is_stmt 1 view .LVU47
 203:../../emulator/emulator.c **** 	u32 ptr = args[0];
 293               		.loc 1 203 2 view .LVU48
 294               		.loc 1 203 6 is_stmt 0 view .LVU49
 295 00ca 8081      		ld r24,Z
 296 00cc 9181      		ldd r25,Z+1
 297 00ce A281      		ldd r26,Z+2
 298 00d0 B381      		ldd r27,Z+3
 299               	.LVL20:
 300               		.loc 1 203 6 view .LVU50
 301 00d2 CF57      		subi r28,lo8(-129)
 302 00d4 DF4F      		sbci r29,hi8(-129)
 303 00d6 8883      		st Y,r24
 304 00d8 9983      		std Y+1,r25
 305 00da AA83      		std Y+2,r26
 306 00dc BB83      		std Y+3,r27
 307 00de C158      		subi r28,lo8(129)
 308 00e0 D040      		sbci r29,hi8(129)
 309               	.LVL21:
 204:../../emulator/emulator.c **** 	u32 len = args[1];
 310               		.loc 1 204 2 is_stmt 1 view .LVU51
 311               		.loc 1 204 6 is_stmt 0 view .LVU52
 312 00e2 8480      		ldd r8,Z+4
 313 00e4 9580      		ldd r9,Z+5
 314 00e6 A680      		ldd r10,Z+6
 315 00e8 B780      		ldd r11,Z+7
 316               	.LVL22:
 205:../../emulator/emulator.c **** 	u8 buf[128];
 317               		.loc 1 205 2 is_stmt 1 view .LVU53
 206:../../emulator/emulator.c **** 
 207:../../emulator/emulator.c **** 	while(len)
 318               		.loc 1 207 2 view .LVU54
 319               	.L10:
 320               		.loc 1 207 8 view .LVU55
 321 00ea 8114      		cp r8,__zero_reg__
 322 00ec 9104      		cpc r9,__zero_reg__
 323 00ee A104      		cpc r10,__zero_reg__
 324 00f0 B104      		cpc r11,__zero_reg__
 325 00f2 01F4      		brne .L12
 208:../../emulator/emulator.c **** 	{
 209:../../emulator/emulator.c **** 		cur = len > sizeof(buf) ? sizeof(buf) : len;
 210:../../emulator/emulator.c **** 		memory_read(ptr, buf, cur);
 211:../../emulator/emulator.c **** 		serial_write(buf, cur);
 212:../../emulator/emulator.c **** 		len -= cur;
 213:../../emulator/emulator.c **** 		ptr += cur;
 214:../../emulator/emulator.c **** 	}
 215:../../emulator/emulator.c **** 
 216:../../emulator/emulator.c **** 	return 0;
 326               		.loc 1 216 2 view .LVU56
 217:../../emulator/emulator.c **** }
 327               		.loc 1 217 1 is_stmt 0 view .LVU57
 328 00f4 60E0      		ldi r22,0
 329 00f6 70E0      		ldi r23,0
 330 00f8 CB01      		movw r24,r22
 331               	/* epilogue start */
 332 00fa CC57      		subi r28,124
 333 00fc DF4F      		sbci r29,-1
 334 00fe 0FB6      		in __tmp_reg__,__SREG__
 335 0100 F894      		cli
 336 0102 DEBF      		out __SP_H__,r29
 337 0104 0FBE      		out __SREG__,__tmp_reg__
 338 0106 CDBF      		out __SP_L__,r28
 339 0108 DF91      		pop r29
 340 010a CF91      		pop r28
 341 010c 1F91      		pop r17
 342 010e 0F91      		pop r16
 343 0110 FF90      		pop r15
 344 0112 EF90      		pop r14
 345 0114 DF90      		pop r13
 346 0116 CF90      		pop r12
 347 0118 BF90      		pop r11
 348 011a AF90      		pop r10
 349 011c 9F90      		pop r9
 350 011e 8F90      		pop r8
 351               	.LVL23:
 352               		.loc 1 217 1 view .LVU58
 353 0120 0895      		ret
 354               	.LVL24:
 355               	.L12:
 209:../../emulator/emulator.c **** 		memory_read(ptr, buf, cur);
 356               		.loc 1 209 3 is_stmt 1 view .LVU59
 209:../../emulator/emulator.c **** 		memory_read(ptr, buf, cur);
 357               		.loc 1 209 41 is_stmt 0 view .LVU60
 358 0122 7501      		movw r14,r10
 359 0124 6401      		movw r12,r8
 360 0126 91E8      		ldi r25,-127
 361 0128 8916      		cp r8,r25
 362 012a 9104      		cpc r9,__zero_reg__
 363 012c A104      		cpc r10,__zero_reg__
 364 012e B104      		cpc r11,__zero_reg__
 365 0130 00F0      		brlo .L11
 209:../../emulator/emulator.c **** 		memory_read(ptr, buf, cur);
 366               		.loc 1 209 41 view .LVU61
 367 0132 80E8      		ldi r24,lo8(-128)
 368 0134 C82E      		mov r12,r24
 369 0136 D12C      		mov r13,__zero_reg__
 370 0138 E12C      		mov r14,__zero_reg__
 371 013a F12C      		mov r15,__zero_reg__
 372               	.L11:
 373               	.LVL25:
 210:../../emulator/emulator.c **** 		serial_write(buf, cur);
 374               		.loc 1 210 3 is_stmt 1 view .LVU62
 375 013c 9701      		movw r18,r14
 376 013e 8601      		movw r16,r12
 377 0140 AE01      		movw r20,r28
 378 0142 4F5F      		subi r20,-1
 379 0144 5F4F      		sbci r21,-1
 380 0146 CF57      		subi r28,lo8(-129)
 381 0148 DF4F      		sbci r29,hi8(-129)
 382 014a 6881      		ld r22,Y
 383 014c 7981      		ldd r23,Y+1
 384 014e 8A81      		ldd r24,Y+2
 385 0150 9B81      		ldd r25,Y+3
 386 0152 C158      		subi r28,lo8(129)
 387 0154 D040      		sbci r29,hi8(129)
 388 0156 0E94 0000 		call memory_read
 389               	.LVL26:
 211:../../emulator/emulator.c **** 		len -= cur;
 390               		.loc 1 211 3 view .LVU63
 391 015a B701      		movw r22,r14
 392 015c A601      		movw r20,r12
 393 015e CE01      		movw r24,r28
 394 0160 0196      		adiw r24,1
 395 0162 0E94 0000 		call serial_write
 396               	.LVL27:
 212:../../emulator/emulator.c **** 		ptr += cur;
 397               		.loc 1 212 3 view .LVU64
 212:../../emulator/emulator.c **** 		ptr += cur;
 398               		.loc 1 212 7 is_stmt 0 view .LVU65
 399 0166 8C18      		sub r8,r12
 400 0168 9D08      		sbc r9,r13
 401 016a AE08      		sbc r10,r14
 402 016c BF08      		sbc r11,r15
 403               	.LVL28:
 213:../../emulator/emulator.c **** 	}
 404               		.loc 1 213 3 is_stmt 1 view .LVU66
 213:../../emulator/emulator.c **** 	}
 405               		.loc 1 213 7 is_stmt 0 view .LVU67
 406 016e CF57      		subi r28,lo8(-129)
 407 0170 DF4F      		sbci r29,hi8(-129)
 408 0172 8881      		ld r24,Y
 409 0174 9981      		ldd r25,Y+1
 410 0176 AA81      		ldd r26,Y+2
 411 0178 BB81      		ldd r27,Y+3
 412 017a C158      		subi r28,lo8(129)
 413 017c D040      		sbci r29,hi8(129)
 414 017e 8C0D      		add r24,r12
 415 0180 9D1D      		adc r25,r13
 416 0182 AE1D      		adc r26,r14
 417 0184 BF1D      		adc r27,r15
 418 0186 CF57      		subi r28,lo8(-129)
 419 0188 DF4F      		sbci r29,hi8(-129)
 420 018a 8883      		st Y,r24
 421 018c 9983      		std Y+1,r25
 422 018e AA83      		std Y+2,r26
 423 0190 BB83      		std Y+3,r27
 424 0192 C158      		subi r28,lo8(129)
 425 0194 D040      		sbci r29,hi8(129)
 426               	.LVL29:
 213:../../emulator/emulator.c **** 	}
 427               		.loc 1 213 7 view .LVU68
 428 0196 00C0      		rjmp .L10
 429               		.cfi_endproc
 430               	.LFE29:
 433               	syscall_millis:
 434               	.LVL30:
 435               	.LFB25:
 176:../../emulator/emulator.c **** 	return millis();
 436               		.loc 1 176 1 is_stmt 1 view -0
 437               		.cfi_startproc
 438               	/* prologue: function */
 439               	/* frame size = 0 */
 440               	/* stack size = 0 */
 441               	.L__stack_usage = 0
 177:../../emulator/emulator.c **** 	(void)args;
 442               		.loc 1 177 2 view .LVU70
 177:../../emulator/emulator.c **** 	(void)args;
 443               		.loc 1 177 9 is_stmt 0 view .LVU71
 444 0198 0C94 0000 		jmp millis
 445               	.LVL31:
 177:../../emulator/emulator.c **** 	(void)args;
 446               		.loc 1 177 9 view .LVU72
 447               		.cfi_endproc
 448               	.LFE25:
 451               	syscall_datetime_now:
 452               	.LVL32:
 453               	.LFB26:
 182:../../emulator/emulator.c **** 	DateTime dt;
 454               		.loc 1 182 1 is_stmt 1 view -0
 455               		.cfi_startproc
 182:../../emulator/emulator.c **** 	DateTime dt;
 456               		.loc 1 182 1 is_stmt 0 view .LVU74
 457 019c 0F93      		push r16
 458               		.cfi_def_cfa_offset 3
 459               		.cfi_offset 16, -2
 460 019e 1F93      		push r17
 461               		.cfi_def_cfa_offset 4
 462               		.cfi_offset 17, -3
 463 01a0 CF93      		push r28
 464               		.cfi_def_cfa_offset 5
 465               		.cfi_offset 28, -4
 466 01a2 DF93      		push r29
 467               		.cfi_def_cfa_offset 6
 468               		.cfi_offset 29, -5
 469 01a4 CDB7      		in r28,__SP_L__
 470 01a6 DEB7      		in r29,__SP_H__
 471               		.cfi_def_cfa_register 28
 472 01a8 6C97      		sbiw r28,28
 473               		.cfi_def_cfa_offset 34
 474 01aa 0FB6      		in __tmp_reg__,__SREG__
 475 01ac F894      		cli
 476 01ae DEBF      		out __SP_H__,r29
 477 01b0 0FBE      		out __SREG__,__tmp_reg__
 478 01b2 CDBF      		out __SP_L__,r28
 479               	/* prologue: function */
 480               	/* frame size = 28 */
 481               	/* stack size = 32 */
 482               	.L__stack_usage = 32
 483 01b4 8C01      		movw r16,r24
 183:../../emulator/emulator.c **** 	datetime_now(&dt);
 484               		.loc 1 183 2 is_stmt 1 view .LVU75
 184:../../emulator/emulator.c **** 	memory_write(args[0], &dt, sizeof(dt));
 485               		.loc 1 184 2 view .LVU76
 486 01b6 CE01      		movw r24,r28
 487               	.LVL33:
 184:../../emulator/emulator.c **** 	memory_write(args[0], &dt, sizeof(dt));
 488               		.loc 1 184 2 is_stmt 0 view .LVU77
 489 01b8 0196      		adiw r24,1
 490 01ba 0E94 0000 		call datetime_now
 491               	.LVL34:
 185:../../emulator/emulator.c **** 	return 0;
 492               		.loc 1 185 2 is_stmt 1 view .LVU78
 493 01be D801      		movw r26,r16
 494 01c0 8D91      		ld r24,X+
 495 01c2 9D91      		ld r25,X+
 496 01c4 0D90      		ld __tmp_reg__,X+
 497 01c6 BC91      		ld r27,X
 498 01c8 A02D      		mov r26,__tmp_reg__
 499 01ca 898F      		std Y+25,r24
 500 01cc 9A8F      		std Y+26,r25
 501 01ce AB8F      		std Y+27,r26
 502 01d0 BC8F      		std Y+28,r27
 503 01d2 08E1      		ldi r16,lo8(24)
 504 01d4 10E0      		ldi r17,0
 505 01d6 20E0      		ldi r18,0
 506 01d8 30E0      		ldi r19,0
 507               	.LVL35:
 185:../../emulator/emulator.c **** 	return 0;
 508               		.loc 1 185 2 is_stmt 0 view .LVU79
 509 01da AE01      		movw r20,r28
 510 01dc 4F5F      		subi r20,-1
 511 01de 5F4F      		sbci r21,-1
 512 01e0 BC01      		movw r22,r24
 513 01e2 CD01      		movw r24,r26
 514 01e4 0E94 0000 		call memory_write
 515               	.LVL36:
 186:../../emulator/emulator.c **** }
 516               		.loc 1 186 2 is_stmt 1 view .LVU80
 187:../../emulator/emulator.c **** 
 517               		.loc 1 187 1 is_stmt 0 view .LVU81
 518 01e8 60E0      		ldi r22,0
 519 01ea 70E0      		ldi r23,0
 520 01ec CB01      		movw r24,r22
 521               	/* epilogue start */
 522 01ee 6C96      		adiw r28,28
 523 01f0 0FB6      		in __tmp_reg__,__SREG__
 524 01f2 F894      		cli
 525 01f4 DEBF      		out __SP_H__,r29
 526 01f6 0FBE      		out __SREG__,__tmp_reg__
 527 01f8 CDBF      		out __SP_L__,r28
 528 01fa DF91      		pop r29
 529 01fc CF91      		pop r28
 530 01fe 1F91      		pop r17
 531 0200 0F91      		pop r16
 532 0202 0895      		ret
 533               		.cfi_endproc
 534               	.LFE26:
 537               	syscall_gfx_rect:
 538               	.LVL37:
 539               	.LFB30:
 218:../../emulator/emulator.c **** 
 219:../../emulator/emulator.c **** static u32 syscall_gfx_rect(u32 *args)
 220:../../emulator/emulator.c **** {
 540               		.loc 1 220 1 is_stmt 1 view -0
 541               		.cfi_startproc
 542               		.loc 1 220 1 is_stmt 0 view .LVU83
 543 0204 AF92      		push r10
 544               		.cfi_def_cfa_offset 3
 545               		.cfi_offset 10, -2
 546 0206 BF92      		push r11
 547               		.cfi_def_cfa_offset 4
 548               		.cfi_offset 11, -3
 549 0208 CF92      		push r12
 550               		.cfi_def_cfa_offset 5
 551               		.cfi_offset 12, -4
 552 020a DF92      		push r13
 553               		.cfi_def_cfa_offset 6
 554               		.cfi_offset 13, -5
 555 020c EF92      		push r14
 556               		.cfi_def_cfa_offset 7
 557               		.cfi_offset 14, -6
 558 020e FF92      		push r15
 559               		.cfi_def_cfa_offset 8
 560               		.cfi_offset 15, -7
 561 0210 0F93      		push r16
 562               		.cfi_def_cfa_offset 9
 563               		.cfi_offset 16, -8
 564 0212 1F93      		push r17
 565               		.cfi_def_cfa_offset 10
 566               		.cfi_offset 17, -9
 567 0214 CF93      		push r28
 568               		.cfi_def_cfa_offset 11
 569               		.cfi_offset 28, -10
 570 0216 DF93      		push r29
 571               		.cfi_def_cfa_offset 12
 572               		.cfi_offset 29, -11
 573 0218 CDB7      		in r28,__SP_L__
 574 021a DEB7      		in r29,__SP_H__
 575               		.cfi_def_cfa_register 28
 576 021c 2897      		sbiw r28,8
 577               		.cfi_def_cfa_offset 20
 578 021e 0FB6      		in __tmp_reg__,__SREG__
 579 0220 F894      		cli
 580 0222 DEBF      		out __SP_H__,r29
 581 0224 0FBE      		out __SREG__,__tmp_reg__
 582 0226 CDBF      		out __SP_L__,r28
 583               	/* prologue: function */
 584               	/* frame size = 8 */
 585               	/* stack size = 18 */
 586               	.L__stack_usage = 18
 587 0228 FC01      		movw r30,r24
 221:../../emulator/emulator.c **** 	gfx_rect(args[0], args[1], args[2], args[3], args[4]);
 588               		.loc 1 221 2 is_stmt 1 view .LVU84
 589 022a A484      		ldd r10,Z+12
 590 022c B584      		ldd r11,Z+13
 591 022e C684      		ldd r12,Z+14
 592 0230 D784      		ldd r13,Z+15
 593 0232 8085      		ldd r24,Z+8
 594 0234 9185      		ldd r25,Z+9
 595 0236 A285      		ldd r26,Z+10
 596 0238 B385      		ldd r27,Z+11
 597               	.LVL38:
 598               		.loc 1 221 2 is_stmt 0 view .LVU85
 599 023a 8983      		std Y+1,r24
 600 023c 9A83      		std Y+2,r25
 601 023e AB83      		std Y+3,r26
 602 0240 BC83      		std Y+4,r27
 603 0242 2481      		ldd r18,Z+4
 604 0244 3581      		ldd r19,Z+5
 605 0246 4681      		ldd r20,Z+6
 606 0248 5781      		ldd r21,Z+7
 607 024a 8081      		ld r24,Z
 608 024c 9181      		ldd r25,Z+1
 609 024e A281      		ldd r26,Z+2
 610 0250 B381      		ldd r27,Z+3
 611 0252 8D83      		std Y+5,r24
 612 0254 9E83      		std Y+6,r25
 613 0256 AF83      		std Y+7,r26
 614 0258 B887      		std Y+8,r27
 615 025a 8389      		ldd r24,Z+19
 616 025c 8F93      		push r24
 617 025e 8289      		ldd r24,Z+18
 618 0260 8F93      		push r24
 619 0262 8189      		ldd r24,Z+17
 620 0264 8F93      		push r24
 621 0266 8089      		ldd r24,Z+16
 622 0268 8F93      		push r24
 623 026a E980      		ldd r14,Y+1
 624 026c FA80      		ldd r15,Y+2
 625 026e 0B81      		ldd r16,Y+3
 626 0270 1C81      		ldd r17,Y+4
 627 0272 6D81      		ldd r22,Y+5
 628 0274 7E81      		ldd r23,Y+6
 629 0276 8F81      		ldd r24,Y+7
 630 0278 9885      		ldd r25,Y+8
 631 027a 0E94 0000 		call gfx_rect
 632               	.LVL39:
 222:../../emulator/emulator.c **** 	return 0;
 633               		.loc 1 222 2 is_stmt 1 view .LVU86
 634               		.loc 1 222 9 is_stmt 0 view .LVU87
 635 027e 0F90      		pop __tmp_reg__
 636 0280 0F90      		pop __tmp_reg__
 637 0282 0F90      		pop __tmp_reg__
 638 0284 0F90      		pop __tmp_reg__
 223:../../emulator/emulator.c **** }
 639               		.loc 1 223 1 view .LVU88
 640 0286 60E0      		ldi r22,0
 641 0288 70E0      		ldi r23,0
 642 028a CB01      		movw r24,r22
 643               	/* epilogue start */
 644 028c 2896      		adiw r28,8
 645 028e 0FB6      		in __tmp_reg__,__SREG__
 646 0290 F894      		cli
 647 0292 DEBF      		out __SP_H__,r29
 648 0294 0FBE      		out __SREG__,__tmp_reg__
 649 0296 CDBF      		out __SP_L__,r28
 650 0298 DF91      		pop r29
 651 029a CF91      		pop r28
 652 029c 1F91      		pop r17
 653 029e 0F91      		pop r16
 654 02a0 FF90      		pop r15
 655 02a2 EF90      		pop r14
 656 02a4 DF90      		pop r13
 657 02a6 CF90      		pop r12
 658 02a8 BF90      		pop r11
 659 02aa AF90      		pop r10
 660 02ac 0895      		ret
 661               		.cfi_endproc
 662               	.LFE30:
 664               	.global	kernel_init
 666               	kernel_init:
 667               	.LFB9:
  43:../../emulator/emulator.c **** 	_memory_size = memory_size();
 668               		.loc 1 43 1 is_stmt 1 view -0
 669               		.cfi_startproc
 670               	/* prologue: function */
 671               	/* frame size = 0 */
 672               	/* stack size = 0 */
 673               	.L__stack_usage = 0
  44:../../emulator/emulator.c **** }
 674               		.loc 1 44 2 view .LVU90
  44:../../emulator/emulator.c **** }
 675               		.loc 1 44 17 is_stmt 0 view .LVU91
 676 02ae 0E94 0000 		call memory_size
 677               	.LVL40:
 678 02b2 6093 0000 		sts _memory_size,r22
 679 02b6 7093 0000 		sts _memory_size+1,r23
 680 02ba 8093 0000 		sts _memory_size+2,r24
 681 02be 9093 0000 		sts _memory_size+3,r25
 682               	/* epilogue start */
  45:../../emulator/emulator.c **** 
 683               		.loc 1 45 1 view .LVU92
 684 02c2 0895      		ret
 685               		.cfi_endproc
 686               	.LFE9:
 688               		.section	.rodata.str1.1,"aMS",@progbits,1
 689               	.LC0:
 690 0000 1B5B 316D 		.string	"\033[1m\033[31mINSTRUCTION LIMIT EXCEEDED!\n\033[0m"
 690      1B5B 3331 
 690      6D49 4E53 
 690      5452 5543 
 690      5449 4F4E 
 691               		.text
 692               	.global	emulator_call
 694               	emulator_call:
 695               	.LVL41:
 696               	.LFB33:
 224:../../emulator/emulator.c **** 
 225:../../emulator/emulator.c **** static u32 (*syscalls[])(u32 *) =
 226:../../emulator/emulator.c **** {
 227:../../emulator/emulator.c **** 	syscall_exit,
 228:../../emulator/emulator.c **** 	syscall_finish,
 229:../../emulator/emulator.c **** 	syscall_event_register,
 230:../../emulator/emulator.c **** 
 231:../../emulator/emulator.c **** 	syscall_gfx_rect,
 232:../../emulator/emulator.c **** 	syscall_gfx_image_rgba,
 233:../../emulator/emulator.c **** 	syscall_gfx_image_rgb,
 234:../../emulator/emulator.c **** 	syscall_gfx_image_rgb565,
 235:../../emulator/emulator.c **** 	syscall_gfx_image_grayscale,
 236:../../emulator/emulator.c **** 	syscall_gfx_image_1bit,
 237:../../emulator/emulator.c **** 
 238:../../emulator/emulator.c **** 	syscall_rand,
 239:../../emulator/emulator.c **** 	syscall_keyboard_is_key_pressed,
 240:../../emulator/emulator.c **** 	syscall_serial_write,
 241:../../emulator/emulator.c **** 	syscall_datetime_now,
 242:../../emulator/emulator.c **** 	syscall_millis,
 243:../../emulator/emulator.c **** };
 244:../../emulator/emulator.c **** 
 245:../../emulator/emulator.c **** static i32 syscall(u32 id, u32 *args)
 246:../../emulator/emulator.c **** {
 247:../../emulator/emulator.c **** 	if(id >= ARRLEN(syscalls))
 248:../../emulator/emulator.c **** 	{
 249:../../emulator/emulator.c **** 		return 1;
 250:../../emulator/emulator.c **** 	}
 251:../../emulator/emulator.c **** 
 252:../../emulator/emulator.c **** 	args[0] = syscalls[id](args);
 253:../../emulator/emulator.c **** 	return 0;
 254:../../emulator/emulator.c **** }
 255:../../emulator/emulator.c **** 
 256:../../emulator/emulator.c **** /* EMULATOR */
 257:../../emulator/emulator.c **** #ifdef DEBUG
 258:../../emulator/emulator.c **** 
 259:../../emulator/emulator.c **** void emulator_dump_registers(Emulator *emu)
 260:../../emulator/emulator.c **** {
 261:../../emulator/emulator.c **** 	printf("PC  0x%08X %10d\n", emu->PC, emu->PC);
 262:../../emulator/emulator.c **** 	for(i32 i = 0; i < 32; ++i)
 263:../../emulator/emulator.c **** 	{
 264:../../emulator/emulator.c **** 		printf("R%d%s 0x%08X %10d\n", i, i < 10 ? " " : "",
 265:../../emulator/emulator.c **** 			emu->Registers[i], emu->Registers[i]);
 266:../../emulator/emulator.c **** 	}
 267:../../emulator/emulator.c **** 
 268:../../emulator/emulator.c **** 	printf("\n");
 269:../../emulator/emulator.c **** }
 270:../../emulator/emulator.c **** 
 271:../../emulator/emulator.c **** #endif
 272:../../emulator/emulator.c **** 
 273:../../emulator/emulator.c **** static i32 emulator_next(Emulator *emu)
 274:../../emulator/emulator.c **** {
 275:../../emulator/emulator.c **** #ifdef DEBUG
 276:../../emulator/emulator.c **** 	clock_t begin, end;
 277:../../emulator/emulator.c **** 	double time_spent;
 278:../../emulator/emulator.c **** 
 279:../../emulator/emulator.c **** 	begin = clock();
 280:../../emulator/emulator.c **** #endif
 281:../../emulator/emulator.c **** 
 282:../../emulator/emulator.c **** 	u32 instr, opcode;
 283:../../emulator/emulator.c **** 	instr = memory_lw(emu->PC);
 284:../../emulator/emulator.c **** 
 285:../../emulator/emulator.c **** 	/* r0 = Zero Register */
 286:../../emulator/emulator.c **** 	emu->Registers[0] = 0;
 287:../../emulator/emulator.c **** 
 288:../../emulator/emulator.c **** 	/* bits 7 .. 0 */
 289:../../emulator/emulator.c **** 	opcode = instr & 0x7F;
 290:../../emulator/emulator.c **** 	if((opcode & 0x03) != 0x03)
 291:../../emulator/emulator.c **** 	{
 292:../../emulator/emulator.c **** 		/* INVALID */
 293:../../emulator/emulator.c **** #ifdef DEBUG
 294:../../emulator/emulator.c **** 		printf("INVALID\n");
 295:../../emulator/emulator.c **** #endif
 296:../../emulator/emulator.c **** 		return -1;
 297:../../emulator/emulator.c **** 	}
 298:../../emulator/emulator.c **** 
 299:../../emulator/emulator.c **** 	opcode >>= 2;
 300:../../emulator/emulator.c **** 	switch(opcode)
 301:../../emulator/emulator.c **** 	{
 302:../../emulator/emulator.c **** 		case OPCODE_ECALL:
 303:../../emulator/emulator.c **** 			if(syscall(emu->Registers[17], &emu->Registers[10]))
 304:../../emulator/emulator.c **** 			{
 305:../../emulator/emulator.c **** #ifdef DEBUG
 306:../../emulator/emulator.c **** 				printf("SYSCALL ERROR\n");
 307:../../emulator/emulator.c **** #endif
 308:../../emulator/emulator.c **** 				return -1;
 309:../../emulator/emulator.c **** 			}
 310:../../emulator/emulator.c **** 			break;
 311:../../emulator/emulator.c **** 
 312:../../emulator/emulator.c **** 		case OPCODE_LOAD:
 313:../../emulator/emulator.c **** 		{
 314:../../emulator/emulator.c **** 			i32 offset;
 315:../../emulator/emulator.c **** 			u32 rd, rs1, funct3, imm;
 316:../../emulator/emulator.c **** 			rd = (instr >> 7) & 0x1F;
 317:../../emulator/emulator.c **** 			funct3 = (instr >> 12) & 0x07;
 318:../../emulator/emulator.c **** 			rs1 = (instr >> 15) & 0x1F;
 319:../../emulator/emulator.c **** 			imm = (instr >> 20);
 320:../../emulator/emulator.c **** 			offset = sext(12, imm);
 321:../../emulator/emulator.c **** 			switch(funct3)
 322:../../emulator/emulator.c **** 			{
 323:../../emulator/emulator.c **** 				case 0:
 324:../../emulator/emulator.c **** 					/* LB */
 325:../../emulator/emulator.c **** #ifdef DEBUG
 326:../../emulator/emulator.c **** 					printf("lb r%d, r%d%+d\n", rd, rs1, offset);
 327:../../emulator/emulator.c **** #endif
 328:../../emulator/emulator.c **** 					emu->Registers[rd] = memory_lb(emu->Registers[rs1] + offset);
 329:../../emulator/emulator.c **** 					break;
 330:../../emulator/emulator.c **** 
 331:../../emulator/emulator.c **** 				case 1:
 332:../../emulator/emulator.c **** 					/* LH */
 333:../../emulator/emulator.c **** #ifdef DEBUG
 334:../../emulator/emulator.c **** 					printf("lh r%d, r%d%+d\n", rd, rs1, offset);
 335:../../emulator/emulator.c **** #endif
 336:../../emulator/emulator.c **** 					emu->Registers[rd] = memory_lh(emu->Registers[rs1] + offset);
 337:../../emulator/emulator.c **** 					break;
 338:../../emulator/emulator.c **** 
 339:../../emulator/emulator.c **** 				case 2:
 340:../../emulator/emulator.c **** 					/* LW */
 341:../../emulator/emulator.c **** #ifdef DEBUG
 342:../../emulator/emulator.c **** 					printf("lw r%d, r%d%+d\n", rd, rs1, offset);
 343:../../emulator/emulator.c **** #endif
 344:../../emulator/emulator.c **** 					emu->Registers[rd] = memory_lw(emu->Registers[rs1] + offset);
 345:../../emulator/emulator.c **** 					break;
 346:../../emulator/emulator.c **** 
 347:../../emulator/emulator.c **** 				case 4:
 348:../../emulator/emulator.c **** 					/* LBU */
 349:../../emulator/emulator.c **** #ifdef DEBUG
 350:../../emulator/emulator.c **** 					printf("lbu r%d, r%d%+d\n", rd, rs1, offset);
 351:../../emulator/emulator.c **** #endif
 352:../../emulator/emulator.c **** 					emu->Registers[rd] = memory_lbu(emu->Registers[rs1] + offset);
 353:../../emulator/emulator.c **** 					break;
 354:../../emulator/emulator.c **** 
 355:../../emulator/emulator.c **** 				case 5:
 356:../../emulator/emulator.c **** 					/* LHU */
 357:../../emulator/emulator.c **** #ifdef DEBUG
 358:../../emulator/emulator.c **** 					printf("lhu r%d, r%d%+d\n", rd, rs1, offset);
 359:../../emulator/emulator.c **** #endif
 360:../../emulator/emulator.c **** 					emu->Registers[rd] = memory_lhu(emu->Registers[rs1] + offset);
 361:../../emulator/emulator.c **** 					break;
 362:../../emulator/emulator.c **** 
 363:../../emulator/emulator.c **** 				default:
 364:../../emulator/emulator.c **** 					/* INVALID */
 365:../../emulator/emulator.c **** #ifdef DEBUG
 366:../../emulator/emulator.c **** 					printf("INVALID\n");
 367:../../emulator/emulator.c **** #endif
 368:../../emulator/emulator.c **** 					return -1;
 369:../../emulator/emulator.c **** 			}
 370:../../emulator/emulator.c **** 			break;
 371:../../emulator/emulator.c **** 		}
 372:../../emulator/emulator.c **** 
 373:../../emulator/emulator.c **** 		case OPCODE_IMM:
 374:../../emulator/emulator.c **** 		{
 375:../../emulator/emulator.c **** 			u32 rd, rs1, funct3, imm;
 376:../../emulator/emulator.c **** 			rd = (instr >> 7) & 0x1F;
 377:../../emulator/emulator.c **** 			funct3 = (instr >> 12) & 0x07;
 378:../../emulator/emulator.c **** 			rs1 = (instr >> 15) & 0x1F;
 379:../../emulator/emulator.c **** 			imm = (instr >> 20);
 380:../../emulator/emulator.c **** 			switch(funct3)
 381:../../emulator/emulator.c **** 			{
 382:../../emulator/emulator.c **** 				case 0:
 383:../../emulator/emulator.c **** 					/* ADDI */
 384:../../emulator/emulator.c **** 					imm = sext(12, imm);
 385:../../emulator/emulator.c **** #ifdef DEBUG
 386:../../emulator/emulator.c **** 					printf("addi r%d, r%d, %d\n", rd, rs1, imm);
 387:../../emulator/emulator.c **** #endif
 388:../../emulator/emulator.c **** 					emu->Registers[rd] = emu->Registers[rs1] + imm;
 389:../../emulator/emulator.c **** 					break;
 390:../../emulator/emulator.c **** 
 391:../../emulator/emulator.c **** 				case 1:
 392:../../emulator/emulator.c **** 					/* SLLI */
 393:../../emulator/emulator.c **** 					imm &= 0x1F;
 394:../../emulator/emulator.c **** #ifdef DEBUG
 395:../../emulator/emulator.c **** 					printf("slli r%d, r%d, %d\n", rd, rs1, imm);
 396:../../emulator/emulator.c **** #endif
 397:../../emulator/emulator.c **** 					emu->Registers[rd] = emu->Registers[rs1] << imm;
 398:../../emulator/emulator.c **** 					break;
 399:../../emulator/emulator.c **** 
 400:../../emulator/emulator.c **** 				case 2:
 401:../../emulator/emulator.c **** 					/* SLTI */
 402:../../emulator/emulator.c **** 					imm = sext(12, imm);
 403:../../emulator/emulator.c **** #ifdef DEBUG
 404:../../emulator/emulator.c **** 					printf("slti r%d, r%d, %d\n", rd, rs1, imm);
 405:../../emulator/emulator.c **** #endif
 406:../../emulator/emulator.c **** 					emu->Registers[rd] = (i32)emu->Registers[rs1] < (i32)imm;
 407:../../emulator/emulator.c **** 					break;
 408:../../emulator/emulator.c **** 
 409:../../emulator/emulator.c **** 				case 3:
 410:../../emulator/emulator.c **** 					/* SLTIU */
 411:../../emulator/emulator.c **** #ifdef DEBUG
 412:../../emulator/emulator.c **** 					printf("sltiu r%d, r%d, %d\n", rd, rs1, imm);
 413:../../emulator/emulator.c **** #endif
 414:../../emulator/emulator.c **** 					emu->Registers[rd] = emu->Registers[rs1] < imm;
 415:../../emulator/emulator.c **** 					break;
 416:../../emulator/emulator.c **** 
 417:../../emulator/emulator.c **** 				case 4:
 418:../../emulator/emulator.c **** 					/* XORI */
 419:../../emulator/emulator.c **** 					imm = sext(12, imm);
 420:../../emulator/emulator.c **** #ifdef DEBUG
 421:../../emulator/emulator.c **** 					printf("xori r%d, r%d, 0x%08X\n", rd, rs1, imm);
 422:../../emulator/emulator.c **** #endif
 423:../../emulator/emulator.c **** 					emu->Registers[rd] = emu->Registers[rs1] ^ imm;
 424:../../emulator/emulator.c **** 					break;
 425:../../emulator/emulator.c **** 
 426:../../emulator/emulator.c **** 				case 5:
 427:../../emulator/emulator.c **** 					if(imm >> 5)
 428:../../emulator/emulator.c **** 					{
 429:../../emulator/emulator.c **** 						/* SRAI */
 430:../../emulator/emulator.c **** 						imm &= 0x1F;
 431:../../emulator/emulator.c **** #ifdef DEBUG
 432:../../emulator/emulator.c **** 						printf("srai r%d, r%d, %d\n", rd, rs1, imm);
 433:../../emulator/emulator.c **** #endif
 434:../../emulator/emulator.c **** 						emu->Registers[rd] = (i32)emu->Registers[rs1] >> imm;
 435:../../emulator/emulator.c **** 					}
 436:../../emulator/emulator.c **** 					else
 437:../../emulator/emulator.c **** 					{
 438:../../emulator/emulator.c **** 						/* SRLI */
 439:../../emulator/emulator.c **** 						imm &= 0x1F;
 440:../../emulator/emulator.c **** #ifdef DEBUG
 441:../../emulator/emulator.c **** 						printf("srli r%d, r%d, %d\n", rd, rs1, imm);
 442:../../emulator/emulator.c **** #endif
 443:../../emulator/emulator.c **** 						emu->Registers[rd] = emu->Registers[rs1] >> imm;
 444:../../emulator/emulator.c **** 					}
 445:../../emulator/emulator.c **** 					break;
 446:../../emulator/emulator.c **** 
 447:../../emulator/emulator.c **** 				case 6:
 448:../../emulator/emulator.c **** 					/* ORI */
 449:../../emulator/emulator.c **** 					imm = sext(12, imm);
 450:../../emulator/emulator.c **** #ifdef DEBUG
 451:../../emulator/emulator.c **** 					printf("ori r%d, r%d, 0x%08X\n", rd, rs1, imm);
 452:../../emulator/emulator.c **** #endif
 453:../../emulator/emulator.c **** 					emu->Registers[rd] = emu->Registers[rs1] | imm;
 454:../../emulator/emulator.c **** 					break;
 455:../../emulator/emulator.c **** 
 456:../../emulator/emulator.c **** 				case 7:
 457:../../emulator/emulator.c **** 					/* ANDI */
 458:../../emulator/emulator.c **** 					imm = sext(12, imm);
 459:../../emulator/emulator.c **** #ifdef DEBUG
 460:../../emulator/emulator.c **** 					printf("andi r%d, r%d, 0x%08X\n", rd, rs1, imm);
 461:../../emulator/emulator.c **** #endif
 462:../../emulator/emulator.c **** 					emu->Registers[rd] = emu->Registers[rs1] & imm;
 463:../../emulator/emulator.c **** 					break;
 464:../../emulator/emulator.c **** 			}
 465:../../emulator/emulator.c **** 			break;
 466:../../emulator/emulator.c **** 		}
 467:../../emulator/emulator.c **** 
 468:../../emulator/emulator.c **** 		case OPCODE_AUIPC:
 469:../../emulator/emulator.c **** 		{
 470:../../emulator/emulator.c **** 			u32 rd, imm;
 471:../../emulator/emulator.c **** 			rd = (instr >> 7) & 0x1F;
 472:../../emulator/emulator.c **** 			imm = (instr >> 12);
 473:../../emulator/emulator.c **** #ifdef DEBUG
 474:../../emulator/emulator.c **** 			printf("auipc r%d, 0x%08X\n", rd, imm);
 475:../../emulator/emulator.c **** #endif
 476:../../emulator/emulator.c **** 			emu->Registers[rd] = emu->PC + (imm << 12);
 477:../../emulator/emulator.c **** 			break;
 478:../../emulator/emulator.c **** 		}
 479:../../emulator/emulator.c **** 
 480:../../emulator/emulator.c **** 		case OPCODE_STORE:
 481:../../emulator/emulator.c **** 		{
 482:../../emulator/emulator.c **** 			i32 offset;
 483:../../emulator/emulator.c **** 			u32 imm, rs1, rs2, funct3;
 484:../../emulator/emulator.c **** 			funct3 = (instr >> 12) & 0x07;
 485:../../emulator/emulator.c **** 			rs1 = (instr >> 15) & 0x1F;
 486:../../emulator/emulator.c **** 			rs2 = (instr >> 20) & 0x1F;
 487:../../emulator/emulator.c **** 			imm = ((instr & 0xF80) >> 7) | ((instr & 0xFE000000) >> 20);
 488:../../emulator/emulator.c **** 			offset = sext(12, imm);
 489:../../emulator/emulator.c **** 			switch(funct3)
 490:../../emulator/emulator.c **** 			{
 491:../../emulator/emulator.c **** 				case 0:
 492:../../emulator/emulator.c **** 					/* SB */
 493:../../emulator/emulator.c **** #ifdef DEBUG
 494:../../emulator/emulator.c **** 					printf("sb r%d%+d, r%d\n", rs1, offset, rs2);
 495:../../emulator/emulator.c **** #endif
 496:../../emulator/emulator.c **** 					memory_sb(emu->Registers[rs1] + offset, emu->Registers[rs2]);
 497:../../emulator/emulator.c **** 					break;
 498:../../emulator/emulator.c **** 
 499:../../emulator/emulator.c **** 				case 1:
 500:../../emulator/emulator.c **** 					/* SH */
 501:../../emulator/emulator.c **** #ifdef DEBUG
 502:../../emulator/emulator.c **** 					printf("sh r%d%+d, r%d\n", rs1, offset, rs2);
 503:../../emulator/emulator.c **** #endif
 504:../../emulator/emulator.c **** 					memory_sh(emu->Registers[rs1] + offset, emu->Registers[rs2]);
 505:../../emulator/emulator.c **** 					break;
 506:../../emulator/emulator.c **** 
 507:../../emulator/emulator.c **** 				case 2:
 508:../../emulator/emulator.c **** 					/* SW */
 509:../../emulator/emulator.c **** #ifdef DEBUG
 510:../../emulator/emulator.c **** 					printf("sw r%d%+d, r%d\n", rs1, offset, rs2);
 511:../../emulator/emulator.c **** #endif
 512:../../emulator/emulator.c **** 					memory_sw(emu->Registers[rs1] + offset, emu->Registers[rs2]);
 513:../../emulator/emulator.c **** 					break;
 514:../../emulator/emulator.c **** 
 515:../../emulator/emulator.c **** 				default:
 516:../../emulator/emulator.c **** 					/* INVALID */
 517:../../emulator/emulator.c **** #ifdef DEBUG
 518:../../emulator/emulator.c **** 					printf("INVALID\n");
 519:../../emulator/emulator.c **** #endif
 520:../../emulator/emulator.c **** 					return -1;
 521:../../emulator/emulator.c **** 			}
 522:../../emulator/emulator.c **** 			break;
 523:../../emulator/emulator.c **** 		}
 524:../../emulator/emulator.c **** 
 525:../../emulator/emulator.c **** 		case OPCODE_REG:
 526:../../emulator/emulator.c **** 		{
 527:../../emulator/emulator.c **** 			u32 rd, rs1, rs2, funct3, funct7;
 528:../../emulator/emulator.c **** 			rd = (instr >> 7) & 0x1F;
 529:../../emulator/emulator.c **** 			funct3 = (instr >> 12) & 0x07;
 530:../../emulator/emulator.c **** 			rs1 = (instr >> 15) & 0x1F;
 531:../../emulator/emulator.c **** 			rs2 = (instr >> 20) & 0x1F;
 532:../../emulator/emulator.c **** 			funct7 = (instr >> 25);
 533:../../emulator/emulator.c **** 			if(funct7 == 1)
 534:../../emulator/emulator.c **** 			{
 535:../../emulator/emulator.c **** 				/* Multiplication Extension */
 536:../../emulator/emulator.c **** 				switch(funct3)
 537:../../emulator/emulator.c **** 				{
 538:../../emulator/emulator.c **** 					case 0:
 539:../../emulator/emulator.c **** 						/* MUL */
 540:../../emulator/emulator.c **** #ifdef DEBUG
 541:../../emulator/emulator.c **** 						printf("mul r%d, r%d, r%d\n", rd, rs1, rs2);
 542:../../emulator/emulator.c **** #endif
 543:../../emulator/emulator.c **** 						emu->Registers[rd] = (i32)emu->Registers[rs1] * (i32)emu->Registers[rs2];
 544:../../emulator/emulator.c **** 						break;
 545:../../emulator/emulator.c **** 
 546:../../emulator/emulator.c **** 					case 1:
 547:../../emulator/emulator.c **** 						/* MULH */
 548:../../emulator/emulator.c **** #ifdef DEBUG
 549:../../emulator/emulator.c **** 						printf("mulh r%d, r%d, r%d\n", rd, rs1, rs2);
 550:../../emulator/emulator.c **** #endif
 551:../../emulator/emulator.c **** 						emu->Registers[rd] = ((i64)emu->Registers[rs1] * (i64)emu->Registers[rs2]) >> 32;
 552:../../emulator/emulator.c **** 						break;
 553:../../emulator/emulator.c **** 
 554:../../emulator/emulator.c **** 					case 2:
 555:../../emulator/emulator.c **** 						/* MULHSU */
 556:../../emulator/emulator.c **** #ifdef DEBUG
 557:../../emulator/emulator.c **** 						printf("mulhsu r%d, r%d, r%d\n", rd, rs1, rs2);
 558:../../emulator/emulator.c **** #endif
 559:../../emulator/emulator.c **** 						emu->Registers[rd] = ((i64)emu->Registers[rs1] * (u64)emu->Registers[rs2]) >> 32;
 560:../../emulator/emulator.c **** 						break;
 561:../../emulator/emulator.c **** 
 562:../../emulator/emulator.c **** 					case 3:
 563:../../emulator/emulator.c **** 						/* MULHU */
 564:../../emulator/emulator.c **** #ifdef DEBUG
 565:../../emulator/emulator.c **** 						printf("mulhu r%d, r%d, r%d\n", rd, rs1, rs2);
 566:../../emulator/emulator.c **** #endif
 567:../../emulator/emulator.c **** 						emu->Registers[rd] = ((u64)emu->Registers[rs1] * (u64)emu->Registers[rs2]) >> 32;
 568:../../emulator/emulator.c **** 						break;
 569:../../emulator/emulator.c **** 
 570:../../emulator/emulator.c **** 					case 4:
 571:../../emulator/emulator.c **** 						/* DIV */
 572:../../emulator/emulator.c **** #ifdef DEBUG
 573:../../emulator/emulator.c **** 						printf("div r%d, r%d, r%d\n", rd, rs1, rs2);
 574:../../emulator/emulator.c **** #endif
 575:../../emulator/emulator.c **** 						emu->Registers[rd] = (i32)emu->Registers[rs1] / (i32)emu->Registers[rs2];
 576:../../emulator/emulator.c **** 						break;
 577:../../emulator/emulator.c **** 
 578:../../emulator/emulator.c **** 					case 5:
 579:../../emulator/emulator.c **** 						/* DIVU */
 580:../../emulator/emulator.c **** #ifdef DEBUG
 581:../../emulator/emulator.c **** 						printf("divu r%d, r%d, r%d\n", rd, rs1, rs2);
 582:../../emulator/emulator.c **** #endif
 583:../../emulator/emulator.c **** 						emu->Registers[rd] = emu->Registers[rs1] / emu->Registers[rs2];
 584:../../emulator/emulator.c **** 						break;
 585:../../emulator/emulator.c **** 
 586:../../emulator/emulator.c **** 					case 6:
 587:../../emulator/emulator.c **** 						/* REM */
 588:../../emulator/emulator.c **** #ifdef DEBUG
 589:../../emulator/emulator.c **** 						printf("rem r%d, r%d, r%d\n", rd, rs1, rs2);
 590:../../emulator/emulator.c **** #endif
 591:../../emulator/emulator.c **** 						emu->Registers[rd] = (i32)emu->Registers[rs1] % (i32)emu->Registers[rs2];
 592:../../emulator/emulator.c **** 						break;
 593:../../emulator/emulator.c **** 
 594:../../emulator/emulator.c **** 					case 7:
 595:../../emulator/emulator.c **** 						/* REMU */
 596:../../emulator/emulator.c **** #ifdef DEBUG
 597:../../emulator/emulator.c **** 						printf("remu r%d, r%d, r%d\n", rd, rs1, rs2);
 598:../../emulator/emulator.c **** #endif
 599:../../emulator/emulator.c **** 						emu->Registers[rd] = emu->Registers[rs1] % emu->Registers[rs2];
 600:../../emulator/emulator.c **** 						break;
 601:../../emulator/emulator.c **** 				}
 602:../../emulator/emulator.c **** 			}
 603:../../emulator/emulator.c **** 			else
 604:../../emulator/emulator.c **** 			{
 605:../../emulator/emulator.c **** 				switch(funct3)
 606:../../emulator/emulator.c **** 				{
 607:../../emulator/emulator.c **** 					case 0:
 608:../../emulator/emulator.c **** 						if(funct7)
 609:../../emulator/emulator.c **** 						{
 610:../../emulator/emulator.c **** 							/* SUB */
 611:../../emulator/emulator.c **** #ifdef DEBUG
 612:../../emulator/emulator.c **** 							printf("sub r%d, r%d, r%d\n", rd, rs1, rs2);
 613:../../emulator/emulator.c **** #endif
 614:../../emulator/emulator.c **** 							emu->Registers[rd] = emu->Registers[rs1] - emu->Registers[rs2];
 615:../../emulator/emulator.c **** 						}
 616:../../emulator/emulator.c **** 						else
 617:../../emulator/emulator.c **** 						{
 618:../../emulator/emulator.c **** 							/* ADD */
 619:../../emulator/emulator.c **** #ifdef DEBUG
 620:../../emulator/emulator.c **** 							printf("add r%d, r%d, r%d\n", rd, rs1, rs2);
 621:../../emulator/emulator.c **** #endif
 622:../../emulator/emulator.c **** 							emu->Registers[rd] = emu->Registers[rs1] + emu->Registers[rs2];
 623:../../emulator/emulator.c **** 						}
 624:../../emulator/emulator.c **** 						break;
 625:../../emulator/emulator.c **** 
 626:../../emulator/emulator.c **** 					case 1:
 627:../../emulator/emulator.c **** 						/* SLL */
 628:../../emulator/emulator.c **** #ifdef DEBUG
 629:../../emulator/emulator.c **** 						printf("sll r%d, r%d, r%d\n", rd, rs1, rs2);
 630:../../emulator/emulator.c **** #endif
 631:../../emulator/emulator.c **** 						emu->Registers[rd] = emu->Registers[rs1] << (emu->Registers[rs2] & 0x1F);
 632:../../emulator/emulator.c **** 						break;
 633:../../emulator/emulator.c **** 
 634:../../emulator/emulator.c **** 					case 2:
 635:../../emulator/emulator.c **** 						/* SLT */
 636:../../emulator/emulator.c **** #ifdef DEBUG
 637:../../emulator/emulator.c **** 						printf("slt r%d, r%d, r%d\n", rd, rs1, rs2);
 638:../../emulator/emulator.c **** #endif
 639:../../emulator/emulator.c **** 						emu->Registers[rd] = (i32)emu->Registers[rs1] < (i32)emu->Registers[rs2];
 640:../../emulator/emulator.c **** 						break;
 641:../../emulator/emulator.c **** 
 642:../../emulator/emulator.c **** 					case 3:
 643:../../emulator/emulator.c **** 						/* SLTU */
 644:../../emulator/emulator.c **** #ifdef DEBUG
 645:../../emulator/emulator.c **** 						printf("sltu r%d, r%d, r%d\n", rd, rs1, rs2);
 646:../../emulator/emulator.c **** #endif
 647:../../emulator/emulator.c **** 						emu->Registers[rd] = emu->Registers[rs1] < emu->Registers[rs2];
 648:../../emulator/emulator.c **** 						break;
 649:../../emulator/emulator.c **** 
 650:../../emulator/emulator.c **** 					case 4:
 651:../../emulator/emulator.c **** 						/* XOR */
 652:../../emulator/emulator.c **** #ifdef DEBUG
 653:../../emulator/emulator.c **** 						printf("xor r%d, r%d, r%d\n", rd, rs1, rs2);
 654:../../emulator/emulator.c **** #endif
 655:../../emulator/emulator.c **** 						emu->Registers[rd] = emu->Registers[rs1] ^ emu->Registers[rs2];
 656:../../emulator/emulator.c **** 						break;
 657:../../emulator/emulator.c **** 
 658:../../emulator/emulator.c **** 					case 5:
 659:../../emulator/emulator.c **** 						if(funct7)
 660:../../emulator/emulator.c **** 						{
 661:../../emulator/emulator.c **** 							/* SRA */
 662:../../emulator/emulator.c **** #ifdef DEBUG
 663:../../emulator/emulator.c **** 							printf("srl r%d, r%d, r%d\n", rd, rs1, rs2);
 664:../../emulator/emulator.c **** #endif
 665:../../emulator/emulator.c **** 							emu->Registers[rd] = (i32)emu->Registers[rs1] >> (emu->Registers[rs2] & 0x1F);
 666:../../emulator/emulator.c **** 						}
 667:../../emulator/emulator.c **** 						else
 668:../../emulator/emulator.c **** 						{
 669:../../emulator/emulator.c **** 							/* SRL */
 670:../../emulator/emulator.c **** #ifdef DEBUG
 671:../../emulator/emulator.c **** 							printf("sra r%d, r%d, r%d\n", rd, rs1, rs2);
 672:../../emulator/emulator.c **** #endif
 673:../../emulator/emulator.c **** 							emu->Registers[rd] = emu->Registers[rs1] >> (emu->Registers[rs2] & 0x1F);
 674:../../emulator/emulator.c **** 						}
 675:../../emulator/emulator.c **** 						break;
 676:../../emulator/emulator.c **** 
 677:../../emulator/emulator.c **** 					case 6:
 678:../../emulator/emulator.c **** 						/* OR */
 679:../../emulator/emulator.c **** #ifdef DEBUG
 680:../../emulator/emulator.c **** 						printf("or r%d, r%d, r%d\n", rd, rs1, rs2);
 681:../../emulator/emulator.c **** #endif
 682:../../emulator/emulator.c **** 						emu->Registers[rd] = emu->Registers[rs1] | emu->Registers[rs2];
 683:../../emulator/emulator.c **** 						break;
 684:../../emulator/emulator.c **** 
 685:../../emulator/emulator.c **** 					case 7:
 686:../../emulator/emulator.c **** 						/* AND */
 687:../../emulator/emulator.c **** #ifdef DEBUG
 688:../../emulator/emulator.c **** 						printf("and r%d, r%d, r%d\n", rd, rs1, rs2);
 689:../../emulator/emulator.c **** #endif
 690:../../emulator/emulator.c **** 						emu->Registers[rd] = emu->Registers[rs1] & emu->Registers[rs2];
 691:../../emulator/emulator.c **** 						break;
 692:../../emulator/emulator.c **** 				}
 693:../../emulator/emulator.c **** 			}
 694:../../emulator/emulator.c **** 			break;
 695:../../emulator/emulator.c **** 		}
 696:../../emulator/emulator.c **** 
 697:../../emulator/emulator.c **** 		case OPCODE_LUI:
 698:../../emulator/emulator.c **** 		{
 699:../../emulator/emulator.c **** 			u32 rd, imm;
 700:../../emulator/emulator.c **** 			rd = (instr >> 7) & 0x1F;
 701:../../emulator/emulator.c **** 			imm = (instr >> 12);
 702:../../emulator/emulator.c **** #ifdef DEBUG
 703:../../emulator/emulator.c **** 			printf("lui r%d, 0x%08X\n", rd, imm);
 704:../../emulator/emulator.c **** #endif
 705:../../emulator/emulator.c **** 			emu->Registers[rd] = (imm << 12);
 706:../../emulator/emulator.c **** 			break;
 707:../../emulator/emulator.c **** 		}
 708:../../emulator/emulator.c **** 
 709:../../emulator/emulator.c **** 		case OPCODE_BRANCH:
 710:../../emulator/emulator.c **** 		{
 711:../../emulator/emulator.c **** 			i32 offset;
 712:../../emulator/emulator.c **** 			u32 imm, rs1, rs2, funct3;
 713:../../emulator/emulator.c **** 
 714:../../emulator/emulator.c **** 			funct3 = (instr >> 12) & 0x07;
 715:../../emulator/emulator.c **** 			rs1 = (instr >> 15) & 0x1F;
 716:../../emulator/emulator.c **** 			rs2 = (instr >> 20) & 0x1F;
 717:../../emulator/emulator.c **** 
 718:../../emulator/emulator.c **** 			imm = ((instr & 0xF00) >> 7) |
 719:../../emulator/emulator.c **** 				((instr & 0x7E000000) >> 20) |
 720:../../emulator/emulator.c **** 				((instr & 0x80) << 4) |
 721:../../emulator/emulator.c **** 				((instr & 0x80000000) >> 20);
 722:../../emulator/emulator.c **** 
 723:../../emulator/emulator.c **** 			offset = sext(12, imm);
 724:../../emulator/emulator.c **** 			switch(funct3)
 725:../../emulator/emulator.c **** 			{
 726:../../emulator/emulator.c **** 				case 0:
 727:../../emulator/emulator.c **** 					/* BEQ */
 728:../../emulator/emulator.c **** #ifdef DEBUG
 729:../../emulator/emulator.c **** 					printf("beq r%d, r%d, pc%+d\n", rs1, rs2, offset);
 730:../../emulator/emulator.c **** #endif
 731:../../emulator/emulator.c **** 					if(emu->Registers[rs1] == emu->Registers[rs2])
 732:../../emulator/emulator.c **** 					{
 733:../../emulator/emulator.c **** 						emu->PC += offset;
 734:../../emulator/emulator.c **** 						return 0;
 735:../../emulator/emulator.c **** 					}
 736:../../emulator/emulator.c **** 					break;
 737:../../emulator/emulator.c **** 
 738:../../emulator/emulator.c **** 				case 1:
 739:../../emulator/emulator.c **** 					/* BNE */
 740:../../emulator/emulator.c **** #ifdef DEBUG
 741:../../emulator/emulator.c **** 					printf("bne r%d, r%d, pc%+d\n", rs1, rs2, offset);
 742:../../emulator/emulator.c **** #endif
 743:../../emulator/emulator.c **** 					if(emu->Registers[rs1] != emu->Registers[rs2])
 744:../../emulator/emulator.c **** 					{
 745:../../emulator/emulator.c **** 						emu->PC += offset;
 746:../../emulator/emulator.c **** 						return 0;
 747:../../emulator/emulator.c **** 					}
 748:../../emulator/emulator.c **** 					break;
 749:../../emulator/emulator.c **** 
 750:../../emulator/emulator.c **** 				case 4:
 751:../../emulator/emulator.c **** 					/* BLT */
 752:../../emulator/emulator.c **** #ifdef DEBUG
 753:../../emulator/emulator.c **** 					printf("blt r%d, r%d, pc%+d\n", rs1, rs2, offset);
 754:../../emulator/emulator.c **** #endif
 755:../../emulator/emulator.c **** 					if((i32)emu->Registers[rs1] < (i32)emu->Registers[rs2])
 756:../../emulator/emulator.c **** 					{
 757:../../emulator/emulator.c **** 						emu->PC += offset;
 758:../../emulator/emulator.c **** 						return 0;
 759:../../emulator/emulator.c **** 					}
 760:../../emulator/emulator.c **** 					break;
 761:../../emulator/emulator.c **** 
 762:../../emulator/emulator.c **** 				case 5:
 763:../../emulator/emulator.c **** 					/* BGE */
 764:../../emulator/emulator.c **** #ifdef DEBUG
 765:../../emulator/emulator.c **** 					printf("bge r%d, r%d, pc%+d\n", rs1, rs2, offset);
 766:../../emulator/emulator.c **** #endif
 767:../../emulator/emulator.c **** 					if((i32)emu->Registers[rs1] >= (i32)emu->Registers[rs2])
 768:../../emulator/emulator.c **** 					{
 769:../../emulator/emulator.c **** 						emu->PC += offset;
 770:../../emulator/emulator.c **** 						return 0;
 771:../../emulator/emulator.c **** 					}
 772:../../emulator/emulator.c **** 					break;
 773:../../emulator/emulator.c **** 
 774:../../emulator/emulator.c **** 				case 6:
 775:../../emulator/emulator.c **** 					/* BLTU */
 776:../../emulator/emulator.c **** #ifdef DEBUG
 777:../../emulator/emulator.c **** 					printf("bltu r%d, r%d, pc%+d\n", rs1, rs2, offset);
 778:../../emulator/emulator.c **** #endif
 779:../../emulator/emulator.c **** 					if(emu->Registers[rs1] < emu->Registers[rs2])
 780:../../emulator/emulator.c **** 					{
 781:../../emulator/emulator.c **** 						emu->PC += offset;
 782:../../emulator/emulator.c **** 						return 0;
 783:../../emulator/emulator.c **** 					}
 784:../../emulator/emulator.c **** 					break;
 785:../../emulator/emulator.c **** 
 786:../../emulator/emulator.c **** 				case 7:
 787:../../emulator/emulator.c **** 					/* BGEU */
 788:../../emulator/emulator.c **** #ifdef DEBUG
 789:../../emulator/emulator.c **** 					printf("bgeu r%d, r%d, pc%+d\n", rs1, rs2, offset);
 790:../../emulator/emulator.c **** #endif
 791:../../emulator/emulator.c **** 					if(emu->Registers[rs1] >= emu->Registers[rs2])
 792:../../emulator/emulator.c **** 					{
 793:../../emulator/emulator.c **** 						emu->PC += offset;
 794:../../emulator/emulator.c **** 						return 0;
 795:../../emulator/emulator.c **** 					}
 796:../../emulator/emulator.c **** 					break;
 797:../../emulator/emulator.c **** 
 798:../../emulator/emulator.c **** 				default:
 799:../../emulator/emulator.c **** 					/* INVALID */
 800:../../emulator/emulator.c **** #ifdef DEBUG
 801:../../emulator/emulator.c **** 					printf("INVALID\n");
 802:../../emulator/emulator.c **** #endif
 803:../../emulator/emulator.c **** 					return -1;
 804:../../emulator/emulator.c **** 			}
 805:../../emulator/emulator.c **** 			break;
 806:../../emulator/emulator.c **** 		}
 807:../../emulator/emulator.c **** 
 808:../../emulator/emulator.c **** 		case OPCODE_JAL:
 809:../../emulator/emulator.c **** 		{
 810:../../emulator/emulator.c **** 			i32 offset;
 811:../../emulator/emulator.c **** 			u32 rd, imm;
 812:../../emulator/emulator.c **** 			rd = (instr >> 7) & 0x1F;
 813:../../emulator/emulator.c **** 
 814:../../emulator/emulator.c **** 			imm = ((instr & 0x80000000) >> 12) |
 815:../../emulator/emulator.c **** 					(instr & 0xFF000) |
 816:../../emulator/emulator.c **** 					((instr & 0x100000) >> 9) |
 817:../../emulator/emulator.c **** 					((instr & 0x7FE00000) >> 20);
 818:../../emulator/emulator.c **** 
 819:../../emulator/emulator.c **** 			offset = sext(20, imm);
 820:../../emulator/emulator.c **** #ifdef DEBUG
 821:../../emulator/emulator.c **** 			printf("jal r%d, pc%+d\n", rd, offset);
 822:../../emulator/emulator.c **** #endif
 823:../../emulator/emulator.c **** 			emu->Registers[rd] = emu->PC + 4;
 824:../../emulator/emulator.c **** 			emu->PC += offset;
 825:../../emulator/emulator.c **** 			return 0;
 826:../../emulator/emulator.c **** 		}
 827:../../emulator/emulator.c **** 
 828:../../emulator/emulator.c **** 		case OPCODE_JALR:
 829:../../emulator/emulator.c **** 		{
 830:../../emulator/emulator.c **** 			i32 offset;
 831:../../emulator/emulator.c **** 			u32 rd, rs1, imm;
 832:../../emulator/emulator.c **** 			rd = (instr >> 7) & 0x1F;
 833:../../emulator/emulator.c **** 			rs1 = (instr >> 15) & 0x1F;
 834:../../emulator/emulator.c **** 			imm = (instr >> 20) & ~1;
 835:../../emulator/emulator.c **** 
 836:../../emulator/emulator.c **** 			offset = sext(12, imm);
 837:../../emulator/emulator.c **** #ifdef DEBUG
 838:../../emulator/emulator.c **** 			printf("jalr r%d, r%d%+d\n", rd, rs1, offset);
 839:../../emulator/emulator.c **** #endif
 840:../../emulator/emulator.c **** 			emu->Registers[rd] = emu->PC + 4;
 841:../../emulator/emulator.c **** 			emu->PC = emu->Registers[rs1] + offset;
 842:../../emulator/emulator.c **** 			return 0;
 843:../../emulator/emulator.c **** 		}
 844:../../emulator/emulator.c **** 
 845:../../emulator/emulator.c **** 		default:
 846:../../emulator/emulator.c **** 			/* INVALID */
 847:../../emulator/emulator.c **** #ifdef DEBUG
 848:../../emulator/emulator.c **** 			printf("INVALID\n");
 849:../../emulator/emulator.c **** #endif
 850:../../emulator/emulator.c **** 			return -1;
 851:../../emulator/emulator.c **** 	}
 852:../../emulator/emulator.c **** 
 853:../../emulator/emulator.c **** #ifdef DEBUG
 854:../../emulator/emulator.c **** 	end = clock();
 855:../../emulator/emulator.c **** 	time_spent = (double)(end - begin) / CLOCKS_PER_SEC;
 856:../../emulator/emulator.c **** 	printf("time spent = %f\n", time_spent);
 857:../../emulator/emulator.c **** #endif
 858:../../emulator/emulator.c **** 
 859:../../emulator/emulator.c **** 	emu->PC += 4;
 860:../../emulator/emulator.c **** 	return 0;
 861:../../emulator/emulator.c **** }
 862:../../emulator/emulator.c **** 
 863:../../emulator/emulator.c **** #define BOLDRED   "\033[1m\033[31m"
 864:../../emulator/emulator.c **** #define RESET     "\033[0m"
 865:../../emulator/emulator.c **** 
 866:../../emulator/emulator.c **** i32 emulator_call(Emulator *emu, u32 addr, u32 *args, u32 num, u32 sp, u32 max_instr)
 867:../../emulator/emulator.c **** {
 697               		.loc 1 867 1 is_stmt 1 view -0
 698               		.cfi_startproc
 699               		.loc 1 867 1 is_stmt 0 view .LVU94
 700 02c4 2F92      		push r2
 701               		.cfi_def_cfa_offset 3
 702               		.cfi_offset 2, -2
 703 02c6 3F92      		push r3
 704               		.cfi_def_cfa_offset 4
 705               		.cfi_offset 3, -3
 706 02c8 4F92      		push r4
 707               		.cfi_def_cfa_offset 5
 708               		.cfi_offset 4, -4
 709 02ca 5F92      		push r5
 710               		.cfi_def_cfa_offset 6
 711               		.cfi_offset 5, -5
 712 02cc 6F92      		push r6
 713               		.cfi_def_cfa_offset 7
 714               		.cfi_offset 6, -6
 715 02ce 7F92      		push r7
 716               		.cfi_def_cfa_offset 8
 717               		.cfi_offset 7, -7
 718 02d0 8F92      		push r8
 719               		.cfi_def_cfa_offset 9
 720               		.cfi_offset 8, -8
 721 02d2 9F92      		push r9
 722               		.cfi_def_cfa_offset 10
 723               		.cfi_offset 9, -9
 724 02d4 AF92      		push r10
 725               		.cfi_def_cfa_offset 11
 726               		.cfi_offset 10, -10
 727 02d6 BF92      		push r11
 728               		.cfi_def_cfa_offset 12
 729               		.cfi_offset 11, -11
 730 02d8 CF92      		push r12
 731               		.cfi_def_cfa_offset 13
 732               		.cfi_offset 12, -12
 733 02da DF92      		push r13
 734               		.cfi_def_cfa_offset 14
 735               		.cfi_offset 13, -13
 736 02dc EF92      		push r14
 737               		.cfi_def_cfa_offset 15
 738               		.cfi_offset 14, -14
 739 02de FF92      		push r15
 740               		.cfi_def_cfa_offset 16
 741               		.cfi_offset 15, -15
 742 02e0 0F93      		push r16
 743               		.cfi_def_cfa_offset 17
 744               		.cfi_offset 16, -16
 745 02e2 1F93      		push r17
 746               		.cfi_def_cfa_offset 18
 747               		.cfi_offset 17, -17
 748 02e4 CF93      		push r28
 749               		.cfi_def_cfa_offset 19
 750               		.cfi_offset 28, -18
 751 02e6 DF93      		push r29
 752               		.cfi_def_cfa_offset 20
 753               		.cfi_offset 29, -19
 754 02e8 CDB7      		in r28,__SP_L__
 755 02ea DEB7      		in r29,__SP_H__
 756               		.cfi_def_cfa_register 28
 757 02ec 6697      		sbiw r28,22
 758               		.cfi_def_cfa_offset 42
 759 02ee 0FB6      		in __tmp_reg__,__SREG__
 760 02f0 F894      		cli
 761 02f2 DEBF      		out __SP_H__,r29
 762 02f4 0FBE      		out __SREG__,__tmp_reg__
 763 02f6 CDBF      		out __SP_L__,r28
 764               	/* prologue: function */
 765               	/* frame size = 22 */
 766               	/* stack size = 40 */
 767               	.L__stack_usage = 40
 768 02f8 4C01      		movw r8,r24
 868:../../emulator/emulator.c **** 	u32 i;
 769               		.loc 1 868 2 is_stmt 1 view .LVU95
 869:../../emulator/emulator.c **** 
 870:../../emulator/emulator.c **** 	/* Initialize Stack Pointer at end of memory */
 871:../../emulator/emulator.c **** 	emu->Registers[2] = sp;
 770               		.loc 1 871 2 view .LVU96
 771               		.loc 1 871 20 is_stmt 0 view .LVU97
 772 02fa FC01      		movw r30,r24
 773 02fc A48A      		std Z+20,r10
 774 02fe B58A      		std Z+21,r11
 775 0300 C68A      		std Z+22,r12
 776 0302 D78A      		std Z+23,r13
 872:../../emulator/emulator.c **** 
 873:../../emulator/emulator.c **** 	emu->PC = addr;
 777               		.loc 1 873 2 is_stmt 1 view .LVU98
 778               		.loc 1 873 10 is_stmt 0 view .LVU99
 779 0304 4087      		std Z+8,r20
 780 0306 5187      		std Z+9,r21
 781 0308 6287      		std Z+10,r22
 782 030a 7387      		std Z+11,r23
 874:../../emulator/emulator.c **** 	memcpy(&emu->Registers[10], args, num * sizeof(*emu->Registers));
 783               		.loc 1 874 2 is_stmt 1 view .LVU100
 784               		.loc 1 874 9 is_stmt 0 view .LVU101
 785 030c 1C01      		movw r2,r24
 786 030e F4E3      		ldi r31,52
 787 0310 2F0E      		add r2,r31
 788 0312 311C      		adc r3,__zero_reg__
 789               		.loc 1 874 2 view .LVU102
 790 0314 A701      		movw r20,r14
 791               	.LVL42:
 792               		.loc 1 874 2 view .LVU103
 793 0316 440F      		lsl r20
 794 0318 551F      		rol r21
 795 031a 440F      		lsl r20
 796 031c 551F      		rol r21
 797 031e B901      		movw r22,r18
 798 0320 C101      		movw r24,r2
 799               	.LVL43:
 800               		.loc 1 874 2 view .LVU104
 801 0322 0E94 0000 		call memcpy
 802               	.LVL44:
 875:../../emulator/emulator.c **** 
 876:../../emulator/emulator.c **** 	_finished = false;
 803               		.loc 1 876 2 is_stmt 1 view .LVU105
 804               		.loc 1 876 12 is_stmt 0 view .LVU106
 805 0326 1092 0000 		sts _finished,__zero_reg__
 877:../../emulator/emulator.c **** 	for(i = 0; i < max_instr; ++i)
 806               		.loc 1 877 2 is_stmt 1 view .LVU107
 807               	.LVL45:
 808               		.loc 1 877 8 is_stmt 0 view .LVU108
 809 032a 1986      		std Y+9,__zero_reg__
 810 032c 1A86      		std Y+10,__zero_reg__
 811 032e 1B86      		std Y+11,__zero_reg__
 812 0330 1C86      		std Y+12,__zero_reg__
 813               	.LBB118:
 814               	.LBB119:
 815               	.LBB120:
 816               	.LBB121:
 139:../../emulator/emulator.c **** 	return value;
 817               		.loc 1 139 2 view .LVU109
 818 0332 9E01      		movw r18,r28
 819 0334 2F5F      		subi r18,-1
 820 0336 3F4F      		sbci r19,-1
 821 0338 5901      		movw r10,r18
 822               	.LVL46:
 139:../../emulator/emulator.c **** 	return value;
 823               		.loc 1 139 2 view .LVU110
 824               	.LBE121:
 825               	.LBE120:
 303:../../emulator/emulator.c **** 			{
 826               		.loc 1 303 7 view .LVU111
 827 033a A401      		movw r20,r8
 828 033c 405B      		subi r20,-80
 829 033e 5F4F      		sbci r21,-1
 830 0340 5A8B      		std Y+18,r21
 831 0342 498B      		std Y+17,r20
 832               	.LVL47:
 833               	.L18:
 303:../../emulator/emulator.c **** 			{
 834               		.loc 1 303 7 view .LVU112
 835               	.LBE119:
 836               	.LBE118:
 837               		.loc 1 877 15 is_stmt 1 discriminator 1 view .LVU113
 838 0344 4984      		ldd r4,Y+9
 839 0346 5A84      		ldd r5,Y+10
 840 0348 6B84      		ldd r6,Y+11
 841 034a 7C84      		ldd r7,Y+12
 842 034c CBA4      		ldd r12,Y+43
 843 034e DCA4      		ldd r13,Y+44
 844 0350 EDA4      		ldd r14,Y+45
 845 0352 FEA4      		ldd r15,Y+46
 846 0354 4C14      		cp r4,r12
 847 0356 5D04      		cpc r5,r13
 848 0358 6E04      		cpc r6,r14
 849 035a 7F04      		cpc r7,r15
 850 035c 01F4      		brne .L83
 851               	.LBB228:
 852               	.LBI228:
 866:../../emulator/emulator.c **** {
 853               		.loc 1 866 5 view .LVU114
 854               	.LVL48:
 855               	.LBB229:
 878:../../emulator/emulator.c **** 	{
 879:../../emulator/emulator.c **** 		emulator_next(emu);
 880:../../emulator/emulator.c **** 		if(_finished)
 881:../../emulator/emulator.c **** 		{
 882:../../emulator/emulator.c **** 			return 0;
 883:../../emulator/emulator.c **** 		}
 884:../../emulator/emulator.c **** 	}
 885:../../emulator/emulator.c **** 
 886:../../emulator/emulator.c **** 	/* TODO */
 887:../../emulator/emulator.c **** 	fprintf(stderr, BOLDRED "INSTRUCTION LIMIT EXCEEDED!\n" RESET);
 856               		.loc 1 887 2 view .LVU115
 857 035e 80E0      		ldi r24,lo8(.LC0)
 858 0360 90E0      		ldi r25,hi8(.LC0)
 859 0362 9F93      		push r25
 860               	.LVL49:
 861               		.loc 1 887 2 is_stmt 0 view .LVU116
 862 0364 8F93      		push r24
 863 0366 8091 0000 		lds r24,__iob+5
 864 036a 8F93      		push r24
 865 036c 8091 0000 		lds r24,__iob+4
 866 0370 8F93      		push r24
 867 0372 0E94 0000 		call fprintf
 868               	.LVL50:
 888:../../emulator/emulator.c **** 	exit(1);
 869               		.loc 1 888 2 is_stmt 1 view .LVU117
 870 0376 81E0      		ldi r24,lo8(1)
 871 0378 90E0      		ldi r25,0
 872 037a 0E94 0000 		call exit
 873               	.LVL51:
 874               	.L83:
 875               		.loc 1 888 2 is_stmt 0 view .LVU118
 876               	.LBE229:
 877               	.LBE228:
 879:../../emulator/emulator.c **** 		if(_finished)
 878               		.loc 1 879 3 is_stmt 1 view .LVU119
 879               	.LBB230:
 880               	.LBI118:
 273:../../emulator/emulator.c **** {
 881               		.loc 1 273 12 view .LVU120
 882               	.LBB226:
 282:../../emulator/emulator.c **** 	instr = memory_lw(emu->PC);
 883               		.loc 1 282 2 view .LVU121
 283:../../emulator/emulator.c **** 
 884               		.loc 1 283 2 view .LVU122
 885               	.LBB123:
 886               	.LBI120:
 136:../../emulator/emulator.c **** {
 887               		.loc 1 136 12 view .LVU123
 888               	.LBB122:
 138:../../emulator/emulator.c **** 	memory_read(addr, &value, 4);
 889               		.loc 1 138 2 view .LVU124
 139:../../emulator/emulator.c **** 	return value;
 890               		.loc 1 139 2 view .LVU125
 891 037e D401      		movw r26,r8
 892 0380 1896      		adiw r26,8
 893 0382 6D91      		ld r22,X+
 894 0384 7D91      		ld r23,X+
 895 0386 8D91      		ld r24,X+
 896 0388 9C91      		ld r25,X
 897 038a 1B97      		sbiw r26,8+3
 898 038c 6D83      		std Y+5,r22
 899 038e 7E83      		std Y+6,r23
 900 0390 8F83      		std Y+7,r24
 901 0392 9887      		std Y+8,r25
 902 0394 04E0      		ldi r16,lo8(4)
 903 0396 10E0      		ldi r17,0
 904 0398 20E0      		ldi r18,0
 905 039a 30E0      		ldi r19,0
 906 039c A501      		movw r20,r10
 907 039e 0E94 0000 		call memory_read
 908               	.LVL52:
 140:../../emulator/emulator.c **** }
 909               		.loc 1 140 2 view .LVU126
 140:../../emulator/emulator.c **** }
 910               		.loc 1 140 9 is_stmt 0 view .LVU127
 911 03a2 8981      		ldd r24,Y+1
 912 03a4 9A81      		ldd r25,Y+2
 913 03a6 AB81      		ldd r26,Y+3
 914 03a8 BC81      		ldd r27,Y+4
 915               	.LVL53:
 140:../../emulator/emulator.c **** }
 916               		.loc 1 140 9 view .LVU128
 917               	.LBE122:
 918               	.LBE123:
 286:../../emulator/emulator.c **** 
 919               		.loc 1 286 2 is_stmt 1 view .LVU129
 286:../../emulator/emulator.c **** 
 920               		.loc 1 286 20 is_stmt 0 view .LVU130
 921 03aa F401      		movw r30,r8
 922 03ac 1486      		std Z+12,__zero_reg__
 923 03ae 1586      		std Z+13,__zero_reg__
 924 03b0 1686      		std Z+14,__zero_reg__
 925 03b2 1786      		std Z+15,__zero_reg__
 289:../../emulator/emulator.c **** 	if((opcode & 0x03) != 0x03)
 926               		.loc 1 289 2 is_stmt 1 view .LVU131
 927               	.LVL54:
 290:../../emulator/emulator.c **** 	{
 928               		.loc 1 290 2 view .LVU132
 290:../../emulator/emulator.c **** 	{
 929               		.loc 1 290 13 is_stmt 0 view .LVU133
 930 03b4 8C01      		movw r16,r24
 931 03b6 9D01      		movw r18,r26
 932 03b8 0370      		andi r16,3
 933 03ba 1127      		clr r17
 934 03bc 2227      		clr r18
 935 03be 3327      		clr r19
 936 03c0 A501      		movw r20,r10
 290:../../emulator/emulator.c **** 	{
 937               		.loc 1 290 4 view .LVU134
 938 03c2 0330      		cpi r16,3
 939 03c4 1105      		cpc r17,__zero_reg__
 940 03c6 2105      		cpc r18,__zero_reg__
 941 03c8 3105      		cpc r19,__zero_reg__
 942 03ca 01F0      		breq .+2
 943 03cc 00C0      		rjmp .L19
 299:../../emulator/emulator.c **** 	switch(opcode)
 944               		.loc 1 299 2 is_stmt 1 view .LVU135
 945               	.LVL55:
 300:../../emulator/emulator.c **** 	{
 946               		.loc 1 300 2 view .LVU136
 299:../../emulator/emulator.c **** 	switch(opcode)
 947               		.loc 1 299 9 is_stmt 0 view .LVU137
 948 03ce 8C01      		movw r16,r24
 949 03d0 9D01      		movw r18,r26
 950 03d2 62E0      		ldi r22,2
 951               		1:
 952 03d4 3695      		lsr r19
 953 03d6 2795      		ror r18
 954 03d8 1795      		ror r17
 955 03da 0795      		ror r16
 956 03dc 6A95      		dec r22
 957 03de 01F4      		brne 1b
 958 03e0 0F71      		andi r16,31
 959 03e2 1127      		clr r17
 960 03e4 2227      		clr r18
 961 03e6 3327      		clr r19
 962               	.LVL56:
 300:../../emulator/emulator.c **** 	{
 963               		.loc 1 300 2 view .LVU138
 964 03e8 0D31      		cpi r16,29
 965 03ea 1105      		cpc r17,__zero_reg__
 966 03ec 2105      		cpc r18,__zero_reg__
 967 03ee 3105      		cpc r19,__zero_reg__
 968 03f0 00F0      		brlo .+2
 969 03f2 00C0      		rjmp .L19
 970 03f4 F801      		movw r30,r16
 971 03f6 E050      		subi r30,lo8(-(gs(.L21)))
 972 03f8 F040      		sbci r31,hi8(-(gs(.L21)))
 973 03fa 0C94 0000 		jmp __tablejump2__
 974               		.section	.jumptables.gcc.emulator_call,"a",@progbits
 975               		.p2align	1
 976               	.L21:
 977 0000 0000      		.word gs(.L30)
 978 0002 0000      		.word gs(.L19)
 979 0004 0000      		.word gs(.L19)
 980 0006 0000      		.word gs(.L19)
 981 0008 0000      		.word gs(.L29)
 982 000a 0000      		.word gs(.L28)
 983 000c 0000      		.word gs(.L19)
 984 000e 0000      		.word gs(.L19)
 985 0010 0000      		.word gs(.L27)
 986 0012 0000      		.word gs(.L19)
 987 0014 0000      		.word gs(.L19)
 988 0016 0000      		.word gs(.L19)
 989 0018 0000      		.word gs(.L26)
 990 001a 0000      		.word gs(.L25)
 991 001c 0000      		.word gs(.L19)
 992 001e 0000      		.word gs(.L19)
 993 0020 0000      		.word gs(.L19)
 994 0022 0000      		.word gs(.L19)
 995 0024 0000      		.word gs(.L19)
 996 0026 0000      		.word gs(.L19)
 997 0028 0000      		.word gs(.L19)
 998 002a 0000      		.word gs(.L19)
 999 002c 0000      		.word gs(.L19)
 1000 002e 0000      		.word gs(.L19)
 1001 0030 0000      		.word gs(.L24)
 1002 0032 0000      		.word gs(.L23)
 1003 0034 0000      		.word gs(.L19)
 1004 0036 0000      		.word gs(.L22)
 1005 0038 0000      		.word gs(.L20)
 1006               		.text
 1007               	.L20:
 303:../../emulator/emulator.c **** 			{
 1008               		.loc 1 303 4 is_stmt 1 view .LVU139
 303:../../emulator/emulator.c **** 			{
 1009               		.loc 1 303 7 is_stmt 0 view .LVU140
 1010 03fe E989      		ldd r30,Y+17
 1011 0400 FA89      		ldd r31,Y+18
 1012 0402 8081      		ld r24,Z
 1013 0404 9181      		ldd r25,Z+1
 1014 0406 A281      		ldd r26,Z+2
 1015 0408 B381      		ldd r27,Z+3
 1016               	.LVL57:
 1017               	.LBB124:
 1018               	.LBI124:
 245:../../emulator/emulator.c **** {
 1019               		.loc 1 245 12 is_stmt 1 view .LVU141
 1020               	.LBB125:
 247:../../emulator/emulator.c **** 	{
 1021               		.loc 1 247 2 view .LVU142
 247:../../emulator/emulator.c **** 	{
 1022               		.loc 1 247 4 is_stmt 0 view .LVU143
 1023 040a 8E30      		cpi r24,14
 1024 040c 9105      		cpc r25,__zero_reg__
 1025 040e A105      		cpc r26,__zero_reg__
 1026 0410 B105      		cpc r27,__zero_reg__
 1027 0412 00F0      		brlo .+2
 1028 0414 00C0      		rjmp .L19
 252:../../emulator/emulator.c **** 	return 0;
 1029               		.loc 1 252 2 is_stmt 1 view .LVU144
 252:../../emulator/emulator.c **** 	return 0;
 1030               		.loc 1 252 20 is_stmt 0 view .LVU145
 1031 0416 880F      		lsl r24
 1032 0418 991F      		rol r25
 1033               	.LVL58:
 252:../../emulator/emulator.c **** 	return 0;
 1034               		.loc 1 252 20 view .LVU146
 1035 041a FC01      		movw r30,r24
 1036               	.LVL59:
 252:../../emulator/emulator.c **** 	return 0;
 1037               		.loc 1 252 20 view .LVU147
 1038 041c E050      		subi r30,lo8(-(syscalls))
 1039 041e F040      		sbci r31,hi8(-(syscalls))
 252:../../emulator/emulator.c **** 	return 0;
 1040               		.loc 1 252 12 view .LVU148
 1041 0420 0190      		ld __tmp_reg__,Z+
 1042 0422 F081      		ld r31,Z
 1043 0424 E02D      		mov r30,__tmp_reg__
 1044 0426 C101      		movw r24,r2
 1045 0428 0995      		icall
 1046               	.LVL60:
 252:../../emulator/emulator.c **** 	return 0;
 1047               		.loc 1 252 12 view .LVU149
 1048 042a D401      		movw r26,r8
 1049 042c D496      		adiw r26,52
 1050 042e 6D93      		st X+,r22
 1051 0430 7D93      		st X+,r23
 1052 0432 8D93      		st X+,r24
 1053 0434 9C93      		st X,r25
 1054 0436 D797      		sbiw r26,52+3
 253:../../emulator/emulator.c **** }
 1055               		.loc 1 253 2 is_stmt 1 view .LVU150
 1056               	.LVL61:
 1057               	.L31:
 253:../../emulator/emulator.c **** }
 1058               		.loc 1 253 2 is_stmt 0 view .LVU151
 1059               	.LBE125:
 1060               	.LBE124:
 859:../../emulator/emulator.c **** 	return 0;
 1061               		.loc 1 859 2 is_stmt 1 view .LVU152
 859:../../emulator/emulator.c **** 	return 0;
 1062               		.loc 1 859 10 is_stmt 0 view .LVU153
 1063 0438 F401      		movw r30,r8
 1064 043a 8085      		ldd r24,Z+8
 1065 043c 9185      		ldd r25,Z+9
 1066 043e A285      		ldd r26,Z+10
 1067 0440 B385      		ldd r27,Z+11
 1068 0442 0496      		adiw r24,4
 1069 0444 A11D      		adc r26,__zero_reg__
 1070 0446 B11D      		adc r27,__zero_reg__
 1071 0448 00C0      		rjmp .L97
 1072               	.LVL62:
 1073               	.L30:
 1074               	.LBB126:
 314:../../emulator/emulator.c **** 			u32 rd, rs1, funct3, imm;
 1075               		.loc 1 314 4 is_stmt 1 view .LVU154
 315:../../emulator/emulator.c **** 			rd = (instr >> 7) & 0x1F;
 1076               		.loc 1 315 4 view .LVU155
 316:../../emulator/emulator.c **** 			funct3 = (instr >> 12) & 0x07;
 1077               		.loc 1 316 4 view .LVU156
 316:../../emulator/emulator.c **** 			funct3 = (instr >> 12) & 0x07;
 1078               		.loc 1 316 16 is_stmt 0 view .LVU157
 1079 044a 6C01      		movw r12,r24
 1080 044c 7D01      		movw r14,r26
 1081 044e 67E0      		ldi r22,7
 1082               		1:
 1083 0450 F694      		lsr r15
 1084 0452 E794      		ror r14
 1085 0454 D794      		ror r13
 1086 0456 C794      		ror r12
 1087 0458 6A95      		dec r22
 1088 045a 01F4      		brne 1b
 316:../../emulator/emulator.c **** 			funct3 = (instr >> 12) & 0x07;
 1089               		.loc 1 316 7 view .LVU158
 1090 045c EFE1      		ldi r30,31
 1091 045e CE22      		and r12,r30
 1092 0460 DD24      		clr r13
 1093 0462 EE24      		clr r14
 1094 0464 FF24      		clr r15
 317:../../emulator/emulator.c **** 			rs1 = (instr >> 15) & 0x1F;
 1095               		.loc 1 317 4 is_stmt 1 view .LVU159
 317:../../emulator/emulator.c **** 			rs1 = (instr >> 15) & 0x1F;
 1096               		.loc 1 317 20 is_stmt 0 view .LVU160
 1097 0466 2C01      		movw r4,r24
 1098 0468 3D01      		movw r6,r26
 1099               	.LVL63:
 317:../../emulator/emulator.c **** 			rs1 = (instr >> 15) & 0x1F;
 1100               		.loc 1 317 20 view .LVU161
 1101 046a 7CE0      		ldi r23,12
 1102               		1:
 1103 046c 7694      		lsr r7
 1104 046e 6794      		ror r6
 1105 0470 5794      		ror r5
 1106 0472 4794      		ror r4
 1107 0474 7A95      		dec r23
 1108 0476 01F4      		brne 1b
 317:../../emulator/emulator.c **** 			rs1 = (instr >> 15) & 0x1F;
 1109               		.loc 1 317 11 view .LVU162
 1110 0478 F7E0      		ldi r31,7
 1111 047a 4F22      		and r4,r31
 1112 047c 5524      		clr r5
 1113 047e 6624      		clr r6
 1114 0480 7724      		clr r7
 1115               	.LVL64:
 318:../../emulator/emulator.c **** 			imm = (instr >> 20);
 1116               		.loc 1 318 4 is_stmt 1 view .LVU163
 318:../../emulator/emulator.c **** 			imm = (instr >> 20);
 1117               		.loc 1 318 17 is_stmt 0 view .LVU164
 1118 0482 8C01      		movw r16,r24
 1119 0484 9D01      		movw r18,r26
 1120               	.LVL65:
 318:../../emulator/emulator.c **** 			imm = (instr >> 20);
 1121               		.loc 1 318 17 view .LVU165
 1122 0486 EFE0      		ldi r30,15
 1123               		1:
 1124 0488 3695      		lsr r19
 1125 048a 2795      		ror r18
 1126 048c 1795      		ror r17
 1127 048e 0795      		ror r16
 1128 0490 EA95      		dec r30
 1129 0492 01F4      		brne 1b
 318:../../emulator/emulator.c **** 			imm = (instr >> 20);
 1130               		.loc 1 318 8 view .LVU166
 1131 0494 0F71      		andi r16,31
 1132 0496 1127      		clr r17
 1133 0498 2227      		clr r18
 1134 049a 3327      		clr r19
 1135               	.LVL66:
 319:../../emulator/emulator.c **** 			offset = sext(12, imm);
 1136               		.loc 1 319 4 is_stmt 1 view .LVU167
 320:../../emulator/emulator.c **** 			switch(funct3)
 1137               		.loc 1 320 4 view .LVU168
 1138               	.LBB127:
 1139               	.LBI127:
  31:../../emulator/emulator.c **** {
 1140               		.loc 1 31 19 view .LVU169
 1141               	.LBB128:
  33:../../emulator/emulator.c **** 	return (value ^ m) - m;
 1142               		.loc 1 33 2 view .LVU170
  34:../../emulator/emulator.c **** }
 1143               		.loc 1 34 2 view .LVU171
 1144               	.LBE128:
 1145               	.LBE127:
 319:../../emulator/emulator.c **** 			offset = sext(12, imm);
 1146               		.loc 1 319 8 is_stmt 0 view .LVU172
 1147 049c F4E1      		ldi r31,20
 1148               		1:
 1149 049e B695      		lsr r27
 1150 04a0 A795      		ror r26
 1151 04a2 9795      		ror r25
 1152 04a4 8795      		ror r24
 1153 04a6 FA95      		dec r31
 1154 04a8 01F4      		brne 1b
 1155               	.LVL67:
 1156               	.LBB130:
 1157               	.LBB129:
  34:../../emulator/emulator.c **** }
 1158               		.loc 1 34 16 view .LVU173
 1159 04aa 68E0      		ldi r22,8
 1160 04ac 9627      		eor r25,r22
 1161               	.LVL68:
  34:../../emulator/emulator.c **** }
 1162               		.loc 1 34 21 view .LVU174
 1163 04ae 9850      		subi r25,8
 1164 04b0 A109      		sbc r26,__zero_reg__
 1165 04b2 B109      		sbc r27,__zero_reg__
 1166               	.LVL69:
  34:../../emulator/emulator.c **** }
 1167               		.loc 1 34 21 view .LVU175
 1168               	.LBE129:
 1169               	.LBE130:
 321:../../emulator/emulator.c **** 			{
 1170               		.loc 1 321 4 is_stmt 1 view .LVU176
 1171 04b4 72E0      		ldi r23,2
 1172 04b6 4716      		cp r4,r23
 1173 04b8 5104      		cpc r5,__zero_reg__
 1174 04ba 6104      		cpc r6,__zero_reg__
 1175 04bc 7104      		cpc r7,__zero_reg__
 1176 04be 01F4      		brne .+2
 1177 04c0 00C0      		rjmp .L32
 1178 04c2 00F4      		brsh .L33
 1179 04c4 0D5F      		subi r16,-3
 1180 04c6 1F4F      		sbci r17,-1
 1181               	.LVL70:
 321:../../emulator/emulator.c **** 			{
 1182               		.loc 1 321 4 is_stmt 0 view .LVU177
 1183 04c8 9601      		movw r18,r12
 1184 04ca 2D5F      		subi r18,-3
 1185 04cc 3F4F      		sbci r19,-1
 1186 04ce 6901      		movw r12,r18
 1187 04d0 4528      		or r4,r5
 1188 04d2 4628      		or r4,r6
 1189 04d4 4728      		or r4,r7
 1190 04d6 01F0      		breq .+2
 1191 04d8 00C0      		rjmp .L84
 328:../../emulator/emulator.c **** 					break;
 1192               		.loc 1 328 6 is_stmt 1 view .LVU178
 1193               	.LVL71:
 1194               	.LBB131:
 1195               	.LBI131:
 122:../../emulator/emulator.c **** {
 1196               		.loc 1 122 12 view .LVU179
 1197               	.LBB132:
 124:../../emulator/emulator.c **** 	memory_read(addr, &value8, 1);
 1198               		.loc 1 124 2 view .LVU180
 125:../../emulator/emulator.c **** 	return (i32)value8;
 1199               		.loc 1 125 2 view .LVU181
 1200               	.LBE132:
 1201               	.LBE131:
 328:../../emulator/emulator.c **** 					break;
 1202               		.loc 1 328 51 is_stmt 0 view .LVU182
 1203 04da F801      		movw r30,r16
 1204 04dc EE0F      		lsl r30
 1205 04de FF1F      		rol r31
 1206 04e0 EE0F      		lsl r30
 1207 04e2 FF1F      		rol r31
 1208 04e4 E80D      		add r30,r8
 1209 04e6 F91D      		adc r31,r9
 328:../../emulator/emulator.c **** 					break;
 1210               		.loc 1 328 27 view .LVU183
 1211 04e8 0081      		ld r16,Z
 1212 04ea 1181      		ldd r17,Z+1
 1213 04ec 2281      		ldd r18,Z+2
 1214 04ee 3381      		ldd r19,Z+3
 1215 04f0 2C01      		movw r4,r24
 1216 04f2 3D01      		movw r6,r26
 1217               	.LVL72:
 328:../../emulator/emulator.c **** 					break;
 1218               		.loc 1 328 27 view .LVU184
 1219 04f4 400E      		add r4,r16
 1220 04f6 511E      		adc r5,r17
 1221 04f8 621E      		adc r6,r18
 1222 04fa 731E      		adc r7,r19
 1223 04fc 4D82      		std Y+5,r4
 1224 04fe 5E82      		std Y+6,r5
 1225 0500 6F82      		std Y+7,r6
 1226 0502 7886      		std Y+8,r7
 1227               	.LBB134:
 1228               	.LBB133:
 125:../../emulator/emulator.c **** 	return (i32)value8;
 1229               		.loc 1 125 2 view .LVU185
 1230 0504 01E0      		ldi r16,lo8(1)
 1231 0506 10E0      		ldi r17,0
 1232 0508 20E0      		ldi r18,0
 1233 050a 30E0      		ldi r19,0
 1234 050c C301      		movw r24,r6
 1235 050e B201      		movw r22,r4
 1236 0510 0E94 0000 		call memory_read
 1237               	.LVL73:
 126:../../emulator/emulator.c **** }
 1238               		.loc 1 126 2 is_stmt 1 view .LVU186
 126:../../emulator/emulator.c **** }
 1239               		.loc 1 126 9 is_stmt 0 view .LVU187
 1240 0514 8981      		ldd r24,Y+1
 1241 0516 082E      		mov __tmp_reg__,r24
 1242 0518 000C      		lsl r0
 1243 051a 990B      		sbc r25,r25
 1244 051c AA0B      		sbc r26,r26
 1245 051e BB0B      		sbc r27,r27
 1246               	.LVL74:
 1247               	.L87:
 126:../../emulator/emulator.c **** }
 1248               		.loc 1 126 9 view .LVU188
 1249               	.LBE133:
 1250               	.LBE134:
 336:../../emulator/emulator.c **** 					break;
 1251               		.loc 1 336 25 view .LVU189
 1252 0520 F601      		movw r30,r12
 1253               	.L89:
 1254 0522 EE0F      		lsl r30
 1255 0524 FF1F      		rol r31
 1256 0526 EE0F      		lsl r30
 1257 0528 FF1F      		rol r31
 1258 052a E80D      		add r30,r8
 1259 052c F91D      		adc r31,r9
 1260               	.LVL75:
 1261               	.L88:
 336:../../emulator/emulator.c **** 					break;
 1262               		.loc 1 336 25 view .LVU190
 1263 052e 8083      		st Z,r24
 1264 0530 9183      		std Z+1,r25
 1265 0532 A283      		std Z+2,r26
 1266 0534 B383      		std Z+3,r27
 337:../../emulator/emulator.c **** 
 1267               		.loc 1 337 6 is_stmt 1 view .LVU191
 1268 0536 00C0      		rjmp .L31
 1269               	.LVL76:
 1270               	.L33:
 337:../../emulator/emulator.c **** 
 1271               		.loc 1 337 6 is_stmt 0 view .LVU192
 1272 0538 64E0      		ldi r22,4
 1273 053a 4616      		cp r4,r22
 1274 053c 5104      		cpc r5,__zero_reg__
 1275 053e 6104      		cpc r6,__zero_reg__
 1276 0540 7104      		cpc r7,__zero_reg__
 1277 0542 01F4      		brne .+2
 1278 0544 00C0      		rjmp .L36
 1279 0546 75E0      		ldi r23,5
 1280 0548 4716      		cp r4,r23
 1281 054a 5104      		cpc r5,__zero_reg__
 1282 054c 6104      		cpc r6,__zero_reg__
 1283 054e 7104      		cpc r7,__zero_reg__
 1284 0550 01F4      		brne .+2
 1285 0552 00C0      		rjmp .L37
 1286               	.LVL77:
 1287               	.L19:
 337:../../emulator/emulator.c **** 
 1288               		.loc 1 337 6 view .LVU193
 1289               	.LBE126:
 1290               	.LBE226:
 1291               	.LBE230:
 880:../../emulator/emulator.c **** 		{
 1292               		.loc 1 880 3 is_stmt 1 view .LVU194
 880:../../emulator/emulator.c **** 		{
 1293               		.loc 1 880 5 is_stmt 0 view .LVU195
 1294 0554 8091 0000 		lds r24,_finished
 1295 0558 8111      		cpse r24,__zero_reg__
 1296 055a 00C0      		rjmp .L86
 877:../../emulator/emulator.c **** 	{
 1297               		.loc 1 877 28 is_stmt 1 discriminator 2 view .LVU196
 1298 055c 2985      		ldd r18,Y+9
 1299 055e 3A85      		ldd r19,Y+10
 1300 0560 4B85      		ldd r20,Y+11
 1301 0562 5C85      		ldd r21,Y+12
 1302 0564 2F5F      		subi r18,-1
 1303 0566 3F4F      		sbci r19,-1
 1304 0568 4F4F      		sbci r20,-1
 1305 056a 5F4F      		sbci r21,-1
 1306 056c 2987      		std Y+9,r18
 1307 056e 3A87      		std Y+10,r19
 1308 0570 4B87      		std Y+11,r20
 1309 0572 5C87      		std Y+12,r21
 1310               	.LVL78:
 877:../../emulator/emulator.c **** 	{
 1311               		.loc 1 877 28 is_stmt 0 discriminator 2 view .LVU197
 1312 0574 00C0      		rjmp .L18
 1313               	.LVL79:
 1314               	.L84:
 1315               	.LBB231:
 1316               	.LBB227:
 1317               	.LBB151:
 336:../../emulator/emulator.c **** 					break;
 1318               		.loc 1 336 6 is_stmt 1 view .LVU198
 1319               	.LBB135:
 1320               	.LBI135:
 129:../../emulator/emulator.c **** {
 1321               		.loc 1 129 12 view .LVU199
 1322               	.LBB136:
 131:../../emulator/emulator.c **** 	memory_read(addr, &value16, 2);
 1323               		.loc 1 131 2 view .LVU200
 132:../../emulator/emulator.c **** 	return (i32)value16;
 1324               		.loc 1 132 2 view .LVU201
 1325               	.LBE136:
 1326               	.LBE135:
 336:../../emulator/emulator.c **** 					break;
 1327               		.loc 1 336 51 is_stmt 0 view .LVU202
 1328 0576 F801      		movw r30,r16
 1329 0578 EE0F      		lsl r30
 1330 057a FF1F      		rol r31
 1331 057c EE0F      		lsl r30
 1332 057e FF1F      		rol r31
 1333 0580 E80D      		add r30,r8
 1334 0582 F91D      		adc r31,r9
 336:../../emulator/emulator.c **** 					break;
 1335               		.loc 1 336 27 view .LVU203
 1336 0584 0081      		ld r16,Z
 1337 0586 1181      		ldd r17,Z+1
 1338 0588 2281      		ldd r18,Z+2
 1339 058a 3381      		ldd r19,Z+3
 1340 058c 2C01      		movw r4,r24
 1341 058e 3D01      		movw r6,r26
 1342               	.LVL80:
 336:../../emulator/emulator.c **** 					break;
 1343               		.loc 1 336 27 view .LVU204
 1344 0590 400E      		add r4,r16
 1345 0592 511E      		adc r5,r17
 1346 0594 621E      		adc r6,r18
 1347 0596 731E      		adc r7,r19
 1348 0598 4D82      		std Y+5,r4
 1349 059a 5E82      		std Y+6,r5
 1350 059c 6F82      		std Y+7,r6
 1351 059e 7886      		std Y+8,r7
 1352               	.LBB138:
 1353               	.LBB137:
 132:../../emulator/emulator.c **** 	return (i32)value16;
 1354               		.loc 1 132 2 view .LVU205
 1355 05a0 02E0      		ldi r16,lo8(2)
 1356 05a2 10E0      		ldi r17,0
 1357 05a4 20E0      		ldi r18,0
 1358 05a6 30E0      		ldi r19,0
 1359 05a8 C301      		movw r24,r6
 1360 05aa B201      		movw r22,r4
 1361 05ac 0E94 0000 		call memory_read
 1362               	.LVL81:
 133:../../emulator/emulator.c **** }
 1363               		.loc 1 133 2 is_stmt 1 view .LVU206
 133:../../emulator/emulator.c **** }
 1364               		.loc 1 133 9 is_stmt 0 view .LVU207
 1365 05b0 8981      		ldd r24,Y+1
 1366 05b2 9A81      		ldd r25,Y+2
 1367 05b4 092E      		mov __tmp_reg__,r25
 1368 05b6 000C      		lsl r0
 1369 05b8 AA0B      		sbc r26,r26
 1370 05ba BB0B      		sbc r27,r27
 1371 05bc 00C0      		rjmp .L87
 1372               	.LVL82:
 1373               	.L32:
 133:../../emulator/emulator.c **** }
 1374               		.loc 1 133 9 view .LVU208
 1375               	.LBE137:
 1376               	.LBE138:
 344:../../emulator/emulator.c **** 					break;
 1377               		.loc 1 344 6 is_stmt 1 view .LVU209
 1378               	.LBB139:
 1379               	.LBI139:
 136:../../emulator/emulator.c **** {
 1380               		.loc 1 136 12 view .LVU210
 1381               	.LBB140:
 138:../../emulator/emulator.c **** 	memory_read(addr, &value, 4);
 1382               		.loc 1 138 2 view .LVU211
 139:../../emulator/emulator.c **** 	return value;
 1383               		.loc 1 139 2 view .LVU212
 1384               	.LBE140:
 1385               	.LBE139:
 344:../../emulator/emulator.c **** 					break;
 1386               		.loc 1 344 51 is_stmt 0 view .LVU213
 1387 05be F801      		movw r30,r16
 1388 05c0 3396      		adiw r30,3
 1389 05c2 EE0F      		lsl r30
 1390 05c4 FF1F      		rol r31
 1391 05c6 EE0F      		lsl r30
 1392 05c8 FF1F      		rol r31
 1393 05ca E80D      		add r30,r8
 1394 05cc F91D      		adc r31,r9
 344:../../emulator/emulator.c **** 					break;
 1395               		.loc 1 344 27 view .LVU214
 1396 05ce 0081      		ld r16,Z
 1397 05d0 1181      		ldd r17,Z+1
 1398 05d2 2281      		ldd r18,Z+2
 1399 05d4 3381      		ldd r19,Z+3
 1400               	.LVL83:
 344:../../emulator/emulator.c **** 					break;
 1401               		.loc 1 344 27 view .LVU215
 1402 05d6 2C01      		movw r4,r24
 1403 05d8 3D01      		movw r6,r26
 1404               	.LVL84:
 344:../../emulator/emulator.c **** 					break;
 1405               		.loc 1 344 27 view .LVU216
 1406 05da 400E      		add r4,r16
 1407 05dc 511E      		adc r5,r17
 1408 05de 621E      		adc r6,r18
 1409 05e0 731E      		adc r7,r19
 1410 05e2 4D82      		std Y+5,r4
 1411 05e4 5E82      		std Y+6,r5
 1412 05e6 6F82      		std Y+7,r6
 1413 05e8 7886      		std Y+8,r7
 1414               	.LBB142:
 1415               	.LBB141:
 139:../../emulator/emulator.c **** 	return value;
 1416               		.loc 1 139 2 view .LVU217
 1417 05ea 04E0      		ldi r16,lo8(4)
 1418 05ec 10E0      		ldi r17,0
 1419 05ee 20E0      		ldi r18,0
 1420 05f0 30E0      		ldi r19,0
 1421 05f2 C301      		movw r24,r6
 1422 05f4 B201      		movw r22,r4
 1423 05f6 0E94 0000 		call memory_read
 1424               	.LVL85:
 140:../../emulator/emulator.c **** }
 1425               		.loc 1 140 2 is_stmt 1 view .LVU218
 140:../../emulator/emulator.c **** }
 1426               		.loc 1 140 9 is_stmt 0 view .LVU219
 1427 05fa 8981      		ldd r24,Y+1
 1428 05fc 9A81      		ldd r25,Y+2
 1429 05fe AB81      		ldd r26,Y+3
 1430 0600 BC81      		ldd r27,Y+4
 1431               	.LVL86:
 1432               	.L98:
 140:../../emulator/emulator.c **** }
 1433               		.loc 1 140 9 view .LVU220
 1434               	.LBE141:
 1435               	.LBE142:
 352:../../emulator/emulator.c **** 					break;
 1436               		.loc 1 352 25 view .LVU221
 1437 0602 F601      		movw r30,r12
 1438 0604 3396      		adiw r30,3
 1439 0606 00C0      		rjmp .L89
 1440               	.LVL87:
 1441               	.L36:
 352:../../emulator/emulator.c **** 					break;
 1442               		.loc 1 352 6 is_stmt 1 view .LVU222
 1443               	.LBB143:
 1444               	.LBI143:
 143:../../emulator/emulator.c **** {
 1445               		.loc 1 143 12 view .LVU223
 1446               	.LBB144:
 145:../../emulator/emulator.c **** 	memory_read(addr, &value8, 1);
 1447               		.loc 1 145 2 view .LVU224
 146:../../emulator/emulator.c **** 	return value8;
 1448               		.loc 1 146 2 view .LVU225
 1449               	.LBE144:
 1450               	.LBE143:
 352:../../emulator/emulator.c **** 					break;
 1451               		.loc 1 352 52 is_stmt 0 view .LVU226
 1452 0608 F801      		movw r30,r16
 1453 060a 3396      		adiw r30,3
 1454 060c EE0F      		lsl r30
 1455 060e FF1F      		rol r31
 1456 0610 EE0F      		lsl r30
 1457 0612 FF1F      		rol r31
 1458 0614 E80D      		add r30,r8
 1459 0616 F91D      		adc r31,r9
 352:../../emulator/emulator.c **** 					break;
 1460               		.loc 1 352 27 view .LVU227
 1461 0618 0081      		ld r16,Z
 1462 061a 1181      		ldd r17,Z+1
 1463 061c 2281      		ldd r18,Z+2
 1464 061e 3381      		ldd r19,Z+3
 1465               	.LVL88:
 352:../../emulator/emulator.c **** 					break;
 1466               		.loc 1 352 27 view .LVU228
 1467 0620 2C01      		movw r4,r24
 1468 0622 3D01      		movw r6,r26
 1469               	.LVL89:
 352:../../emulator/emulator.c **** 					break;
 1470               		.loc 1 352 27 view .LVU229
 1471 0624 400E      		add r4,r16
 1472 0626 511E      		adc r5,r17
 1473 0628 621E      		adc r6,r18
 1474 062a 731E      		adc r7,r19
 1475 062c 4D82      		std Y+5,r4
 1476 062e 5E82      		std Y+6,r5
 1477 0630 6F82      		std Y+7,r6
 1478 0632 7886      		std Y+8,r7
 1479               	.LBB146:
 1480               	.LBB145:
 146:../../emulator/emulator.c **** 	return value8;
 1481               		.loc 1 146 2 view .LVU230
 1482 0634 01E0      		ldi r16,lo8(1)
 1483 0636 10E0      		ldi r17,0
 1484 0638 20E0      		ldi r18,0
 1485 063a 30E0      		ldi r19,0
 1486 063c C301      		movw r24,r6
 1487 063e B201      		movw r22,r4
 1488 0640 0E94 0000 		call memory_read
 1489               	.LVL90:
 147:../../emulator/emulator.c **** }
 1490               		.loc 1 147 2 is_stmt 1 view .LVU231
 147:../../emulator/emulator.c **** }
 1491               		.loc 1 147 9 is_stmt 0 view .LVU232
 1492 0644 8981      		ldd r24,Y+1
 1493 0646 90E0      		ldi r25,0
 1494               	.LVL91:
 1495               	.L99:
 147:../../emulator/emulator.c **** }
 1496               		.loc 1 147 9 view .LVU233
 1497 0648 A0E0      		ldi r26,0
 1498 064a B0E0      		ldi r27,0
 1499 064c 00C0      		rjmp .L98
 1500               	.LVL92:
 1501               	.L37:
 147:../../emulator/emulator.c **** }
 1502               		.loc 1 147 9 view .LVU234
 1503               	.LBE145:
 1504               	.LBE146:
 360:../../emulator/emulator.c **** 					break;
 1505               		.loc 1 360 6 is_stmt 1 view .LVU235
 1506               	.LBB147:
 1507               	.LBI147:
 150:../../emulator/emulator.c **** {
 1508               		.loc 1 150 12 view .LVU236
 1509               	.LBB148:
 152:../../emulator/emulator.c **** 	memory_read(addr, &value16, 2);
 1510               		.loc 1 152 2 view .LVU237
 153:../../emulator/emulator.c **** 	return value16;
 1511               		.loc 1 153 2 view .LVU238
 1512               	.LBE148:
 1513               	.LBE147:
 360:../../emulator/emulator.c **** 					break;
 1514               		.loc 1 360 52 is_stmt 0 view .LVU239
 1515 064e F801      		movw r30,r16
 1516 0650 3396      		adiw r30,3
 1517 0652 EE0F      		lsl r30
 1518 0654 FF1F      		rol r31
 1519 0656 EE0F      		lsl r30
 1520 0658 FF1F      		rol r31
 1521 065a E80D      		add r30,r8
 1522 065c F91D      		adc r31,r9
 360:../../emulator/emulator.c **** 					break;
 1523               		.loc 1 360 27 view .LVU240
 1524 065e 0081      		ld r16,Z
 1525 0660 1181      		ldd r17,Z+1
 1526 0662 2281      		ldd r18,Z+2
 1527 0664 3381      		ldd r19,Z+3
 1528               	.LVL93:
 360:../../emulator/emulator.c **** 					break;
 1529               		.loc 1 360 27 view .LVU241
 1530 0666 2C01      		movw r4,r24
 1531 0668 3D01      		movw r6,r26
 1532               	.LVL94:
 360:../../emulator/emulator.c **** 					break;
 1533               		.loc 1 360 27 view .LVU242
 1534 066a 400E      		add r4,r16
 1535 066c 511E      		adc r5,r17
 1536 066e 621E      		adc r6,r18
 1537 0670 731E      		adc r7,r19
 1538 0672 4D82      		std Y+5,r4
 1539 0674 5E82      		std Y+6,r5
 1540 0676 6F82      		std Y+7,r6
 1541 0678 7886      		std Y+8,r7
 1542               	.LBB150:
 1543               	.LBB149:
 153:../../emulator/emulator.c **** 	return value16;
 1544               		.loc 1 153 2 view .LVU243
 1545 067a 02E0      		ldi r16,lo8(2)
 1546 067c 10E0      		ldi r17,0
 1547 067e 20E0      		ldi r18,0
 1548 0680 30E0      		ldi r19,0
 1549 0682 C301      		movw r24,r6
 1550 0684 B201      		movw r22,r4
 1551 0686 0E94 0000 		call memory_read
 1552               	.LVL95:
 154:../../emulator/emulator.c **** }
 1553               		.loc 1 154 2 is_stmt 1 view .LVU244
 154:../../emulator/emulator.c **** }
 1554               		.loc 1 154 9 is_stmt 0 view .LVU245
 1555 068a 8981      		ldd r24,Y+1
 1556 068c 9A81      		ldd r25,Y+2
 1557 068e 00C0      		rjmp .L99
 1558               	.LVL96:
 1559               	.L29:
 154:../../emulator/emulator.c **** }
 1560               		.loc 1 154 9 view .LVU246
 1561               	.LBE149:
 1562               	.LBE150:
 1563               	.LBE151:
 1564               	.LBB152:
 375:../../emulator/emulator.c **** 			rd = (instr >> 7) & 0x1F;
 1565               		.loc 1 375 4 is_stmt 1 view .LVU247
 376:../../emulator/emulator.c **** 			funct3 = (instr >> 12) & 0x07;
 1566               		.loc 1 376 4 view .LVU248
 376:../../emulator/emulator.c **** 			funct3 = (instr >> 12) & 0x07;
 1567               		.loc 1 376 16 is_stmt 0 view .LVU249
 1568 0690 8C01      		movw r16,r24
 1569 0692 9D01      		movw r18,r26
 1570               	.LVL97:
 376:../../emulator/emulator.c **** 			funct3 = (instr >> 12) & 0x07;
 1571               		.loc 1 376 16 view .LVU250
 1572 0694 47E0      		ldi r20,7
 1573               		1:
 1574 0696 3695      		lsr r19
 1575 0698 2795      		ror r18
 1576 069a 1795      		ror r17
 1577 069c 0795      		ror r16
 1578 069e 4A95      		dec r20
 1579 06a0 01F4      		brne 1b
 376:../../emulator/emulator.c **** 			funct3 = (instr >> 12) & 0x07;
 1580               		.loc 1 376 7 view .LVU251
 1581 06a2 0F71      		andi r16,31
 1582 06a4 1127      		clr r17
 1583 06a6 2227      		clr r18
 1584 06a8 3327      		clr r19
 377:../../emulator/emulator.c **** 			rs1 = (instr >> 15) & 0x1F;
 1585               		.loc 1 377 4 is_stmt 1 view .LVU252
 1586               	.LVL98:
 378:../../emulator/emulator.c **** 			imm = (instr >> 20);
 1587               		.loc 1 378 4 view .LVU253
 379:../../emulator/emulator.c **** 			switch(funct3)
 1588               		.loc 1 379 4 view .LVU254
 379:../../emulator/emulator.c **** 			switch(funct3)
 1589               		.loc 1 379 8 is_stmt 0 view .LVU255
 1590 06aa AC01      		movw r20,r24
 1591 06ac BD01      		movw r22,r26
 1592 06ae E4E1      		ldi r30,20
 1593               		1:
 1594 06b0 7695      		lsr r23
 1595 06b2 6795      		ror r22
 1596 06b4 5795      		ror r21
 1597 06b6 4795      		ror r20
 1598 06b8 EA95      		dec r30
 1599 06ba 01F4      		brne 1b
 1600               	.LVL99:
 380:../../emulator/emulator.c **** 			{
 1601               		.loc 1 380 4 is_stmt 1 view .LVU256
 378:../../emulator/emulator.c **** 			imm = (instr >> 20);
 1602               		.loc 1 378 17 is_stmt 0 view .LVU257
 1603 06bc 6C01      		movw r12,r24
 1604 06be 7D01      		movw r14,r26
 1605 06c0 FFE0      		ldi r31,15
 1606               		1:
 1607 06c2 F694      		lsr r15
 1608 06c4 E794      		ror r14
 1609 06c6 D794      		ror r13
 1610 06c8 C794      		ror r12
 1611 06ca FA95      		dec r31
 1612 06cc 01F4      		brne 1b
 378:../../emulator/emulator.c **** 			imm = (instr >> 20);
 1613               		.loc 1 378 8 view .LVU258
 1614 06ce EFE1      		ldi r30,31
 1615 06d0 CE22      		and r12,r30
 1616 06d2 DD24      		clr r13
 1617 06d4 EE24      		clr r14
 1618 06d6 FF24      		clr r15
 1619               	.LVL100:
 378:../../emulator/emulator.c **** 			imm = (instr >> 20);
 1620               		.loc 1 378 8 view .LVU259
 1621               	.LBE152:
 1622               	.LBB173:
 328:../../emulator/emulator.c **** 					break;
 1623               		.loc 1 328 51 view .LVU260
 1624 06d8 F601      		movw r30,r12
 1625 06da 3396      		adiw r30,3
 1626 06dc EE0F      		lsl r30
 1627 06de FF1F      		rol r31
 1628 06e0 EE0F      		lsl r30
 1629 06e2 FF1F      		rol r31
 1630 06e4 E80D      		add r30,r8
 1631 06e6 F91D      		adc r31,r9
 1632 06e8 C080      		ld r12,Z
 1633 06ea D180      		ldd r13,Z+1
 1634 06ec E280      		ldd r14,Z+2
 1635 06ee F380      		ldd r15,Z+3
 1636               	.LVL101:
 328:../../emulator/emulator.c **** 					break;
 1637               		.loc 1 328 51 view .LVU261
 1638               	.LBE173:
 1639               	.LBB174:
 377:../../emulator/emulator.c **** 			rs1 = (instr >> 15) & 0x1F;
 1640               		.loc 1 377 20 view .LVU262
 1641 06f0 2C01      		movw r4,r24
 1642 06f2 3D01      		movw r6,r26
 1643               	.LVL102:
 377:../../emulator/emulator.c **** 			rs1 = (instr >> 15) & 0x1F;
 1644               		.loc 1 377 20 view .LVU263
 1645 06f4 3CE0      		ldi r19,12
 1646               		1:
 1647 06f6 7694      		lsr r7
 1648 06f8 6794      		ror r6
 1649 06fa 5794      		ror r5
 1650 06fc 4794      		ror r4
 1651 06fe 3A95      		dec r19
 1652 0700 01F4      		brne 1b
 377:../../emulator/emulator.c **** 			rs1 = (instr >> 15) & 0x1F;
 1653               		.loc 1 377 11 view .LVU264
 1654 0702 F7E0      		ldi r31,7
 1655 0704 4F22      		and r4,r31
 1656 0706 5524      		clr r5
 1657 0708 6624      		clr r6
 1658 070a 7724      		clr r7
 1659               	.LVL103:
 377:../../emulator/emulator.c **** 			rs1 = (instr >> 15) & 0x1F;
 1660               		.loc 1 377 11 view .LVU265
 1661 070c E1E0      		ldi r30,1
 1662 070e 4E1A      		sub r4,r30
 1663 0710 5108      		sbc r5,__zero_reg__
 1664 0712 6108      		sbc r6,__zero_reg__
 1665 0714 7108      		sbc r7,__zero_reg__
 1666               	.LVL104:
 377:../../emulator/emulator.c **** 			rs1 = (instr >> 15) & 0x1F;
 1667               		.loc 1 377 11 view .LVU266
 1668 0716 0D5F      		subi r16,-3
 1669 0718 1F4F      		sbci r17,-1
 1670 071a F7E0      		ldi r31,7
 1671 071c 4F16      		cp r4,r31
 1672 071e 5104      		cpc r5,__zero_reg__
 1673 0720 6104      		cpc r6,__zero_reg__
 1674 0722 7104      		cpc r7,__zero_reg__
 1675 0724 00F4      		brsh .L38
 1676 0726 F201      		movw r30,r4
 1677 0728 E050      		subi r30,lo8(-(gs(.L40)))
 1678 072a F040      		sbci r31,hi8(-(gs(.L40)))
 1679 072c 0C94 0000 		jmp __tablejump2__
 1680               		.section	.jumptables.gcc.emulator_call,"a",@progbits
 1681               		.p2align	1
 1682               	.L40:
 1683 003a 0000      		.word gs(.L46)
 1684 003c 0000      		.word gs(.L45)
 1685 003e 0000      		.word gs(.L44)
 1686 0040 0000      		.word gs(.L43)
 1687 0042 0000      		.word gs(.L42)
 1688 0044 0000      		.word gs(.L41)
 1689 0046 0000      		.word gs(.L39)
 1690               		.text
 1691               	.L38:
 384:../../emulator/emulator.c **** #ifdef DEBUG
 1692               		.loc 1 384 6 is_stmt 1 view .LVU267
 1693               	.LVL105:
 1694               	.LBB153:
 1695               	.LBI153:
  31:../../emulator/emulator.c **** {
 1696               		.loc 1 31 19 view .LVU268
 1697               	.LBB154:
  33:../../emulator/emulator.c **** 	return (value ^ m) - m;
 1698               		.loc 1 33 2 view .LVU269
  34:../../emulator/emulator.c **** }
 1699               		.loc 1 34 2 view .LVU270
  34:../../emulator/emulator.c **** }
 1700               		.loc 1 34 2 is_stmt 0 view .LVU271
 1701               	.LBE154:
 1702               	.LBE153:
 388:../../emulator/emulator.c **** 					break;
 1703               		.loc 1 388 6 is_stmt 1 view .LVU272
 388:../../emulator/emulator.c **** 					break;
 1704               		.loc 1 388 25 is_stmt 0 view .LVU273
 1705 0730 F801      		movw r30,r16
 1706 0732 EE0F      		lsl r30
 1707 0734 FF1F      		rol r31
 1708 0736 EE0F      		lsl r30
 1709 0738 FF1F      		rol r31
 1710               	.LVL106:
 388:../../emulator/emulator.c **** 					break;
 1711               		.loc 1 388 25 view .LVU274
 1712 073a E80D      		add r30,r8
 1713 073c F91D      		adc r31,r9
 1714               	.LBB156:
 1715               	.LBB155:
  34:../../emulator/emulator.c **** }
 1716               		.loc 1 34 16 view .LVU275
 1717 073e 28E0      		ldi r18,8
 1718 0740 5227      		eor r21,r18
 1719               	.LVL107:
  34:../../emulator/emulator.c **** }
 1720               		.loc 1 34 21 view .LVU276
 1721 0742 5850      		subi r21,8
 1722 0744 6109      		sbc r22,__zero_reg__
 1723 0746 7109      		sbc r23,__zero_reg__
 1724               	.LVL108:
  34:../../emulator/emulator.c **** }
 1725               		.loc 1 34 21 view .LVU277
 1726               	.LBE155:
 1727               	.LBE156:
 388:../../emulator/emulator.c **** 					break;
 1728               		.loc 1 388 47 view .LVU278
 1729 0748 4C0D      		add r20,r12
 1730 074a 5D1D      		adc r21,r13
 1731 074c 6E1D      		adc r22,r14
 1732 074e 7F1D      		adc r23,r15
 1733               	.LVL109:
 1734               	.L90:
 423:../../emulator/emulator.c **** 					break;
 1735               		.loc 1 423 25 view .LVU279
 1736 0750 4083      		st Z,r20
 1737 0752 5183      		std Z+1,r21
 1738 0754 6283      		std Z+2,r22
 1739 0756 7383      		std Z+3,r23
 424:../../emulator/emulator.c **** 
 1740               		.loc 1 424 6 is_stmt 1 view .LVU280
 1741 0758 00C0      		rjmp .L31
 1742               	.LVL110:
 1743               	.L46:
 393:../../emulator/emulator.c **** #ifdef DEBUG
 1744               		.loc 1 393 6 view .LVU281
 397:../../emulator/emulator.c **** 					break;
 1745               		.loc 1 397 6 view .LVU282
 397:../../emulator/emulator.c **** 					break;
 1746               		.loc 1 397 25 is_stmt 0 view .LVU283
 1747 075a F801      		movw r30,r16
 1748 075c EE0F      		lsl r30
 1749 075e FF1F      		rol r31
 1750 0760 EE0F      		lsl r30
 1751 0762 FF1F      		rol r31
 1752 0764 E80D      		add r30,r8
 1753 0766 F91D      		adc r31,r9
 393:../../emulator/emulator.c **** #ifdef DEBUG
 1754               		.loc 1 393 10 view .LVU284
 1755 0768 4F71      		andi r20,31
 1756 076a 5527      		clr r21
 1757 076c 6627      		clr r22
 1758 076e 7727      		clr r23
 1759               	.LVL111:
 397:../../emulator/emulator.c **** 					break;
 1760               		.loc 1 397 47 view .LVU285
 1761 0770 00C0      		rjmp 2f
 1762               		1:
 1763 0772 CC0C      		lsl r12
 1764 0774 DD1C      		rol r13
 1765 0776 EE1C      		rol r14
 1766 0778 FF1C      		rol r15
 1767               		2:
 1768 077a 4A95      		dec r20
 1769 077c 02F4      		brpl 1b
 1770               	.LVL112:
 1771               	.L91:
 434:../../emulator/emulator.c **** 					}
 1772               		.loc 1 434 26 view .LVU286
 1773 077e C082      		st Z,r12
 1774 0780 D182      		std Z+1,r13
 1775 0782 E282      		std Z+2,r14
 1776 0784 F382      		std Z+3,r15
 1777 0786 00C0      		rjmp .L31
 1778               	.LVL113:
 1779               	.L45:
 402:../../emulator/emulator.c **** #ifdef DEBUG
 1780               		.loc 1 402 6 is_stmt 1 view .LVU287
 1781               	.LBB157:
 1782               	.LBI157:
  31:../../emulator/emulator.c **** {
 1783               		.loc 1 31 19 view .LVU288
 1784               	.LBB158:
  33:../../emulator/emulator.c **** 	return (value ^ m) - m;
 1785               		.loc 1 33 2 view .LVU289
  34:../../emulator/emulator.c **** }
 1786               		.loc 1 34 2 view .LVU290
  34:../../emulator/emulator.c **** }
 1787               		.loc 1 34 2 is_stmt 0 view .LVU291
 1788               	.LBE158:
 1789               	.LBE157:
 406:../../emulator/emulator.c **** 					break;
 1790               		.loc 1 406 6 is_stmt 1 view .LVU292
 406:../../emulator/emulator.c **** 					break;
 1791               		.loc 1 406 25 is_stmt 0 view .LVU293
 1792 0788 F801      		movw r30,r16
 1793 078a EE0F      		lsl r30
 1794 078c FF1F      		rol r31
 1795 078e EE0F      		lsl r30
 1796 0790 FF1F      		rol r31
 1797 0792 E80D      		add r30,r8
 1798 0794 F91D      		adc r31,r9
 1799               	.LBB160:
 1800               	.LBB159:
  34:../../emulator/emulator.c **** }
 1801               		.loc 1 34 16 view .LVU294
 1802 0796 38E0      		ldi r19,8
 1803 0798 5327      		eor r21,r19
 1804               	.LVL114:
  34:../../emulator/emulator.c **** }
 1805               		.loc 1 34 21 view .LVU295
 1806 079a 5850      		subi r21,8
 1807 079c 6109      		sbc r22,__zero_reg__
 1808 079e 7109      		sbc r23,__zero_reg__
 1809               	.LVL115:
  34:../../emulator/emulator.c **** }
 1810               		.loc 1 34 21 view .LVU296
 1811               	.LBE159:
 1812               	.LBE160:
 406:../../emulator/emulator.c **** 					break;
 1813               		.loc 1 406 52 view .LVU297
 1814 07a0 81E0      		ldi r24,lo8(1)
 1815 07a2 90E0      		ldi r25,0
 1816 07a4 A0E0      		ldi r26,0
 1817 07a6 B0E0      		ldi r27,0
 1818               	.LVL116:
 406:../../emulator/emulator.c **** 					break;
 1819               		.loc 1 406 52 view .LVU298
 1820 07a8 C416      		cp r12,r20
 1821 07aa D506      		cpc r13,r21
 1822 07ac E606      		cpc r14,r22
 1823 07ae F706      		cpc r15,r23
 1824               	.LVL117:
 1825               	.L102:
 406:../../emulator/emulator.c **** 					break;
 1826               		.loc 1 406 52 view .LVU299
 1827               	.LBE174:
 1828               	.LBB175:
 639:../../emulator/emulator.c **** 						break;
 1829               		.loc 1 639 53 view .LVU300
 1830 07b0 04F4      		brge .+2
 1831 07b2 00C0      		rjmp .L88
 1832 07b4 00C0      		rjmp .L101
 1833               	.LVL118:
 1834               	.L44:
 639:../../emulator/emulator.c **** 						break;
 1835               		.loc 1 639 53 view .LVU301
 1836               	.LBE175:
 1837               	.LBB176:
 414:../../emulator/emulator.c **** 					break;
 1838               		.loc 1 414 6 is_stmt 1 view .LVU302
 414:../../emulator/emulator.c **** 					break;
 1839               		.loc 1 414 25 is_stmt 0 view .LVU303
 1840 07b6 F801      		movw r30,r16
 1841 07b8 EE0F      		lsl r30
 1842 07ba FF1F      		rol r31
 1843 07bc EE0F      		lsl r30
 1844 07be FF1F      		rol r31
 1845 07c0 E80D      		add r30,r8
 1846 07c2 F91D      		adc r31,r9
 414:../../emulator/emulator.c **** 					break;
 1847               		.loc 1 414 47 view .LVU304
 1848 07c4 81E0      		ldi r24,lo8(1)
 1849 07c6 90E0      		ldi r25,0
 1850 07c8 A0E0      		ldi r26,0
 1851 07ca B0E0      		ldi r27,0
 1852               	.LVL119:
 414:../../emulator/emulator.c **** 					break;
 1853               		.loc 1 414 47 view .LVU305
 1854 07cc C416      		cp r12,r20
 1855 07ce D506      		cpc r13,r21
 1856 07d0 E606      		cpc r14,r22
 1857 07d2 F706      		cpc r15,r23
 1858 07d4 00F4      		brsh .+2
 1859 07d6 00C0      		rjmp .L88
 1860               	.LVL120:
 1861               	.L101:
 414:../../emulator/emulator.c **** 					break;
 1862               		.loc 1 414 47 view .LVU306
 1863               	.LBE176:
 1864               	.LBB177:
 647:../../emulator/emulator.c **** 						break;
 1865               		.loc 1 647 48 view .LVU307
 1866 07d8 80E0      		ldi r24,0
 1867 07da 90E0      		ldi r25,0
 1868 07dc DC01      		movw r26,r24
 1869 07de 00C0      		rjmp .L88
 1870               	.LVL121:
 1871               	.L43:
 647:../../emulator/emulator.c **** 						break;
 1872               		.loc 1 647 48 view .LVU308
 1873               	.LBE177:
 1874               	.LBB178:
 419:../../emulator/emulator.c **** #ifdef DEBUG
 1875               		.loc 1 419 6 is_stmt 1 view .LVU309
 1876               	.LBB161:
 1877               	.LBI161:
  31:../../emulator/emulator.c **** {
 1878               		.loc 1 31 19 view .LVU310
 1879               	.LBB162:
  33:../../emulator/emulator.c **** 	return (value ^ m) - m;
 1880               		.loc 1 33 2 view .LVU311
  34:../../emulator/emulator.c **** }
 1881               		.loc 1 34 2 view .LVU312
  34:../../emulator/emulator.c **** }
 1882               		.loc 1 34 2 is_stmt 0 view .LVU313
 1883               	.LBE162:
 1884               	.LBE161:
 423:../../emulator/emulator.c **** 					break;
 1885               		.loc 1 423 6 is_stmt 1 view .LVU314
 423:../../emulator/emulator.c **** 					break;
 1886               		.loc 1 423 25 is_stmt 0 view .LVU315
 1887 07e0 F801      		movw r30,r16
 1888 07e2 EE0F      		lsl r30
 1889 07e4 FF1F      		rol r31
 1890 07e6 EE0F      		lsl r30
 1891 07e8 FF1F      		rol r31
 1892 07ea E80D      		add r30,r8
 1893 07ec F91D      		adc r31,r9
 1894               	.LBB164:
 1895               	.LBB163:
  34:../../emulator/emulator.c **** }
 1896               		.loc 1 34 16 view .LVU316
 1897 07ee 88E0      		ldi r24,8
 1898 07f0 5827      		eor r21,r24
 1899               	.LVL122:
  34:../../emulator/emulator.c **** }
 1900               		.loc 1 34 21 view .LVU317
 1901 07f2 5850      		subi r21,8
 1902 07f4 6109      		sbc r22,__zero_reg__
 1903 07f6 7109      		sbc r23,__zero_reg__
 1904               	.LVL123:
  34:../../emulator/emulator.c **** }
 1905               		.loc 1 34 21 view .LVU318
 1906               	.LBE163:
 1907               	.LBE164:
 423:../../emulator/emulator.c **** 					break;
 1908               		.loc 1 423 47 view .LVU319
 1909 07f8 4C25      		eor r20,r12
 1910 07fa 5D25      		eor r21,r13
 1911 07fc 6E25      		eor r22,r14
 1912 07fe 7F25      		eor r23,r15
 1913               	.LVL124:
 423:../../emulator/emulator.c **** 					break;
 1914               		.loc 1 423 47 view .LVU320
 1915 0800 00C0      		rjmp .L90
 1916               	.LVL125:
 1917               	.L42:
 427:../../emulator/emulator.c **** 					{
 1918               		.loc 1 427 6 is_stmt 1 view .LVU321
 427:../../emulator/emulator.c **** 					{
 1919               		.loc 1 427 13 is_stmt 0 view .LVU322
 1920 0802 29E1      		ldi r18,25
 1921               		1:
 1922 0804 B695      		lsr r27
 1923 0806 A795      		ror r26
 1924 0808 9795      		ror r25
 1925 080a 8795      		ror r24
 1926 080c 2A95      		dec r18
 1927 080e 01F4      		brne 1b
 1928               	.LVL126:
 434:../../emulator/emulator.c **** 					}
 1929               		.loc 1 434 26 view .LVU323
 1930 0810 F801      		movw r30,r16
 1931 0812 EE0F      		lsl r30
 1932 0814 FF1F      		rol r31
 1933 0816 EE0F      		lsl r30
 1934 0818 FF1F      		rol r31
 1935 081a E80D      		add r30,r8
 1936 081c F91D      		adc r31,r9
 427:../../emulator/emulator.c **** 					{
 1937               		.loc 1 427 8 view .LVU324
 1938 081e 892B      		or r24,r25
 1939 0820 8A2B      		or r24,r26
 1940 0822 8B2B      		or r24,r27
 1941 0824 01F0      		breq .L49
 430:../../emulator/emulator.c **** #ifdef DEBUG
 1942               		.loc 1 430 7 is_stmt 1 view .LVU325
 1943               	.LVL127:
 434:../../emulator/emulator.c **** 					}
 1944               		.loc 1 434 7 view .LVU326
 430:../../emulator/emulator.c **** #ifdef DEBUG
 1945               		.loc 1 430 11 is_stmt 0 view .LVU327
 1946 0826 4F71      		andi r20,31
 1947 0828 5527      		clr r21
 1948 082a 6627      		clr r22
 1949 082c 7727      		clr r23
 1950               	.LVL128:
 434:../../emulator/emulator.c **** 					}
 1951               		.loc 1 434 53 view .LVU328
 1952 082e 00C0      		rjmp 2f
 1953               		1:
 1954 0830 F594      		asr r15
 1955 0832 E794      		ror r14
 1956 0834 D794      		ror r13
 1957 0836 C794      		ror r12
 1958               		2:
 1959 0838 4A95      		dec r20
 1960 083a 02F4      		brpl 1b
 1961 083c 00C0      		rjmp .L91
 1962               	.L49:
 439:../../emulator/emulator.c **** #ifdef DEBUG
 1963               		.loc 1 439 7 is_stmt 1 view .LVU329
 1964               	.LVL129:
 443:../../emulator/emulator.c **** 					}
 1965               		.loc 1 443 7 view .LVU330
 443:../../emulator/emulator.c **** 					}
 1966               		.loc 1 443 48 is_stmt 0 view .LVU331
 1967 083e 00C0      		rjmp 2f
 1968               		1:
 1969 0840 F694      		lsr r15
 1970 0842 E794      		ror r14
 1971 0844 D794      		ror r13
 1972 0846 C794      		ror r12
 1973               		2:
 1974 0848 4A95      		dec r20
 1975 084a 02F4      		brpl 1b
 1976 084c 00C0      		rjmp .L91
 1977               	.LVL130:
 1978               	.L41:
 449:../../emulator/emulator.c **** #ifdef DEBUG
 1979               		.loc 1 449 6 is_stmt 1 view .LVU332
 1980               	.LBB165:
 1981               	.LBI165:
  31:../../emulator/emulator.c **** {
 1982               		.loc 1 31 19 view .LVU333
 1983               	.LBB166:
  33:../../emulator/emulator.c **** 	return (value ^ m) - m;
 1984               		.loc 1 33 2 view .LVU334
  34:../../emulator/emulator.c **** }
 1985               		.loc 1 34 2 view .LVU335
  34:../../emulator/emulator.c **** }
 1986               		.loc 1 34 2 is_stmt 0 view .LVU336
 1987               	.LBE166:
 1988               	.LBE165:
 453:../../emulator/emulator.c **** 					break;
 1989               		.loc 1 453 6 is_stmt 1 view .LVU337
 453:../../emulator/emulator.c **** 					break;
 1990               		.loc 1 453 25 is_stmt 0 view .LVU338
 1991 084e F801      		movw r30,r16
 1992 0850 EE0F      		lsl r30
 1993 0852 FF1F      		rol r31
 1994 0854 EE0F      		lsl r30
 1995 0856 FF1F      		rol r31
 1996 0858 E80D      		add r30,r8
 1997 085a F91D      		adc r31,r9
 1998               	.LBB168:
 1999               	.LBB167:
  34:../../emulator/emulator.c **** }
 2000               		.loc 1 34 16 view .LVU339
 2001 085c 98E0      		ldi r25,8
 2002 085e 5927      		eor r21,r25
 2003               	.LVL131:
  34:../../emulator/emulator.c **** }
 2004               		.loc 1 34 21 view .LVU340
 2005 0860 5850      		subi r21,8
 2006 0862 6109      		sbc r22,__zero_reg__
 2007 0864 7109      		sbc r23,__zero_reg__
 2008               	.LVL132:
  34:../../emulator/emulator.c **** }
 2009               		.loc 1 34 21 view .LVU341
 2010               	.LBE167:
 2011               	.LBE168:
 453:../../emulator/emulator.c **** 					break;
 2012               		.loc 1 453 47 view .LVU342
 2013 0866 4C29      		or r20,r12
 2014 0868 5D29      		or r21,r13
 2015 086a 6E29      		or r22,r14
 2016 086c 7F29      		or r23,r15
 2017               	.LVL133:
 453:../../emulator/emulator.c **** 					break;
 2018               		.loc 1 453 47 view .LVU343
 2019 086e 00C0      		rjmp .L90
 2020               	.LVL134:
 2021               	.L39:
 458:../../emulator/emulator.c **** #ifdef DEBUG
 2022               		.loc 1 458 6 is_stmt 1 view .LVU344
 2023               	.LBB169:
 2024               	.LBI169:
  31:../../emulator/emulator.c **** {
 2025               		.loc 1 31 19 view .LVU345
 2026               	.LBB170:
  33:../../emulator/emulator.c **** 	return (value ^ m) - m;
 2027               		.loc 1 33 2 view .LVU346
  34:../../emulator/emulator.c **** }
 2028               		.loc 1 34 2 view .LVU347
  34:../../emulator/emulator.c **** }
 2029               		.loc 1 34 2 is_stmt 0 view .LVU348
 2030               	.LBE170:
 2031               	.LBE169:
 462:../../emulator/emulator.c **** 					break;
 2032               		.loc 1 462 6 is_stmt 1 view .LVU349
 462:../../emulator/emulator.c **** 					break;
 2033               		.loc 1 462 25 is_stmt 0 view .LVU350
 2034 0870 F801      		movw r30,r16
 2035 0872 EE0F      		lsl r30
 2036 0874 FF1F      		rol r31
 2037 0876 EE0F      		lsl r30
 2038 0878 FF1F      		rol r31
 2039 087a E80D      		add r30,r8
 2040 087c F91D      		adc r31,r9
 2041               	.LBB172:
 2042               	.LBB171:
  34:../../emulator/emulator.c **** }
 2043               		.loc 1 34 16 view .LVU351
 2044 087e A8E0      		ldi r26,8
 2045 0880 5A27      		eor r21,r26
 2046               	.LVL135:
  34:../../emulator/emulator.c **** }
 2047               		.loc 1 34 21 view .LVU352
 2048 0882 5850      		subi r21,8
 2049 0884 6109      		sbc r22,__zero_reg__
 2050 0886 7109      		sbc r23,__zero_reg__
 2051               	.LVL136:
  34:../../emulator/emulator.c **** }
 2052               		.loc 1 34 21 view .LVU353
 2053               	.LBE171:
 2054               	.LBE172:
 462:../../emulator/emulator.c **** 					break;
 2055               		.loc 1 462 47 view .LVU354
 2056 0888 4C21      		and r20,r12
 2057 088a 5D21      		and r21,r13
 2058 088c 6E21      		and r22,r14
 2059 088e 7F21      		and r23,r15
 2060               	.LVL137:
 462:../../emulator/emulator.c **** 					break;
 2061               		.loc 1 462 47 view .LVU355
 2062 0890 00C0      		rjmp .L90
 2063               	.LVL138:
 2064               	.L28:
 462:../../emulator/emulator.c **** 					break;
 2065               		.loc 1 462 47 view .LVU356
 2066               	.LBE178:
 2067               	.LBB179:
 470:../../emulator/emulator.c **** 			rd = (instr >> 7) & 0x1F;
 2068               		.loc 1 470 4 is_stmt 1 view .LVU357
 471:../../emulator/emulator.c **** 			imm = (instr >> 12);
 2069               		.loc 1 471 4 view .LVU358
 472:../../emulator/emulator.c **** #ifdef DEBUG
 2070               		.loc 1 472 4 view .LVU359
 476:../../emulator/emulator.c **** 			break;
 2071               		.loc 1 476 4 view .LVU360
 471:../../emulator/emulator.c **** 			imm = (instr >> 12);
 2072               		.loc 1 471 16 is_stmt 0 view .LVU361
 2073 0892 AC01      		movw r20,r24
 2074 0894 BD01      		movw r22,r26
 2075 0896 37E0      		ldi r19,7
 2076               		1:
 2077 0898 7695      		lsr r23
 2078 089a 6795      		ror r22
 2079 089c 5795      		ror r21
 2080 089e 4795      		ror r20
 2081 08a0 3A95      		dec r19
 2082 08a2 01F4      		brne 1b
 471:../../emulator/emulator.c **** 			imm = (instr >> 12);
 2083               		.loc 1 471 7 view .LVU362
 2084 08a4 4F71      		andi r20,31
 2085 08a6 5527      		clr r21
 2086 08a8 6627      		clr r22
 2087 08aa 7727      		clr r23
 2088               	.LVL139:
 476:../../emulator/emulator.c **** 			break;
 2089               		.loc 1 476 23 view .LVU363
 2090 08ac FA01      		movw r30,r20
 2091 08ae 3396      		adiw r30,3
 2092 08b0 EE0F      		lsl r30
 2093 08b2 FF1F      		rol r31
 2094 08b4 EE0F      		lsl r30
 2095 08b6 FF1F      		rol r31
 2096               	.LVL140:
 476:../../emulator/emulator.c **** 			break;
 2097               		.loc 1 476 23 view .LVU364
 2098 08b8 9F01      		movw r18,r30
 2099 08ba 280D      		add r18,r8
 2100 08bc 391D      		adc r19,r9
 476:../../emulator/emulator.c **** 			break;
 2101               		.loc 1 476 40 view .LVU365
 2102 08be AC01      		movw r20,r24
 2103 08c0 BD01      		movw r22,r26
 2104 08c2 4427      		clr r20
 2105 08c4 507F      		andi r21,240
 476:../../emulator/emulator.c **** 			break;
 2106               		.loc 1 476 33 view .LVU366
 2107 08c6 F401      		movw r30,r8
 2108 08c8 8085      		ldd r24,Z+8
 2109 08ca 9185      		ldd r25,Z+9
 2110 08cc A285      		ldd r26,Z+10
 2111 08ce B385      		ldd r27,Z+11
 2112               	.LVL141:
 476:../../emulator/emulator.c **** 			break;
 2113               		.loc 1 476 33 view .LVU367
 2114 08d0 840F      		add r24,r20
 2115 08d2 951F      		adc r25,r21
 2116 08d4 A61F      		adc r26,r22
 2117 08d6 B71F      		adc r27,r23
 476:../../emulator/emulator.c **** 			break;
 2118               		.loc 1 476 23 view .LVU368
 2119 08d8 F901      		movw r30,r18
 2120 08da 00C0      		rjmp .L88
 2121               	.LVL142:
 2122               	.L27:
 476:../../emulator/emulator.c **** 			break;
 2123               		.loc 1 476 23 view .LVU369
 2124               	.LBE179:
 2125               	.LBB180:
 482:../../emulator/emulator.c **** 			u32 imm, rs1, rs2, funct3;
 2126               		.loc 1 482 4 is_stmt 1 view .LVU370
 483:../../emulator/emulator.c **** 			funct3 = (instr >> 12) & 0x07;
 2127               		.loc 1 483 4 view .LVU371
 484:../../emulator/emulator.c **** 			rs1 = (instr >> 15) & 0x1F;
 2128               		.loc 1 484 4 view .LVU372
 484:../../emulator/emulator.c **** 			rs1 = (instr >> 15) & 0x1F;
 2129               		.loc 1 484 20 is_stmt 0 view .LVU373
 2130 08dc 6C01      		movw r12,r24
 2131 08de 7D01      		movw r14,r26
 2132 08e0 ECE0      		ldi r30,12
 2133               		1:
 2134 08e2 F694      		lsr r15
 2135 08e4 E794      		ror r14
 2136 08e6 D794      		ror r13
 2137 08e8 C794      		ror r12
 2138 08ea EA95      		dec r30
 2139 08ec 01F4      		brne 1b
 484:../../emulator/emulator.c **** 			rs1 = (instr >> 15) & 0x1F;
 2140               		.loc 1 484 11 view .LVU374
 2141 08ee F7E0      		ldi r31,7
 2142 08f0 CF22      		and r12,r31
 2143 08f2 DD24      		clr r13
 2144 08f4 EE24      		clr r14
 2145 08f6 FF24      		clr r15
 2146               	.LVL143:
 485:../../emulator/emulator.c **** 			rs2 = (instr >> 20) & 0x1F;
 2147               		.loc 1 485 4 is_stmt 1 view .LVU375
 485:../../emulator/emulator.c **** 			rs2 = (instr >> 20) & 0x1F;
 2148               		.loc 1 485 17 is_stmt 0 view .LVU376
 2149 08f8 AC01      		movw r20,r24
 2150 08fa BD01      		movw r22,r26
 2151 08fc FFE0      		ldi r31,15
 2152               		1:
 2153 08fe 7695      		lsr r23
 2154 0900 6795      		ror r22
 2155 0902 5795      		ror r21
 2156 0904 4795      		ror r20
 2157 0906 FA95      		dec r31
 2158 0908 01F4      		brne 1b
 485:../../emulator/emulator.c **** 			rs2 = (instr >> 20) & 0x1F;
 2159               		.loc 1 485 8 view .LVU377
 2160 090a 4F71      		andi r20,31
 2161 090c 5527      		clr r21
 2162 090e 6627      		clr r22
 2163 0910 7727      		clr r23
 486:../../emulator/emulator.c **** 			imm = ((instr & 0xF80) >> 7) | ((instr & 0xFE000000) >> 20);
 2164               		.loc 1 486 4 is_stmt 1 view .LVU378
 486:../../emulator/emulator.c **** 			imm = ((instr & 0xF80) >> 7) | ((instr & 0xFE000000) >> 20);
 2165               		.loc 1 486 17 is_stmt 0 view .LVU379
 2166 0912 2C01      		movw r4,r24
 2167 0914 3D01      		movw r6,r26
 2168               	.LVL144:
 486:../../emulator/emulator.c **** 			imm = ((instr & 0xF80) >> 7) | ((instr & 0xFE000000) >> 20);
 2169               		.loc 1 486 17 view .LVU380
 2170 0916 14E1      		ldi r17,20
 2171               		1:
 2172 0918 7694      		lsr r7
 2173 091a 6794      		ror r6
 2174 091c 5794      		ror r5
 2175 091e 4794      		ror r4
 2176 0920 1A95      		dec r17
 2177 0922 01F4      		brne 1b
 486:../../emulator/emulator.c **** 			imm = ((instr & 0xF80) >> 7) | ((instr & 0xFE000000) >> 20);
 2178               		.loc 1 486 8 view .LVU381
 2179 0924 9301      		movw r18,r6
 2180 0926 8201      		movw r16,r4
 2181               	.LVL145:
 486:../../emulator/emulator.c **** 			imm = ((instr & 0xF80) >> 7) | ((instr & 0xFE000000) >> 20);
 2182               		.loc 1 486 8 view .LVU382
 2183 0928 0F71      		andi r16,31
 2184 092a 1127      		clr r17
 2185 092c 2227      		clr r18
 2186 092e 3327      		clr r19
 487:../../emulator/emulator.c **** 			offset = sext(12, imm);
 2187               		.loc 1 487 4 is_stmt 1 view .LVU383
 2188               	.LVL146:
 488:../../emulator/emulator.c **** 			switch(funct3)
 2189               		.loc 1 488 4 view .LVU384
 2190               	.LBB181:
 2191               	.LBI181:
  31:../../emulator/emulator.c **** {
 2192               		.loc 1 31 19 view .LVU385
 2193               	.LBB182:
  33:../../emulator/emulator.c **** 	return (value ^ m) - m;
 2194               		.loc 1 33 2 view .LVU386
  34:../../emulator/emulator.c **** }
 2195               		.loc 1 34 2 view .LVU387
 2196               	.LBE182:
 2197               	.LBE181:
 487:../../emulator/emulator.c **** 			offset = sext(12, imm);
 2198               		.loc 1 487 27 is_stmt 0 view .LVU388
 2199 0930 27E0      		ldi r18,7
 2200               		1:
 2201 0932 B695      		lsr r27
 2202 0934 A795      		ror r26
 2203 0936 9795      		ror r25
 2204 0938 8795      		ror r24
 2205 093a 2A95      		dec r18
 2206 093c 01F4      		brne 1b
 2207               	.LVL147:
 487:../../emulator/emulator.c **** 			offset = sext(12, imm);
 2208               		.loc 1 487 27 view .LVU389
 2209 093e 8F71      		andi r24,31
 2210 0940 9927      		clr r25
 2211 0942 AA27      		clr r26
 2212 0944 BB27      		clr r27
 487:../../emulator/emulator.c **** 			offset = sext(12, imm);
 2213               		.loc 1 487 57 view .LVU390
 2214 0946 E0EE      		ldi r30,224
 2215 0948 4E22      		and r4,r30
 2216 094a EFE0      		ldi r30,15
 2217 094c 5E22      		and r5,r30
 2218 094e 6624      		clr r6
 2219 0950 7724      		clr r7
 2220               	.LVL148:
 487:../../emulator/emulator.c **** 			offset = sext(12, imm);
 2221               		.loc 1 487 8 view .LVU391
 2222 0952 8429      		or r24,r4
 2223 0954 9529      		or r25,r5
 2224 0956 A629      		or r26,r6
 2225 0958 B729      		or r27,r7
 2226               	.LVL149:
 2227               	.LBB184:
 2228               	.LBB183:
  34:../../emulator/emulator.c **** }
 2229               		.loc 1 34 16 view .LVU392
 2230 095a F8E0      		ldi r31,8
 2231 095c 9F27      		eor r25,r31
 2232               	.LVL150:
  34:../../emulator/emulator.c **** }
 2233               		.loc 1 34 21 view .LVU393
 2234 095e 9850      		subi r25,8
 2235 0960 A109      		sbc r26,__zero_reg__
 2236 0962 B109      		sbc r27,__zero_reg__
 2237               	.LVL151:
  34:../../emulator/emulator.c **** }
 2238               		.loc 1 34 21 view .LVU394
 2239               	.LBE183:
 2240               	.LBE184:
 489:../../emulator/emulator.c **** 			{
 2241               		.loc 1 489 4 is_stmt 1 view .LVU395
 2242 0964 E1E0      		ldi r30,1
 2243 0966 CE16      		cp r12,r30
 2244 0968 D104      		cpc r13,__zero_reg__
 2245 096a E104      		cpc r14,__zero_reg__
 2246 096c F104      		cpc r15,__zero_reg__
 2247 096e 01F0      		breq .L50
 2248 0970 F2E0      		ldi r31,2
 2249 0972 CF16      		cp r12,r31
 2250 0974 D104      		cpc r13,__zero_reg__
 2251 0976 E104      		cpc r14,__zero_reg__
 2252 0978 F104      		cpc r15,__zero_reg__
 2253 097a 01F4      		brne .+2
 2254 097c 00C0      		rjmp .L51
 2255 097e CD28      		or r12,r13
 2256 0980 CE28      		or r12,r14
 2257 0982 CF28      		or r12,r15
 2258 0984 01F0      		breq .+2
 2259 0986 00C0      		rjmp .L19
 496:../../emulator/emulator.c **** 					break;
 2260               		.loc 1 496 6 view .LVU396
 496:../../emulator/emulator.c **** 					break;
 2261               		.loc 1 496 30 is_stmt 0 view .LVU397
 2262 0988 FA01      		movw r30,r20
 2263 098a 3396      		adiw r30,3
 2264 098c EE0F      		lsl r30
 2265 098e FF1F      		rol r31
 2266 0990 EE0F      		lsl r30
 2267 0992 FF1F      		rol r31
 2268 0994 E80D      		add r30,r8
 2269 0996 F91D      		adc r31,r9
 496:../../emulator/emulator.c **** 					break;
 2270               		.loc 1 496 6 view .LVU398
 2271 0998 4081      		ld r20,Z
 2272 099a 5181      		ldd r21,Z+1
 2273 099c 6281      		ldd r22,Z+2
 2274 099e 7381      		ldd r23,Z+3
 2275 09a0 2C01      		movw r4,r24
 2276 09a2 3D01      		movw r6,r26
 2277 09a4 440E      		add r4,r20
 2278 09a6 551E      		adc r5,r21
 2279 09a8 661E      		adc r6,r22
 2280 09aa 771E      		adc r7,r23
 2281 09ac 4D82      		std Y+5,r4
 2282 09ae 5E82      		std Y+6,r5
 2283 09b0 6F82      		std Y+7,r6
 2284 09b2 7886      		std Y+8,r7
 2285               	.LVL152:
 2286               	.LBB185:
 2287               	.LBI185:
 104:../../emulator/emulator.c **** {
 2288               		.loc 1 104 13 is_stmt 1 view .LVU399
 2289               	.LBB186:
 106:../../emulator/emulator.c **** 	memory_write(addr, &value8, 1);
 2290               		.loc 1 106 2 view .LVU400
 2291               	.LBE186:
 2292               	.LBE185:
 496:../../emulator/emulator.c **** 					break;
 2293               		.loc 1 496 6 is_stmt 0 view .LVU401
 2294 09b4 F801      		movw r30,r16
 2295 09b6 3396      		adiw r30,3
 2296 09b8 EE0F      		lsl r30
 2297 09ba FF1F      		rol r31
 2298 09bc EE0F      		lsl r30
 2299 09be FF1F      		rol r31
 2300 09c0 E80D      		add r30,r8
 2301 09c2 F91D      		adc r31,r9
 2302               	.LBB188:
 2303               	.LBB187:
 106:../../emulator/emulator.c **** 	memory_write(addr, &value8, 1);
 2304               		.loc 1 106 14 view .LVU402
 2305 09c4 8081      		ld r24,Z
 2306               	.LVL153:
 106:../../emulator/emulator.c **** 	memory_write(addr, &value8, 1);
 2307               		.loc 1 106 14 view .LVU403
 2308 09c6 8983      		std Y+1,r24
 2309               	.LVL154:
 107:../../emulator/emulator.c **** }
 2310               		.loc 1 107 2 is_stmt 1 view .LVU404
 2311 09c8 01E0      		ldi r16,lo8(1)
 2312 09ca 10E0      		ldi r17,0
 2313 09cc 20E0      		ldi r18,0
 2314 09ce 30E0      		ldi r19,0
 2315               	.LVL155:
 2316               	.L94:
 107:../../emulator/emulator.c **** }
 2317               		.loc 1 107 2 is_stmt 0 view .LVU405
 2318               	.LBE187:
 2319               	.LBE188:
 2320               	.LBB189:
 2321               	.LBB190:
 118:../../emulator/emulator.c **** }
 2322               		.loc 1 118 2 view .LVU406
 2323 09d0 AE01      		movw r20,r28
 2324 09d2 4F5F      		subi r20,-1
 2325 09d4 5F4F      		sbci r21,-1
 2326 09d6 C301      		movw r24,r6
 2327 09d8 B201      		movw r22,r4
 2328 09da 00C0      		rjmp .L95
 2329               	.LVL156:
 2330               	.L50:
 118:../../emulator/emulator.c **** }
 2331               		.loc 1 118 2 view .LVU407
 2332               	.LBE190:
 2333               	.LBE189:
 504:../../emulator/emulator.c **** 					break;
 2334               		.loc 1 504 6 is_stmt 1 view .LVU408
 504:../../emulator/emulator.c **** 					break;
 2335               		.loc 1 504 30 is_stmt 0 view .LVU409
 2336 09dc FA01      		movw r30,r20
 2337 09de 3396      		adiw r30,3
 2338 09e0 EE0F      		lsl r30
 2339 09e2 FF1F      		rol r31
 2340 09e4 EE0F      		lsl r30
 2341 09e6 FF1F      		rol r31
 2342 09e8 E80D      		add r30,r8
 2343 09ea F91D      		adc r31,r9
 504:../../emulator/emulator.c **** 					break;
 2344               		.loc 1 504 6 view .LVU410
 2345 09ec 4081      		ld r20,Z
 2346 09ee 5181      		ldd r21,Z+1
 2347 09f0 6281      		ldd r22,Z+2
 2348 09f2 7381      		ldd r23,Z+3
 2349 09f4 6C01      		movw r12,r24
 2350 09f6 7D01      		movw r14,r26
 2351               	.LVL157:
 504:../../emulator/emulator.c **** 					break;
 2352               		.loc 1 504 6 view .LVU411
 2353 09f8 C40E      		add r12,r20
 2354 09fa D51E      		adc r13,r21
 2355 09fc E61E      		adc r14,r22
 2356 09fe F71E      		adc r15,r23
 2357 0a00 CD82      		std Y+5,r12
 2358 0a02 DE82      		std Y+6,r13
 2359 0a04 EF82      		std Y+7,r14
 2360 0a06 F886      		std Y+8,r15
 2361               	.LVL158:
 2362               	.LBB193:
 2363               	.LBI193:
 110:../../emulator/emulator.c **** {
 2364               		.loc 1 110 13 is_stmt 1 view .LVU412
 2365               	.LBB194:
 112:../../emulator/emulator.c **** 	memory_write(addr, &value16, 2);
 2366               		.loc 1 112 2 view .LVU413
 2367               	.LBE194:
 2368               	.LBE193:
 504:../../emulator/emulator.c **** 					break;
 2369               		.loc 1 504 6 is_stmt 0 view .LVU414
 2370 0a08 F801      		movw r30,r16
 2371 0a0a 3396      		adiw r30,3
 2372 0a0c EE0F      		lsl r30
 2373 0a0e FF1F      		rol r31
 2374 0a10 EE0F      		lsl r30
 2375 0a12 FF1F      		rol r31
 2376 0a14 E80D      		add r30,r8
 2377 0a16 F91D      		adc r31,r9
 2378               	.LBB196:
 2379               	.LBB195:
 112:../../emulator/emulator.c **** 	memory_write(addr, &value16, 2);
 2380               		.loc 1 112 16 view .LVU415
 2381 0a18 8081      		ld r24,Z
 2382 0a1a 9181      		ldd r25,Z+1
 2383               	.LVL159:
 112:../../emulator/emulator.c **** 	memory_write(addr, &value16, 2);
 2384               		.loc 1 112 16 view .LVU416
 2385 0a1c 9A83      		std Y+2,r25
 2386 0a1e 8983      		std Y+1,r24
 2387               	.LVL160:
 113:../../emulator/emulator.c **** }
 2388               		.loc 1 113 2 is_stmt 1 view .LVU417
 2389 0a20 02E0      		ldi r16,lo8(2)
 2390 0a22 10E0      		ldi r17,0
 2391 0a24 20E0      		ldi r18,0
 2392 0a26 30E0      		ldi r19,0
 2393               	.LVL161:
 113:../../emulator/emulator.c **** }
 2394               		.loc 1 113 2 is_stmt 0 view .LVU418
 2395 0a28 AE01      		movw r20,r28
 2396 0a2a 4F5F      		subi r20,-1
 2397 0a2c 5F4F      		sbci r21,-1
 2398 0a2e C701      		movw r24,r14
 2399 0a30 B601      		movw r22,r12
 2400               	.LVL162:
 2401               	.L95:
 113:../../emulator/emulator.c **** }
 2402               		.loc 1 113 2 view .LVU419
 2403               	.LBE195:
 2404               	.LBE196:
 2405               	.LBB197:
 2406               	.LBB191:
 118:../../emulator/emulator.c **** }
 2407               		.loc 1 118 2 view .LVU420
 2408 0a32 0E94 0000 		call memory_write
 2409               	.LVL163:
 2410               	.LBE191:
 2411               	.LBE197:
 513:../../emulator/emulator.c **** 
 2412               		.loc 1 513 6 is_stmt 1 view .LVU421
 2413 0a36 00C0      		rjmp .L31
 2414               	.LVL164:
 2415               	.L51:
 512:../../emulator/emulator.c **** 					break;
 2416               		.loc 1 512 6 view .LVU422
 512:../../emulator/emulator.c **** 					break;
 2417               		.loc 1 512 30 is_stmt 0 view .LVU423
 2418 0a38 FA01      		movw r30,r20
 2419 0a3a 3396      		adiw r30,3
 2420 0a3c EE0F      		lsl r30
 2421 0a3e FF1F      		rol r31
 2422 0a40 EE0F      		lsl r30
 2423 0a42 FF1F      		rol r31
 2424 0a44 E80D      		add r30,r8
 2425 0a46 F91D      		adc r31,r9
 512:../../emulator/emulator.c **** 					break;
 2426               		.loc 1 512 6 view .LVU424
 2427 0a48 4081      		ld r20,Z
 2428 0a4a 5181      		ldd r21,Z+1
 2429 0a4c 6281      		ldd r22,Z+2
 2430 0a4e 7381      		ldd r23,Z+3
 2431 0a50 2C01      		movw r4,r24
 2432 0a52 3D01      		movw r6,r26
 2433 0a54 440E      		add r4,r20
 2434 0a56 551E      		adc r5,r21
 2435 0a58 661E      		adc r6,r22
 2436 0a5a 771E      		adc r7,r23
 2437 0a5c 4D82      		std Y+5,r4
 2438 0a5e 5E82      		std Y+6,r5
 2439 0a60 6F82      		std Y+7,r6
 2440 0a62 7886      		std Y+8,r7
 2441               	.LVL165:
 512:../../emulator/emulator.c **** 					break;
 2442               		.loc 1 512 6 view .LVU425
 2443 0a64 F801      		movw r30,r16
 2444 0a66 3396      		adiw r30,3
 2445 0a68 EE0F      		lsl r30
 2446 0a6a FF1F      		rol r31
 2447 0a6c EE0F      		lsl r30
 2448 0a6e FF1F      		rol r31
 2449 0a70 E80D      		add r30,r8
 2450 0a72 F91D      		adc r31,r9
 2451 0a74 8081      		ld r24,Z
 2452 0a76 9181      		ldd r25,Z+1
 2453 0a78 A281      		ldd r26,Z+2
 2454 0a7a B381      		ldd r27,Z+3
 2455               	.LVL166:
 512:../../emulator/emulator.c **** 					break;
 2456               		.loc 1 512 6 view .LVU426
 2457 0a7c 8983      		std Y+1,r24
 2458 0a7e 9A83      		std Y+2,r25
 2459 0a80 AB83      		std Y+3,r26
 2460 0a82 BC83      		std Y+4,r27
 2461               	.LVL167:
 2462               	.LBB198:
 2463               	.LBI189:
 116:../../emulator/emulator.c **** {
 2464               		.loc 1 116 13 is_stmt 1 view .LVU427
 2465               	.LBB192:
 118:../../emulator/emulator.c **** }
 2466               		.loc 1 118 2 view .LVU428
 2467 0a84 04E0      		ldi r16,lo8(4)
 2468 0a86 10E0      		ldi r17,0
 2469 0a88 20E0      		ldi r18,0
 2470 0a8a 30E0      		ldi r19,0
 2471 0a8c 00C0      		rjmp .L94
 2472               	.LVL168:
 2473               	.L26:
 118:../../emulator/emulator.c **** }
 2474               		.loc 1 118 2 is_stmt 0 view .LVU429
 2475               	.LBE192:
 2476               	.LBE198:
 2477               	.LBE180:
 2478               	.LBB199:
 527:../../emulator/emulator.c **** 			rd = (instr >> 7) & 0x1F;
 2479               		.loc 1 527 4 is_stmt 1 view .LVU430
 528:../../emulator/emulator.c **** 			funct3 = (instr >> 12) & 0x07;
 2480               		.loc 1 528 4 view .LVU431
 528:../../emulator/emulator.c **** 			funct3 = (instr >> 12) & 0x07;
 2481               		.loc 1 528 16 is_stmt 0 view .LVU432
 2482 0a8e AC01      		movw r20,r24
 2483 0a90 BD01      		movw r22,r26
 2484 0a92 17E0      		ldi r17,7
 2485               		1:
 2486 0a94 7695      		lsr r23
 2487 0a96 6795      		ror r22
 2488 0a98 5795      		ror r21
 2489 0a9a 4795      		ror r20
 2490 0a9c 1A95      		dec r17
 2491 0a9e 01F4      		brne 1b
 528:../../emulator/emulator.c **** 			funct3 = (instr >> 12) & 0x07;
 2492               		.loc 1 528 7 view .LVU433
 2493 0aa0 4F71      		andi r20,31
 2494 0aa2 5527      		clr r21
 2495 0aa4 6627      		clr r22
 2496 0aa6 7727      		clr r23
 529:../../emulator/emulator.c **** 			rs1 = (instr >> 15) & 0x1F;
 2497               		.loc 1 529 4 is_stmt 1 view .LVU434
 529:../../emulator/emulator.c **** 			rs1 = (instr >> 15) & 0x1F;
 2498               		.loc 1 529 20 is_stmt 0 view .LVU435
 2499 0aa8 8C01      		movw r16,r24
 2500 0aaa 9D01      		movw r18,r26
 2501               	.LVL169:
 529:../../emulator/emulator.c **** 			rs1 = (instr >> 15) & 0x1F;
 2502               		.loc 1 529 20 view .LVU436
 2503 0aac 6CE0      		ldi r22,12
 2504               		1:
 2505 0aae 3695      		lsr r19
 2506 0ab0 2795      		ror r18
 2507 0ab2 1795      		ror r17
 2508 0ab4 0795      		ror r16
 2509 0ab6 6A95      		dec r22
 2510 0ab8 01F4      		brne 1b
 529:../../emulator/emulator.c **** 			rs1 = (instr >> 15) & 0x1F;
 2511               		.loc 1 529 11 view .LVU437
 2512 0aba 0770      		andi r16,7
 2513 0abc 1127      		clr r17
 2514 0abe 2227      		clr r18
 2515 0ac0 3327      		clr r19
 2516               	.LVL170:
 530:../../emulator/emulator.c **** 			rs2 = (instr >> 20) & 0x1F;
 2517               		.loc 1 530 4 is_stmt 1 view .LVU438
 531:../../emulator/emulator.c **** 			funct7 = (instr >> 25);
 2518               		.loc 1 531 4 view .LVU439
 532:../../emulator/emulator.c **** 			if(funct7 == 1)
 2519               		.loc 1 532 4 view .LVU440
 532:../../emulator/emulator.c **** 			if(funct7 == 1)
 2520               		.loc 1 532 11 is_stmt 0 view .LVU441
 2521 0ac2 6C01      		movw r12,r24
 2522 0ac4 7D01      		movw r14,r26
 2523 0ac6 79E1      		ldi r23,25
 2524               		1:
 2525 0ac8 F694      		lsr r15
 2526 0aca E794      		ror r14
 2527 0acc D794      		ror r13
 2528 0ace C794      		ror r12
 2529 0ad0 7A95      		dec r23
 2530 0ad2 01F4      		brne 1b
 2531               	.LVL171:
 533:../../emulator/emulator.c **** 			{
 2532               		.loc 1 533 4 is_stmt 1 view .LVU442
 530:../../emulator/emulator.c **** 			rs2 = (instr >> 20) & 0x1F;
 2533               		.loc 1 530 17 is_stmt 0 view .LVU443
 2534 0ad4 2C01      		movw r4,r24
 2535 0ad6 3D01      		movw r6,r26
 2536               	.LVL172:
 530:../../emulator/emulator.c **** 			rs2 = (instr >> 20) & 0x1F;
 2537               		.loc 1 530 17 view .LVU444
 2538 0ad8 EFE0      		ldi r30,15
 2539               		1:
 2540 0ada 7694      		lsr r7
 2541 0adc 6794      		ror r6
 2542 0ade 5794      		ror r5
 2543 0ae0 4794      		ror r4
 2544 0ae2 EA95      		dec r30
 2545 0ae4 01F4      		brne 1b
 530:../../emulator/emulator.c **** 			rs2 = (instr >> 20) & 0x1F;
 2546               		.loc 1 530 8 view .LVU445
 2547 0ae6 EFE1      		ldi r30,31
 2548 0ae8 4E22      		and r4,r30
 2549 0aea 5524      		clr r5
 2550 0aec 6624      		clr r6
 2551 0aee 7724      		clr r7
 2552               	.LVL173:
 530:../../emulator/emulator.c **** 			rs2 = (instr >> 20) & 0x1F;
 2553               		.loc 1 530 8 view .LVU446
 2554               	.LBE199:
 2555               	.LBB200:
 328:../../emulator/emulator.c **** 					break;
 2556               		.loc 1 328 51 view .LVU447
 2557 0af0 F201      		movw r30,r4
 2558 0af2 3396      		adiw r30,3
 2559 0af4 EE0F      		lsl r30
 2560 0af6 FF1F      		rol r31
 2561 0af8 EE0F      		lsl r30
 2562 0afa FF1F      		rol r31
 2563 0afc E80D      		add r30,r8
 2564 0afe F91D      		adc r31,r9
 2565 0b00 4080      		ld r4,Z
 2566 0b02 5180      		ldd r5,Z+1
 2567 0b04 6280      		ldd r6,Z+2
 2568 0b06 7380      		ldd r7,Z+3
 2569               	.LVL174:
 328:../../emulator/emulator.c **** 					break;
 2570               		.loc 1 328 51 view .LVU448
 2571 0b08 4D82      		std Y+5,r4
 2572 0b0a 5E82      		std Y+6,r5
 2573 0b0c 6F82      		std Y+7,r6
 2574 0b0e 7886      		std Y+8,r7
 2575               	.LBE200:
 2576               	.LBB201:
 531:../../emulator/emulator.c **** 			funct7 = (instr >> 25);
 2577               		.loc 1 531 17 view .LVU449
 2578 0b10 74E1      		ldi r23,20
 2579               		1:
 2580 0b12 B695      		lsr r27
 2581 0b14 A795      		ror r26
 2582 0b16 9795      		ror r25
 2583 0b18 8795      		ror r24
 2584 0b1a 7A95      		dec r23
 2585 0b1c 01F4      		brne 1b
 2586               	.LVL175:
 531:../../emulator/emulator.c **** 			funct7 = (instr >> 25);
 2587               		.loc 1 531 8 view .LVU450
 2588 0b1e 8F71      		andi r24,31
 2589 0b20 9927      		clr r25
 2590 0b22 AA27      		clr r26
 2591 0b24 BB27      		clr r27
 2592               	.LVL176:
 531:../../emulator/emulator.c **** 			funct7 = (instr >> 25);
 2593               		.loc 1 531 8 view .LVU451
 2594               	.LBE201:
 2595               	.LBB202:
 496:../../emulator/emulator.c **** 					break;
 2596               		.loc 1 496 6 view .LVU452
 2597 0b26 FC01      		movw r30,r24
 2598 0b28 3396      		adiw r30,3
 2599 0b2a EE0F      		lsl r30
 2600 0b2c FF1F      		rol r31
 2601 0b2e EE0F      		lsl r30
 2602 0b30 FF1F      		rol r31
 2603 0b32 E80D      		add r30,r8
 2604 0b34 F91D      		adc r31,r9
 2605 0b36 4080      		ld r4,Z
 2606 0b38 5180      		ldd r5,Z+1
 2607 0b3a 6280      		ldd r6,Z+2
 2608 0b3c 7380      		ldd r7,Z+3
 2609 0b3e 0150      		subi r16,1
 2610 0b40 1109      		sbc r17,__zero_reg__
 2611 0b42 2109      		sbc r18,__zero_reg__
 2612 0b44 3109      		sbc r19,__zero_reg__
 2613               	.LVL177:
 496:../../emulator/emulator.c **** 					break;
 2614               		.loc 1 496 6 view .LVU453
 2615 0b46 4D5F      		subi r20,-3
 2616 0b48 5F4F      		sbci r21,-1
 2617               	.LBE202:
 2618               	.LBB203:
 533:../../emulator/emulator.c **** 			{
 2619               		.loc 1 533 6 view .LVU454
 2620 0b4a 61E0      		ldi r22,1
 2621 0b4c C616      		cp r12,r22
 2622 0b4e D104      		cpc r13,__zero_reg__
 2623 0b50 E104      		cpc r14,__zero_reg__
 2624 0b52 F104      		cpc r15,__zero_reg__
 2625 0b54 01F0      		breq .+2
 2626 0b56 00C0      		rjmp .L52
 536:../../emulator/emulator.c **** 				{
 2627               		.loc 1 536 5 is_stmt 1 view .LVU455
 2628 0b58 0730      		cpi r16,7
 2629 0b5a 1105      		cpc r17,__zero_reg__
 2630 0b5c 2105      		cpc r18,__zero_reg__
 2631 0b5e 3105      		cpc r19,__zero_reg__
 2632 0b60 00F4      		brsh .L53
 2633 0b62 0050      		subi r16,lo8(-(gs(.L55)))
 2634 0b64 1040      		sbci r17,hi8(-(gs(.L55)))
 2635               	.LVL178:
 536:../../emulator/emulator.c **** 				{
 2636               		.loc 1 536 5 is_stmt 0 view .LVU456
 2637 0b66 F801      		movw r30,r16
 599:../../emulator/emulator.c **** 						break;
 2638               		.loc 1 599 26 view .LVU457
 2639 0b68 7A01      		movw r14,r20
 2640 0b6a EE0C      		lsl r14
 2641 0b6c FF1C      		rol r15
 2642 0b6e EE0C      		lsl r14
 2643 0b70 FF1C      		rol r15
 2644 0b72 E80C      		add r14,r8
 2645 0b74 F91C      		adc r15,r9
 599:../../emulator/emulator.c **** 						break;
 2646               		.loc 1 599 48 view .LVU458
 2647 0b76 6D81      		ldd r22,Y+5
 2648 0b78 7E81      		ldd r23,Y+6
 2649 0b7a 8F81      		ldd r24,Y+7
 2650 0b7c 9885      		ldd r25,Y+8
 2651 0b7e A301      		movw r20,r6
 2652 0b80 9201      		movw r18,r4
 2653 0b82 0C94 0000 		jmp __tablejump2__
 2654               		.section	.jumptables.gcc.emulator_call,"a",@progbits
 2655               		.p2align	1
 2656               	.L55:
 2657 0048 0000      		.word gs(.L61)
 2658 004a 0000      		.word gs(.L60)
 2659 004c 0000      		.word gs(.L59)
 2660 004e 0000      		.word gs(.L58)
 2661 0050 0000      		.word gs(.L57)
 2662 0052 0000      		.word gs(.L56)
 2663 0054 0000      		.word gs(.L54)
 2664               		.text
 2665               	.L53:
 543:../../emulator/emulator.c **** 						break;
 2666               		.loc 1 543 7 is_stmt 1 view .LVU459
 543:../../emulator/emulator.c **** 						break;
 2667               		.loc 1 543 26 is_stmt 0 view .LVU460
 2668 0b86 FA01      		movw r30,r20
 2669 0b88 EE0F      		lsl r30
 2670 0b8a FF1F      		rol r31
 2671 0b8c EE0F      		lsl r30
 2672 0b8e FF1F      		rol r31
 2673 0b90 E80D      		add r30,r8
 2674 0b92 F91D      		adc r31,r9
 543:../../emulator/emulator.c **** 						break;
 2675               		.loc 1 543 53 view .LVU461
 2676 0b94 2D81      		ldd r18,Y+5
 2677 0b96 3E81      		ldd r19,Y+6
 2678 0b98 4F81      		ldd r20,Y+7
 2679 0b9a 5885      		ldd r21,Y+8
 2680 0b9c C301      		movw r24,r6
 2681 0b9e B201      		movw r22,r4
 2682 0ba0 0E94 0000 		call __mulsi3
 2683               	.L93:
 591:../../emulator/emulator.c **** 						break;
 2684               		.loc 1 591 53 view .LVU462
 2685 0ba4 6083      		st Z,r22
 2686 0ba6 7183      		std Z+1,r23
 2687 0ba8 8283      		std Z+2,r24
 2688 0baa 9383      		std Z+3,r25
 592:../../emulator/emulator.c **** 
 2689               		.loc 1 592 7 is_stmt 1 view .LVU463
 2690 0bac 00C0      		rjmp .L31
 2691               	.L61:
 551:../../emulator/emulator.c **** 						break;
 2692               		.loc 1 551 7 view .LVU464
 551:../../emulator/emulator.c **** 						break;
 2693               		.loc 1 551 54 is_stmt 0 view .LVU465
 2694 0bae 0E94 0000 		call __umulsidi3
 551:../../emulator/emulator.c **** 						break;
 2695               		.loc 1 551 82 view .LVU466
 2696 0bb2 00E2      		ldi r16,lo8(32)
 2697 0bb4 0E94 0000 		call __ashrdi3
 2698               	.L92:
 567:../../emulator/emulator.c **** 						break;
 2699               		.loc 1 567 26 view .LVU467
 2700 0bb8 D701      		movw r26,r14
 2701 0bba 2C93      		st X,r18
 2702 0bbc 1196      		adiw r26,1
 2703 0bbe 3C93      		st X,r19
 2704 0bc0 1197      		sbiw r26,1
 2705 0bc2 1296      		adiw r26,2
 2706 0bc4 4C93      		st X,r20
 2707 0bc6 1297      		sbiw r26,2
 2708 0bc8 1396      		adiw r26,3
 2709 0bca 5C93      		st X,r21
 568:../../emulator/emulator.c **** 
 2710               		.loc 1 568 7 is_stmt 1 view .LVU468
 2711 0bcc 00C0      		rjmp .L31
 2712               	.L60:
 559:../../emulator/emulator.c **** 						break;
 2713               		.loc 1 559 7 view .LVU469
 559:../../emulator/emulator.c **** 						break;
 2714               		.loc 1 559 54 is_stmt 0 view .LVU470
 2715 0bce 0E94 0000 		call __umulsidi3
 559:../../emulator/emulator.c **** 						break;
 2716               		.loc 1 559 82 view .LVU471
 2717 0bd2 00E2      		ldi r16,lo8(32)
 2718 0bd4 0E94 0000 		call __lshrdi3
 559:../../emulator/emulator.c **** 						break;
 2719               		.loc 1 559 26 view .LVU472
 2720 0bd8 F701      		movw r30,r14
 2721 0bda 2083      		st Z,r18
 2722 0bdc 3183      		std Z+1,r19
 2723 0bde 4283      		std Z+2,r20
 2724 0be0 5383      		std Z+3,r21
 560:../../emulator/emulator.c **** 
 2725               		.loc 1 560 7 is_stmt 1 view .LVU473
 2726 0be2 00C0      		rjmp .L31
 2727               	.L59:
 567:../../emulator/emulator.c **** 						break;
 2728               		.loc 1 567 7 view .LVU474
 567:../../emulator/emulator.c **** 						break;
 2729               		.loc 1 567 54 is_stmt 0 view .LVU475
 2730 0be4 0E94 0000 		call __umulsidi3
 567:../../emulator/emulator.c **** 						break;
 2731               		.loc 1 567 82 view .LVU476
 2732 0be8 00E2      		ldi r16,lo8(32)
 2733 0bea 0E94 0000 		call __lshrdi3
 2734 0bee 00C0      		rjmp .L92
 2735               	.L58:
 575:../../emulator/emulator.c **** 						break;
 2736               		.loc 1 575 7 is_stmt 1 view .LVU477
 575:../../emulator/emulator.c **** 						break;
 2737               		.loc 1 575 53 is_stmt 0 view .LVU478
 2738 0bf0 0E94 0000 		call __divmodsi4
 575:../../emulator/emulator.c **** 						break;
 2739               		.loc 1 575 26 view .LVU479
 2740 0bf4 F701      		movw r30,r14
 2741 0bf6 2083      		st Z,r18
 2742 0bf8 3183      		std Z+1,r19
 2743 0bfa 4283      		std Z+2,r20
 2744 0bfc 5383      		std Z+3,r21
 576:../../emulator/emulator.c **** 
 2745               		.loc 1 576 7 is_stmt 1 view .LVU480
 2746 0bfe 00C0      		rjmp .L31
 2747               	.L57:
 583:../../emulator/emulator.c **** 						break;
 2748               		.loc 1 583 7 view .LVU481
 583:../../emulator/emulator.c **** 						break;
 2749               		.loc 1 583 48 is_stmt 0 view .LVU482
 2750 0c00 0E94 0000 		call __udivmodsi4
 583:../../emulator/emulator.c **** 						break;
 2751               		.loc 1 583 26 view .LVU483
 2752 0c04 D701      		movw r26,r14
 2753 0c06 2D93      		st X+,r18
 2754 0c08 3D93      		st X+,r19
 2755 0c0a 4D93      		st X+,r20
 2756 0c0c 5C93      		st X,r21
 2757 0c0e 1397      		sbiw r26,3
 584:../../emulator/emulator.c **** 
 2758               		.loc 1 584 7 is_stmt 1 view .LVU484
 2759 0c10 00C0      		rjmp .L31
 2760               	.L56:
 591:../../emulator/emulator.c **** 						break;
 2761               		.loc 1 591 7 view .LVU485
 591:../../emulator/emulator.c **** 						break;
 2762               		.loc 1 591 53 is_stmt 0 view .LVU486
 2763 0c12 0E94 0000 		call __divmodsi4
 2764 0c16 F701      		movw r30,r14
 2765 0c18 00C0      		rjmp .L93
 2766               	.L54:
 599:../../emulator/emulator.c **** 						break;
 2767               		.loc 1 599 7 is_stmt 1 view .LVU487
 599:../../emulator/emulator.c **** 						break;
 2768               		.loc 1 599 48 is_stmt 0 view .LVU488
 2769 0c1a 0E94 0000 		call __udivmodsi4
 2770 0c1e D701      		movw r26,r14
 2771 0c20 6D93      		st X+,r22
 2772 0c22 7D93      		st X+,r23
 2773 0c24 8D93      		st X+,r24
 2774 0c26 9C93      		st X,r25
 2775 0c28 1397      		sbiw r26,3
 600:../../emulator/emulator.c **** 				}
 2776               		.loc 1 600 7 is_stmt 1 view .LVU489
 2777 0c2a 00C0      		rjmp .L31
 2778               	.L52:
 605:../../emulator/emulator.c **** 				{
 2779               		.loc 1 605 5 view .LVU490
 2780 0c2c 0730      		cpi r16,7
 2781 0c2e 1105      		cpc r17,__zero_reg__
 2782 0c30 2105      		cpc r18,__zero_reg__
 2783 0c32 3105      		cpc r19,__zero_reg__
 2784 0c34 00F4      		brsh .L62
 2785 0c36 0050      		subi r16,lo8(-(gs(.L64)))
 2786 0c38 1040      		sbci r17,hi8(-(gs(.L64)))
 2787 0c3a F801      		movw r30,r16
 2788 0c3c 0C94 0000 		jmp __tablejump2__
 2789               		.section	.jumptables.gcc.emulator_call,"a",@progbits
 2790               		.p2align	1
 2791               	.L64:
 2792 0056 0000      		.word gs(.L70)
 2793 0058 0000      		.word gs(.L69)
 2794 005a 0000      		.word gs(.L68)
 2795 005c 0000      		.word gs(.L67)
 2796 005e 0000      		.word gs(.L66)
 2797 0060 0000      		.word gs(.L65)
 2798 0062 0000      		.word gs(.L63)
 2799               		.text
 2800               	.L62:
 608:../../emulator/emulator.c **** 						{
 2801               		.loc 1 608 7 view .LVU491
 614:../../emulator/emulator.c **** 						}
 2802               		.loc 1 614 27 is_stmt 0 view .LVU492
 2803 0c40 FA01      		movw r30,r20
 2804 0c42 EE0F      		lsl r30
 2805 0c44 FF1F      		rol r31
 2806 0c46 EE0F      		lsl r30
 2807 0c48 FF1F      		rol r31
 2808 0c4a E80D      		add r30,r8
 2809 0c4c F91D      		adc r31,r9
 614:../../emulator/emulator.c **** 						}
 2810               		.loc 1 614 49 view .LVU493
 2811 0c4e 8D81      		ldd r24,Y+5
 2812 0c50 9E81      		ldd r25,Y+6
 2813 0c52 AF81      		ldd r26,Y+7
 2814 0c54 B885      		ldd r27,Y+8
 2815               	.LVL179:
 608:../../emulator/emulator.c **** 						{
 2816               		.loc 1 608 9 view .LVU494
 2817 0c56 CD28      		or r12,r13
 2818 0c58 CE28      		or r12,r14
 2819 0c5a CF28      		or r12,r15
 2820 0c5c 01F0      		breq .L71
 614:../../emulator/emulator.c **** 						}
 2821               		.loc 1 614 8 is_stmt 1 view .LVU495
 614:../../emulator/emulator.c **** 						}
 2822               		.loc 1 614 49 is_stmt 0 view .LVU496
 2823 0c5e 8419      		sub r24,r4
 2824 0c60 9509      		sbc r25,r5
 2825 0c62 A609      		sbc r26,r6
 2826 0c64 B709      		sbc r27,r7
 2827 0c66 00C0      		rjmp .L88
 2828               	.L71:
 622:../../emulator/emulator.c **** 						}
 2829               		.loc 1 622 8 is_stmt 1 view .LVU497
 622:../../emulator/emulator.c **** 						}
 2830               		.loc 1 622 49 is_stmt 0 view .LVU498
 2831 0c68 840D      		add r24,r4
 2832 0c6a 951D      		adc r25,r5
 2833 0c6c A61D      		adc r26,r6
 2834 0c6e B71D      		adc r27,r7
 2835 0c70 00C0      		rjmp .L88
 2836               	.LVL180:
 2837               	.L70:
 631:../../emulator/emulator.c **** 						break;
 2838               		.loc 1 631 7 is_stmt 1 view .LVU499
 631:../../emulator/emulator.c **** 						break;
 2839               		.loc 1 631 26 is_stmt 0 view .LVU500
 2840 0c72 FA01      		movw r30,r20
 2841 0c74 EE0F      		lsl r30
 2842 0c76 FF1F      		rol r31
 2843 0c78 EE0F      		lsl r30
 2844 0c7a FF1F      		rol r31
 2845 0c7c E80D      		add r30,r8
 2846 0c7e F91D      		adc r31,r9
 631:../../emulator/emulator.c **** 						break;
 2847               		.loc 1 631 72 view .LVU501
 2848 0c80 2FE1      		ldi r18,31
 2849 0c82 4222      		and r4,r18
 2850 0c84 5524      		clr r5
 631:../../emulator/emulator.c **** 						break;
 2851               		.loc 1 631 48 view .LVU502
 2852 0c86 8D81      		ldd r24,Y+5
 2853 0c88 9E81      		ldd r25,Y+6
 2854 0c8a AF81      		ldd r26,Y+7
 2855 0c8c B885      		ldd r27,Y+8
 2856               	.LVL181:
 631:../../emulator/emulator.c **** 						break;
 2857               		.loc 1 631 48 view .LVU503
 2858 0c8e 00C0      		rjmp 2f
 2859               		1:
 2860 0c90 880F      		lsl r24
 2861 0c92 991F      		rol r25
 2862 0c94 AA1F      		rol r26
 2863 0c96 BB1F      		rol r27
 2864               		2:
 2865 0c98 4A94      		dec r4
 2866 0c9a 02F4      		brpl 1b
 2867 0c9c 00C0      		rjmp .L88
 2868               	.LVL182:
 2869               	.L69:
 639:../../emulator/emulator.c **** 						break;
 2870               		.loc 1 639 7 is_stmt 1 view .LVU504
 639:../../emulator/emulator.c **** 						break;
 2871               		.loc 1 639 26 is_stmt 0 view .LVU505
 2872 0c9e FA01      		movw r30,r20
 2873 0ca0 EE0F      		lsl r30
 2874 0ca2 FF1F      		rol r31
 2875 0ca4 EE0F      		lsl r30
 2876 0ca6 FF1F      		rol r31
 2877 0ca8 E80D      		add r30,r8
 2878 0caa F91D      		adc r31,r9
 639:../../emulator/emulator.c **** 						break;
 2879               		.loc 1 639 53 view .LVU506
 2880 0cac 81E0      		ldi r24,lo8(1)
 2881 0cae 90E0      		ldi r25,0
 2882 0cb0 A0E0      		ldi r26,0
 2883 0cb2 B0E0      		ldi r27,0
 2884               	.LVL183:
 639:../../emulator/emulator.c **** 						break;
 2885               		.loc 1 639 53 view .LVU507
 2886 0cb4 4D81      		ldd r20,Y+5
 2887 0cb6 5E81      		ldd r21,Y+6
 2888 0cb8 6F81      		ldd r22,Y+7
 2889 0cba 7885      		ldd r23,Y+8
 2890 0cbc 4415      		cp r20,r4
 2891 0cbe 5505      		cpc r21,r5
 2892 0cc0 6605      		cpc r22,r6
 2893 0cc2 7705      		cpc r23,r7
 2894 0cc4 00C0      		rjmp .L102
 2895               	.LVL184:
 2896               	.L68:
 647:../../emulator/emulator.c **** 						break;
 2897               		.loc 1 647 7 is_stmt 1 view .LVU508
 647:../../emulator/emulator.c **** 						break;
 2898               		.loc 1 647 26 is_stmt 0 view .LVU509
 2899 0cc6 FA01      		movw r30,r20
 2900 0cc8 EE0F      		lsl r30
 2901 0cca FF1F      		rol r31
 2902 0ccc EE0F      		lsl r30
 2903 0cce FF1F      		rol r31
 2904 0cd0 E80D      		add r30,r8
 2905 0cd2 F91D      		adc r31,r9
 647:../../emulator/emulator.c **** 						break;
 2906               		.loc 1 647 48 view .LVU510
 2907 0cd4 81E0      		ldi r24,lo8(1)
 2908 0cd6 90E0      		ldi r25,0
 2909 0cd8 A0E0      		ldi r26,0
 2910 0cda B0E0      		ldi r27,0
 2911               	.LVL185:
 647:../../emulator/emulator.c **** 						break;
 2912               		.loc 1 647 48 view .LVU511
 2913 0cdc CD80      		ldd r12,Y+5
 2914 0cde DE80      		ldd r13,Y+6
 2915 0ce0 EF80      		ldd r14,Y+7
 2916 0ce2 F884      		ldd r15,Y+8
 2917               	.LVL186:
 647:../../emulator/emulator.c **** 						break;
 2918               		.loc 1 647 48 view .LVU512
 2919 0ce4 C414      		cp r12,r4
 2920 0ce6 D504      		cpc r13,r5
 2921 0ce8 E604      		cpc r14,r6
 2922 0cea F704      		cpc r15,r7
 2923 0cec 00F4      		brsh .+2
 2924 0cee 00C0      		rjmp .L88
 2925 0cf0 00C0      		rjmp .L101
 2926               	.LVL187:
 2927               	.L67:
 655:../../emulator/emulator.c **** 						break;
 2928               		.loc 1 655 7 is_stmt 1 view .LVU513
 655:../../emulator/emulator.c **** 						break;
 2929               		.loc 1 655 26 is_stmt 0 view .LVU514
 2930 0cf2 FA01      		movw r30,r20
 2931 0cf4 EE0F      		lsl r30
 2932 0cf6 FF1F      		rol r31
 2933 0cf8 EE0F      		lsl r30
 2934 0cfa FF1F      		rol r31
 2935 0cfc E80D      		add r30,r8
 2936 0cfe F91D      		adc r31,r9
 655:../../emulator/emulator.c **** 						break;
 2937               		.loc 1 655 48 view .LVU515
 2938 0d00 8D81      		ldd r24,Y+5
 2939 0d02 9E81      		ldd r25,Y+6
 2940 0d04 AF81      		ldd r26,Y+7
 2941 0d06 B885      		ldd r27,Y+8
 2942               	.LVL188:
 655:../../emulator/emulator.c **** 						break;
 2943               		.loc 1 655 48 view .LVU516
 2944 0d08 8425      		eor r24,r4
 2945 0d0a 9525      		eor r25,r5
 2946 0d0c A625      		eor r26,r6
 2947 0d0e B725      		eor r27,r7
 2948 0d10 00C0      		rjmp .L88
 2949               	.LVL189:
 2950               	.L66:
 659:../../emulator/emulator.c **** 						{
 2951               		.loc 1 659 7 is_stmt 1 view .LVU517
 665:../../emulator/emulator.c **** 						}
 2952               		.loc 1 665 78 is_stmt 0 view .LVU518
 2953 0d12 2FE1      		ldi r18,31
 2954 0d14 4222      		and r4,r18
 2955 0d16 5524      		clr r5
 665:../../emulator/emulator.c **** 						}
 2956               		.loc 1 665 27 view .LVU519
 2957 0d18 FA01      		movw r30,r20
 2958 0d1a EE0F      		lsl r30
 2959 0d1c FF1F      		rol r31
 2960 0d1e EE0F      		lsl r30
 2961 0d20 FF1F      		rol r31
 2962 0d22 E80D      		add r30,r8
 2963 0d24 F91D      		adc r31,r9
 665:../../emulator/emulator.c **** 						}
 2964               		.loc 1 665 54 view .LVU520
 2965 0d26 8D81      		ldd r24,Y+5
 2966 0d28 9E81      		ldd r25,Y+6
 2967 0d2a AF81      		ldd r26,Y+7
 2968 0d2c B885      		ldd r27,Y+8
 2969               	.LVL190:
 659:../../emulator/emulator.c **** 						{
 2970               		.loc 1 659 9 view .LVU521
 2971 0d2e CD28      		or r12,r13
 2972 0d30 CE28      		or r12,r14
 2973 0d32 CF28      		or r12,r15
 2974 0d34 01F0      		breq .L74
 665:../../emulator/emulator.c **** 						}
 2975               		.loc 1 665 8 is_stmt 1 view .LVU522
 665:../../emulator/emulator.c **** 						}
 2976               		.loc 1 665 54 is_stmt 0 view .LVU523
 2977 0d36 00C0      		rjmp 2f
 2978               		1:
 2979 0d38 B595      		asr r27
 2980 0d3a A795      		ror r26
 2981 0d3c 9795      		ror r25
 2982 0d3e 8795      		ror r24
 2983               		2:
 2984 0d40 4A94      		dec r4
 2985 0d42 02F4      		brpl 1b
 2986 0d44 00C0      		rjmp .L88
 2987               	.L74:
 673:../../emulator/emulator.c **** 						}
 2988               		.loc 1 673 8 is_stmt 1 view .LVU524
 673:../../emulator/emulator.c **** 						}
 2989               		.loc 1 673 49 is_stmt 0 view .LVU525
 2990 0d46 00C0      		rjmp 2f
 2991               		1:
 2992 0d48 B695      		lsr r27
 2993 0d4a A795      		ror r26
 2994 0d4c 9795      		ror r25
 2995 0d4e 8795      		ror r24
 2996               		2:
 2997 0d50 4A94      		dec r4
 2998 0d52 02F4      		brpl 1b
 2999 0d54 00C0      		rjmp .L88
 3000               	.LVL191:
 3001               	.L65:
 682:../../emulator/emulator.c **** 						break;
 3002               		.loc 1 682 7 is_stmt 1 view .LVU526
 682:../../emulator/emulator.c **** 						break;
 3003               		.loc 1 682 26 is_stmt 0 view .LVU527
 3004 0d56 FA01      		movw r30,r20
 3005 0d58 EE0F      		lsl r30
 3006 0d5a FF1F      		rol r31
 3007 0d5c EE0F      		lsl r30
 3008 0d5e FF1F      		rol r31
 3009 0d60 E80D      		add r30,r8
 3010 0d62 F91D      		adc r31,r9
 682:../../emulator/emulator.c **** 						break;
 3011               		.loc 1 682 48 view .LVU528
 3012 0d64 8D81      		ldd r24,Y+5
 3013 0d66 9E81      		ldd r25,Y+6
 3014 0d68 AF81      		ldd r26,Y+7
 3015 0d6a B885      		ldd r27,Y+8
 3016               	.LVL192:
 682:../../emulator/emulator.c **** 						break;
 3017               		.loc 1 682 48 view .LVU529
 3018 0d6c 8429      		or r24,r4
 3019 0d6e 9529      		or r25,r5
 3020 0d70 A629      		or r26,r6
 3021 0d72 B729      		or r27,r7
 3022 0d74 00C0      		rjmp .L88
 3023               	.LVL193:
 3024               	.L63:
 690:../../emulator/emulator.c **** 						break;
 3025               		.loc 1 690 7 is_stmt 1 view .LVU530
 690:../../emulator/emulator.c **** 						break;
 3026               		.loc 1 690 26 is_stmt 0 view .LVU531
 3027 0d76 FA01      		movw r30,r20
 3028 0d78 EE0F      		lsl r30
 3029 0d7a FF1F      		rol r31
 3030 0d7c EE0F      		lsl r30
 3031 0d7e FF1F      		rol r31
 3032               	.LVL194:
 690:../../emulator/emulator.c **** 						break;
 3033               		.loc 1 690 26 view .LVU532
 3034 0d80 E80D      		add r30,r8
 3035 0d82 F91D      		adc r31,r9
 690:../../emulator/emulator.c **** 						break;
 3036               		.loc 1 690 48 view .LVU533
 3037 0d84 8D81      		ldd r24,Y+5
 3038 0d86 9E81      		ldd r25,Y+6
 3039 0d88 AF81      		ldd r26,Y+7
 3040 0d8a B885      		ldd r27,Y+8
 3041 0d8c 8421      		and r24,r4
 3042 0d8e 9521      		and r25,r5
 3043 0d90 A621      		and r26,r6
 3044 0d92 B721      		and r27,r7
 3045 0d94 00C0      		rjmp .L88
 3046               	.LVL195:
 3047               	.L25:
 690:../../emulator/emulator.c **** 						break;
 3048               		.loc 1 690 48 view .LVU534
 3049               	.LBE203:
 3050               	.LBB204:
 699:../../emulator/emulator.c **** 			rd = (instr >> 7) & 0x1F;
 3051               		.loc 1 699 4 is_stmt 1 view .LVU535
 700:../../emulator/emulator.c **** 			imm = (instr >> 12);
 3052               		.loc 1 700 4 view .LVU536
 701:../../emulator/emulator.c **** #ifdef DEBUG
 3053               		.loc 1 701 4 view .LVU537
 705:../../emulator/emulator.c **** 			break;
 3054               		.loc 1 705 4 view .LVU538
 700:../../emulator/emulator.c **** 			imm = (instr >> 12);
 3055               		.loc 1 700 16 is_stmt 0 view .LVU539
 3056 0d96 AC01      		movw r20,r24
 3057 0d98 BD01      		movw r22,r26
 3058 0d9a 17E0      		ldi r17,7
 3059               		1:
 3060 0d9c 7695      		lsr r23
 3061 0d9e 6795      		ror r22
 3062 0da0 5795      		ror r21
 3063 0da2 4795      		ror r20
 3064 0da4 1A95      		dec r17
 3065 0da6 01F4      		brne 1b
 700:../../emulator/emulator.c **** 			imm = (instr >> 12);
 3066               		.loc 1 700 7 view .LVU540
 3067 0da8 4F71      		andi r20,31
 3068 0daa 5527      		clr r21
 3069 0dac 6627      		clr r22
 3070 0dae 7727      		clr r23
 3071               	.LVL196:
 705:../../emulator/emulator.c **** 			break;
 3072               		.loc 1 705 23 view .LVU541
 3073 0db0 FA01      		movw r30,r20
 3074 0db2 3396      		adiw r30,3
 3075 0db4 EE0F      		lsl r30
 3076 0db6 FF1F      		rol r31
 3077 0db8 EE0F      		lsl r30
 3078 0dba FF1F      		rol r31
 3079               	.LVL197:
 705:../../emulator/emulator.c **** 			break;
 3080               		.loc 1 705 23 view .LVU542
 3081 0dbc E80D      		add r30,r8
 3082 0dbe F91D      		adc r31,r9
 705:../../emulator/emulator.c **** 			break;
 3083               		.loc 1 705 30 view .LVU543
 3084 0dc0 8827      		clr r24
 3085 0dc2 907F      		andi r25,240
 3086               	.LVL198:
 705:../../emulator/emulator.c **** 			break;
 3087               		.loc 1 705 30 view .LVU544
 3088 0dc4 00C0      		rjmp .L88
 3089               	.LVL199:
 3090               	.L24:
 705:../../emulator/emulator.c **** 			break;
 3091               		.loc 1 705 30 view .LVU545
 3092               	.LBE204:
 3093               	.LBB205:
 711:../../emulator/emulator.c **** 			u32 imm, rs1, rs2, funct3;
 3094               		.loc 1 711 4 is_stmt 1 view .LVU546
 712:../../emulator/emulator.c **** 
 3095               		.loc 1 712 4 view .LVU547
 714:../../emulator/emulator.c **** 			rs1 = (instr >> 15) & 0x1F;
 3096               		.loc 1 714 4 view .LVU548
 714:../../emulator/emulator.c **** 			rs1 = (instr >> 15) & 0x1F;
 3097               		.loc 1 714 20 is_stmt 0 view .LVU549
 3098 0dc6 8C01      		movw r16,r24
 3099 0dc8 9D01      		movw r18,r26
 3100               	.LVL200:
 714:../../emulator/emulator.c **** 			rs1 = (instr >> 15) & 0x1F;
 3101               		.loc 1 714 20 view .LVU550
 3102 0dca 5CE0      		ldi r21,12
 3103               		1:
 3104 0dcc 3695      		lsr r19
 3105 0dce 2795      		ror r18
 3106 0dd0 1795      		ror r17
 3107 0dd2 0795      		ror r16
 3108 0dd4 5A95      		dec r21
 3109 0dd6 01F4      		brne 1b
 714:../../emulator/emulator.c **** 			rs1 = (instr >> 15) & 0x1F;
 3110               		.loc 1 714 11 view .LVU551
 3111 0dd8 0770      		andi r16,7
 3112 0dda 1127      		clr r17
 3113 0ddc 2227      		clr r18
 3114 0dde 3327      		clr r19
 3115               	.LVL201:
 715:../../emulator/emulator.c **** 			rs2 = (instr >> 20) & 0x1F;
 3116               		.loc 1 715 4 is_stmt 1 view .LVU552
 715:../../emulator/emulator.c **** 			rs2 = (instr >> 20) & 0x1F;
 3117               		.loc 1 715 17 is_stmt 0 view .LVU553
 3118 0de0 6C01      		movw r12,r24
 3119 0de2 7D01      		movw r14,r26
 3120 0de4 6FE0      		ldi r22,15
 3121               		1:
 3122 0de6 F694      		lsr r15
 3123 0de8 E794      		ror r14
 3124 0dea D794      		ror r13
 3125 0dec C794      		ror r12
 3126 0dee 6A95      		dec r22
 3127 0df0 01F4      		brne 1b
 715:../../emulator/emulator.c **** 			rs2 = (instr >> 20) & 0x1F;
 3128               		.loc 1 715 8 view .LVU554
 3129 0df2 B701      		movw r22,r14
 3130 0df4 A601      		movw r20,r12
 3131 0df6 4F71      		andi r20,31
 3132 0df8 5527      		clr r21
 3133 0dfa 6627      		clr r22
 3134 0dfc 7727      		clr r23
 3135 0dfe 4B8B      		std Y+19,r20
 3136 0e00 5C8B      		std Y+20,r21
 3137 0e02 6D8B      		std Y+21,r22
 3138 0e04 7E8B      		std Y+22,r23
 3139               	.LVL202:
 716:../../emulator/emulator.c **** 
 3140               		.loc 1 716 4 is_stmt 1 view .LVU555
 716:../../emulator/emulator.c **** 
 3141               		.loc 1 716 17 is_stmt 0 view .LVU556
 3142 0e06 6C01      		movw r12,r24
 3143 0e08 7D01      		movw r14,r26
 3144 0e0a 74E1      		ldi r23,20
 3145               		1:
 3146 0e0c F694      		lsr r15
 3147 0e0e E794      		ror r14
 3148 0e10 D794      		ror r13
 3149 0e12 C794      		ror r12
 3150 0e14 7A95      		dec r23
 3151 0e16 01F4      		brne 1b
 716:../../emulator/emulator.c **** 
 3152               		.loc 1 716 8 view .LVU557
 3153 0e18 B701      		movw r22,r14
 3154 0e1a A601      		movw r20,r12
 3155               	.LVL203:
 716:../../emulator/emulator.c **** 
 3156               		.loc 1 716 8 view .LVU558
 3157 0e1c 4F71      		andi r20,31
 3158 0e1e 5527      		clr r21
 3159 0e20 6627      		clr r22
 3160 0e22 7727      		clr r23
 3161 0e24 4D83      		std Y+5,r20
 3162 0e26 5E83      		std Y+6,r21
 3163 0e28 6F83      		std Y+7,r22
 3164 0e2a 7887      		std Y+8,r23
 3165               	.LVL204:
 718:../../emulator/emulator.c **** 				((instr & 0x7E000000) >> 20) |
 3166               		.loc 1 718 4 is_stmt 1 view .LVU559
 723:../../emulator/emulator.c **** 			switch(funct3)
 3167               		.loc 1 723 4 view .LVU560
 3168               	.LBB206:
 3169               	.LBI206:
  31:../../emulator/emulator.c **** {
 3170               		.loc 1 31 19 view .LVU561
 3171               	.LBB207:
  33:../../emulator/emulator.c **** 	return (value ^ m) - m;
 3172               		.loc 1 33 2 view .LVU562
  34:../../emulator/emulator.c **** }
 3173               		.loc 1 34 2 view .LVU563
 3174               	.LBE207:
 3175               	.LBE206:
 718:../../emulator/emulator.c **** 				((instr & 0x7E000000) >> 20) |
 3176               		.loc 1 718 27 is_stmt 0 view .LVU564
 3177 0e2c 2C01      		movw r4,r24
 3178 0e2e 3D01      		movw r6,r26
 3179               	.LVL205:
 718:../../emulator/emulator.c **** 				((instr & 0x7E000000) >> 20) |
 3180               		.loc 1 718 27 view .LVU565
 3181 0e30 E7E0      		ldi r30,7
 3182               		1:
 3183 0e32 7694      		lsr r7
 3184 0e34 6794      		ror r6
 3185 0e36 5794      		ror r5
 3186 0e38 4794      		ror r4
 3187 0e3a EA95      		dec r30
 3188 0e3c 01F4      		brne 1b
 3189 0e3e 5EE1      		ldi r21,30
 3190 0e40 4522      		and r4,r21
 3191 0e42 5524      		clr r5
 3192 0e44 6624      		clr r6
 3193 0e46 7724      		clr r7
 719:../../emulator/emulator.c **** 				((instr & 0x80) << 4) |
 3194               		.loc 1 719 27 view .LVU566
 3195 0e48 B701      		movw r22,r14
 3196 0e4a A601      		movw r20,r12
 3197               	.LVL206:
 719:../../emulator/emulator.c **** 				((instr & 0x80) << 4) |
 3198               		.loc 1 719 27 view .LVU567
 3199 0e4c 407E      		andi r20,224
 3200 0e4e 5770      		andi r21,7
 3201 0e50 6627      		clr r22
 3202 0e52 7727      		clr r23
 718:../../emulator/emulator.c **** 				((instr & 0x7E000000) >> 20) |
 3203               		.loc 1 718 33 view .LVU568
 3204 0e54 442A      		or r4,r20
 3205 0e56 552A      		or r5,r21
 3206 0e58 662A      		or r6,r22
 3207 0e5a 772A      		or r7,r23
 720:../../emulator/emulator.c **** 				((instr & 0x80000000) >> 20);
 3208               		.loc 1 720 21 view .LVU569
 3209 0e5c F4E0      		ldi r31,4
 3210               		1:
 3211 0e5e 880F      		lsl r24
 3212 0e60 991F      		rol r25
 3213 0e62 AA1F      		rol r26
 3214 0e64 BB1F      		rol r27
 3215 0e66 FA95      		dec r31
 3216 0e68 01F4      		brne 1b
 3217               	.LVL207:
 720:../../emulator/emulator.c **** 				((instr & 0x80000000) >> 20);
 3218               		.loc 1 720 21 view .LVU570
 3219 0e6a 8827      		clr r24
 3220 0e6c 9870      		andi r25,8
 3221 0e6e AA27      		clr r26
 3222 0e70 BB27      		clr r27
 719:../../emulator/emulator.c **** 				((instr & 0x80) << 4) |
 3223               		.loc 1 719 34 view .LVU571
 3224 0e72 8429      		or r24,r4
 3225 0e74 9529      		or r25,r5
 3226 0e76 A629      		or r26,r6
 3227 0e78 B729      		or r27,r7
 721:../../emulator/emulator.c **** 
 3228               		.loc 1 721 27 view .LVU572
 3229 0e7a CC24      		clr r12
 3230 0e7c 58E0      		ldi r21,8
 3231 0e7e D522      		and r13,r21
 3232 0e80 EE24      		clr r14
 3233 0e82 FF24      		clr r15
 3234               	.LVL208:
 718:../../emulator/emulator.c **** 				((instr & 0x7E000000) >> 20) |
 3235               		.loc 1 718 8 view .LVU573
 3236 0e84 8C29      		or r24,r12
 3237 0e86 9D29      		or r25,r13
 3238 0e88 AE29      		or r26,r14
 3239 0e8a BF29      		or r27,r15
 3240               	.LBB209:
 3241               	.LBB208:
  34:../../emulator/emulator.c **** }
 3242               		.loc 1 34 16 view .LVU574
 3243 0e8c 68E0      		ldi r22,8
 3244 0e8e 9627      		eor r25,r22
  34:../../emulator/emulator.c **** }
 3245               		.loc 1 34 21 view .LVU575
 3246 0e90 2C01      		movw r4,r24
 3247 0e92 3D01      		movw r6,r26
 3248 0e94 78E0      		ldi r23,8
 3249 0e96 571A      		sub r5,r23
 3250 0e98 6108      		sbc r6,__zero_reg__
 3251 0e9a 7108      		sbc r7,__zero_reg__
 3252               	.LVL209:
  34:../../emulator/emulator.c **** }
 3253               		.loc 1 34 21 view .LVU576
 3254               	.LBE208:
 3255               	.LBE209:
 724:../../emulator/emulator.c **** 			{
 3256               		.loc 1 724 4 is_stmt 1 view .LVU577
 3257 0e9c 0530      		cpi r16,5
 3258 0e9e 1105      		cpc r17,__zero_reg__
 3259 0ea0 2105      		cpc r18,__zero_reg__
 3260 0ea2 3105      		cpc r19,__zero_reg__
 3261 0ea4 01F4      		brne .+2
 3262 0ea6 00C0      		rjmp .L75
 3263 0ea8 00F0      		brlo .+2
 3264 0eaa 00C0      		rjmp .L76
 3265 0eac 0130      		cpi r16,1
 3266 0eae 1105      		cpc r17,__zero_reg__
 3267 0eb0 2105      		cpc r18,__zero_reg__
 3268 0eb2 3105      		cpc r19,__zero_reg__
 3269 0eb4 01F4      		brne .+2
 3270 0eb6 00C0      		rjmp .L77
 3271 0eb8 0430      		cpi r16,4
 3272 0eba 1105      		cpc r17,__zero_reg__
 3273 0ebc 2105      		cpc r18,__zero_reg__
 3274 0ebe 3105      		cpc r19,__zero_reg__
 3275 0ec0 01F4      		brne .+2
 3276 0ec2 00C0      		rjmp .L78
 3277 0ec4 012B      		or r16,r17
 3278 0ec6 022B      		or r16,r18
 3279 0ec8 032B      		or r16,r19
 3280 0eca 01F0      		breq .+2
 3281 0ecc 00C0      		rjmp .L19
 731:../../emulator/emulator.c **** 					{
 3282               		.loc 1 731 6 view .LVU578
 3283               	.LBE205:
 3284               	.LBB210:
 476:../../emulator/emulator.c **** 			break;
 3285               		.loc 1 476 28 is_stmt 0 view .LVU579
 3286 0ece D401      		movw r26,r8
 3287 0ed0 1896      		adiw r26,8
 3288 0ed2 0D91      		ld r16,X+
 3289 0ed4 1D91      		ld r17,X+
 3290 0ed6 2D91      		ld r18,X+
 3291 0ed8 3C91      		ld r19,X
 3292 0eda 1B97      		sbiw r26,8+3
 3293               	.LVL210:
 476:../../emulator/emulator.c **** 			break;
 3294               		.loc 1 476 28 view .LVU580
 3295               	.LBE210:
 3296               	.LBB211:
 731:../../emulator/emulator.c **** 					{
 3297               		.loc 1 731 23 view .LVU581
 3298 0edc AB89      		ldd r26,Y+19
 3299 0ede BC89      		ldd r27,Y+20
 3300 0ee0 1396      		adiw r26,3
 3301 0ee2 AA0F      		lsl r26
 3302 0ee4 BB1F      		rol r27
 3303 0ee6 AA0F      		lsl r26
 3304 0ee8 BB1F      		rol r27
 3305 0eea A80D      		add r26,r8
 3306 0eec B91D      		adc r27,r9
 731:../../emulator/emulator.c **** 					{
 3307               		.loc 1 731 46 view .LVU582
 3308 0eee ED81      		ldd r30,Y+5
 3309 0ef0 FE81      		ldd r31,Y+6
 3310 0ef2 3396      		adiw r30,3
 3311 0ef4 EE0F      		lsl r30
 3312 0ef6 FF1F      		rol r31
 3313 0ef8 EE0F      		lsl r30
 3314 0efa FF1F      		rol r31
 3315 0efc E80D      		add r30,r8
 3316 0efe F91D      		adc r31,r9
 731:../../emulator/emulator.c **** 					{
 3317               		.loc 1 731 8 view .LVU583
 3318 0f00 8D91      		ld r24,X+
 3319 0f02 9D91      		ld r25,X+
 3320 0f04 0D90      		ld __tmp_reg__,X+
 3321 0f06 BC91      		ld r27,X
 3322 0f08 A02D      		mov r26,__tmp_reg__
 3323 0f0a 4081      		ld r20,Z
 3324 0f0c 5181      		ldd r21,Z+1
 3325 0f0e 6281      		ldd r22,Z+2
 3326 0f10 7381      		ldd r23,Z+3
 3327 0f12 8417      		cp r24,r20
 3328 0f14 9507      		cpc r25,r21
 3329 0f16 A607      		cpc r26,r22
 3330 0f18 B707      		cpc r27,r23
 3331 0f1a 01F0      		breq .+2
 3332 0f1c 00C0      		rjmp .L31
 3333               	.L96:
 769:../../emulator/emulator.c **** 						return 0;
 3334               		.loc 1 769 7 is_stmt 1 view .LVU584
 769:../../emulator/emulator.c **** 						return 0;
 3335               		.loc 1 769 15 is_stmt 0 view .LVU585
 3336 0f1e 040D      		add r16,r4
 3337 0f20 151D      		adc r17,r5
 3338 0f22 261D      		adc r18,r6
 3339 0f24 371D      		adc r19,r7
 3340 0f26 F401      		movw r30,r8
 3341 0f28 0087      		std Z+8,r16
 3342 0f2a 1187      		std Z+9,r17
 3343 0f2c 2287      		std Z+10,r18
 3344 0f2e 3387      		std Z+11,r19
 770:../../emulator/emulator.c **** 					}
 3345               		.loc 1 770 7 is_stmt 1 view .LVU586
 770:../../emulator/emulator.c **** 					}
 3346               		.loc 1 770 14 is_stmt 0 view .LVU587
 3347 0f30 00C0      		rjmp .L19
 3348               	.LVL211:
 3349               	.L76:
 770:../../emulator/emulator.c **** 					}
 3350               		.loc 1 770 14 view .LVU588
 3351 0f32 F401      		movw r30,r8
 3352 0f34 8085      		ldd r24,Z+8
 3353 0f36 9185      		ldd r25,Z+9
 3354 0f38 A285      		ldd r26,Z+10
 3355 0f3a B385      		ldd r27,Z+11
 3356 0f3c 4B89      		ldd r20,Y+19
 3357 0f3e 5C89      		ldd r21,Y+20
 3358 0f40 4D5F      		subi r20,-3
 3359 0f42 5F4F      		sbci r21,-1
 3360 0f44 ED81      		ldd r30,Y+5
 3361 0f46 FE81      		ldd r31,Y+6
 3362 0f48 3396      		adiw r30,3
 3363 0f4a 0630      		cpi r16,6
 3364 0f4c 1105      		cpc r17,__zero_reg__
 3365 0f4e 2105      		cpc r18,__zero_reg__
 3366 0f50 3105      		cpc r19,__zero_reg__
 3367 0f52 01F0      		breq .+2
 3368 0f54 00C0      		rjmp .L85
 779:../../emulator/emulator.c **** 					{
 3369               		.loc 1 779 6 is_stmt 1 view .LVU589
 779:../../emulator/emulator.c **** 					{
 3370               		.loc 1 779 23 is_stmt 0 view .LVU590
 3371 0f56 440F      		lsl r20
 3372 0f58 551F      		rol r21
 3373 0f5a 440F      		lsl r20
 3374 0f5c 551F      		rol r21
 3375 0f5e 480D      		add r20,r8
 3376 0f60 591D      		adc r21,r9
 779:../../emulator/emulator.c **** 					{
 3377               		.loc 1 779 45 view .LVU591
 3378 0f62 EE0F      		lsl r30
 3379 0f64 FF1F      		rol r31
 3380 0f66 EE0F      		lsl r30
 3381 0f68 FF1F      		rol r31
 3382 0f6a 9F01      		movw r18,r30
 3383 0f6c 280D      		add r18,r8
 3384 0f6e 391D      		adc r19,r9
 779:../../emulator/emulator.c **** 					{
 3385               		.loc 1 779 8 view .LVU592
 3386 0f70 FA01      		movw r30,r20
 3387 0f72 4081      		ld r20,Z
 3388 0f74 5181      		ldd r21,Z+1
 3389 0f76 6281      		ldd r22,Z+2
 3390 0f78 7381      		ldd r23,Z+3
 3391 0f7a F901      		movw r30,r18
 3392 0f7c 0081      		ld r16,Z
 3393 0f7e 1181      		ldd r17,Z+1
 3394 0f80 2281      		ldd r18,Z+2
 3395 0f82 3381      		ldd r19,Z+3
 3396               	.LVL212:
 779:../../emulator/emulator.c **** 					{
 3397               		.loc 1 779 8 view .LVU593
 3398 0f84 4017      		cp r20,r16
 3399 0f86 5107      		cpc r21,r17
 3400 0f88 6207      		cpc r22,r18
 3401 0f8a 7307      		cpc r23,r19
 3402 0f8c 00F0      		brlo .+2
 3403 0f8e 00C0      		rjmp .L31
 3404               	.L103:
 793:../../emulator/emulator.c **** 						return 0;
 3405               		.loc 1 793 7 is_stmt 1 view .LVU594
 793:../../emulator/emulator.c **** 						return 0;
 3406               		.loc 1 793 15 is_stmt 0 view .LVU595
 3407 0f90 840D      		add r24,r4
 3408 0f92 951D      		adc r25,r5
 3409 0f94 A61D      		adc r26,r6
 3410 0f96 B71D      		adc r27,r7
 3411               	.LVL213:
 3412               	.L100:
 793:../../emulator/emulator.c **** 						return 0;
 3413               		.loc 1 793 15 view .LVU596
 3414               	.LBE211:
 3415               	.LBB212:
 841:../../emulator/emulator.c **** 			return 0;
 3416               		.loc 1 841 12 view .LVU597
 3417 0f98 F401      		movw r30,r8
 3418               	.LVL214:
 3419               	.L97:
 841:../../emulator/emulator.c **** 			return 0;
 3420               		.loc 1 841 12 view .LVU598
 3421               	.LBE212:
 859:../../emulator/emulator.c **** 	return 0;
 3422               		.loc 1 859 10 view .LVU599
 3423 0f9a 8087      		std Z+8,r24
 3424 0f9c 9187      		std Z+9,r25
 3425 0f9e A287      		std Z+10,r26
 3426 0fa0 B387      		std Z+11,r27
 860:../../emulator/emulator.c **** }
 3427               		.loc 1 860 2 is_stmt 1 view .LVU600
 860:../../emulator/emulator.c **** }
 3428               		.loc 1 860 9 is_stmt 0 view .LVU601
 3429 0fa2 00C0      		rjmp .L19
 3430               	.LVL215:
 3431               	.L77:
 3432               	.LBB217:
 743:../../emulator/emulator.c **** 					{
 3433               		.loc 1 743 6 is_stmt 1 view .LVU602
 3434               	.LBE217:
 3435               	.LBB218:
 476:../../emulator/emulator.c **** 			break;
 3436               		.loc 1 476 28 is_stmt 0 view .LVU603
 3437 0fa4 D401      		movw r26,r8
 3438 0fa6 1896      		adiw r26,8
 3439 0fa8 0D91      		ld r16,X+
 3440 0faa 1D91      		ld r17,X+
 3441 0fac 2D91      		ld r18,X+
 3442 0fae 3C91      		ld r19,X
 3443 0fb0 1B97      		sbiw r26,8+3
 3444               	.LVL216:
 476:../../emulator/emulator.c **** 			break;
 3445               		.loc 1 476 28 view .LVU604
 3446               	.LBE218:
 3447               	.LBB219:
 743:../../emulator/emulator.c **** 					{
 3448               		.loc 1 743 23 view .LVU605
 3449 0fb2 AB89      		ldd r26,Y+19
 3450 0fb4 BC89      		ldd r27,Y+20
 3451 0fb6 1396      		adiw r26,3
 3452 0fb8 AA0F      		lsl r26
 3453 0fba BB1F      		rol r27
 3454 0fbc AA0F      		lsl r26
 3455 0fbe BB1F      		rol r27
 3456 0fc0 A80D      		add r26,r8
 3457 0fc2 B91D      		adc r27,r9
 743:../../emulator/emulator.c **** 					{
 3458               		.loc 1 743 46 view .LVU606
 3459 0fc4 ED81      		ldd r30,Y+5
 3460 0fc6 FE81      		ldd r31,Y+6
 3461 0fc8 3396      		adiw r30,3
 3462 0fca EE0F      		lsl r30
 3463 0fcc FF1F      		rol r31
 3464 0fce EE0F      		lsl r30
 3465 0fd0 FF1F      		rol r31
 3466 0fd2 E80D      		add r30,r8
 3467 0fd4 F91D      		adc r31,r9
 743:../../emulator/emulator.c **** 					{
 3468               		.loc 1 743 8 view .LVU607
 3469 0fd6 8D91      		ld r24,X+
 3470 0fd8 9D91      		ld r25,X+
 3471 0fda 0D90      		ld __tmp_reg__,X+
 3472 0fdc BC91      		ld r27,X
 3473 0fde A02D      		mov r26,__tmp_reg__
 3474 0fe0 4081      		ld r20,Z
 3475 0fe2 5181      		ldd r21,Z+1
 3476 0fe4 6281      		ldd r22,Z+2
 3477 0fe6 7381      		ldd r23,Z+3
 3478 0fe8 8417      		cp r24,r20
 3479 0fea 9507      		cpc r25,r21
 3480 0fec A607      		cpc r26,r22
 3481 0fee B707      		cpc r27,r23
 3482 0ff0 01F4      		brne .+2
 3483 0ff2 00C0      		rjmp .L31
 3484 0ff4 00C0      		rjmp .L96
 3485               	.LVL217:
 3486               	.L78:
 755:../../emulator/emulator.c **** 					{
 3487               		.loc 1 755 6 is_stmt 1 view .LVU608
 3488               	.LBE219:
 3489               	.LBB220:
 476:../../emulator/emulator.c **** 			break;
 3490               		.loc 1 476 28 is_stmt 0 view .LVU609
 3491 0ff6 D401      		movw r26,r8
 3492 0ff8 1896      		adiw r26,8
 3493 0ffa 0D91      		ld r16,X+
 3494 0ffc 1D91      		ld r17,X+
 3495 0ffe 2D91      		ld r18,X+
 3496 1000 3C91      		ld r19,X
 3497 1002 1B97      		sbiw r26,8+3
 3498               	.LVL218:
 476:../../emulator/emulator.c **** 			break;
 3499               		.loc 1 476 28 view .LVU610
 3500               	.LBE220:
 3501               	.LBB221:
 755:../../emulator/emulator.c **** 					{
 3502               		.loc 1 755 28 view .LVU611
 3503 1004 AB89      		ldd r26,Y+19
 3504 1006 BC89      		ldd r27,Y+20
 3505 1008 1396      		adiw r26,3
 3506 100a AA0F      		lsl r26
 3507 100c BB1F      		rol r27
 3508 100e AA0F      		lsl r26
 3509 1010 BB1F      		rol r27
 3510 1012 A80D      		add r26,r8
 3511 1014 B91D      		adc r27,r9
 755:../../emulator/emulator.c **** 					{
 3512               		.loc 1 755 55 view .LVU612
 3513 1016 ED81      		ldd r30,Y+5
 3514 1018 FE81      		ldd r31,Y+6
 3515 101a 3396      		adiw r30,3
 3516 101c EE0F      		lsl r30
 3517 101e FF1F      		rol r31
 3518 1020 EE0F      		lsl r30
 3519 1022 FF1F      		rol r31
 3520 1024 E80D      		add r30,r8
 3521 1026 F91D      		adc r31,r9
 755:../../emulator/emulator.c **** 					{
 3522               		.loc 1 755 8 view .LVU613
 3523 1028 8D91      		ld r24,X+
 3524 102a 9D91      		ld r25,X+
 3525 102c 0D90      		ld __tmp_reg__,X+
 3526 102e BC91      		ld r27,X
 3527 1030 A02D      		mov r26,__tmp_reg__
 3528 1032 4081      		ld r20,Z
 3529 1034 5181      		ldd r21,Z+1
 3530 1036 6281      		ldd r22,Z+2
 3531 1038 7381      		ldd r23,Z+3
 3532 103a 8417      		cp r24,r20
 3533 103c 9507      		cpc r25,r21
 3534 103e A607      		cpc r26,r22
 3535 1040 B707      		cpc r27,r23
 3536 1042 04F0      		brlt .+2
 3537 1044 00C0      		rjmp .L31
 3538 1046 00C0      		rjmp .L96
 3539               	.LVL219:
 3540               	.L75:
 767:../../emulator/emulator.c **** 					{
 3541               		.loc 1 767 6 is_stmt 1 view .LVU614
 3542               	.LBE221:
 3543               	.LBB222:
 476:../../emulator/emulator.c **** 			break;
 3544               		.loc 1 476 28 is_stmt 0 view .LVU615
 3545 1048 D401      		movw r26,r8
 3546 104a 1896      		adiw r26,8
 3547 104c 0D91      		ld r16,X+
 3548 104e 1D91      		ld r17,X+
 3549 1050 2D91      		ld r18,X+
 3550 1052 3C91      		ld r19,X
 3551 1054 1B97      		sbiw r26,8+3
 3552               	.LVL220:
 476:../../emulator/emulator.c **** 			break;
 3553               		.loc 1 476 28 view .LVU616
 3554               	.LBE222:
 3555               	.LBB223:
 767:../../emulator/emulator.c **** 					{
 3556               		.loc 1 767 28 view .LVU617
 3557 1056 AB89      		ldd r26,Y+19
 3558 1058 BC89      		ldd r27,Y+20
 3559 105a 1396      		adiw r26,3
 3560 105c AA0F      		lsl r26
 3561 105e BB1F      		rol r27
 3562 1060 AA0F      		lsl r26
 3563 1062 BB1F      		rol r27
 3564 1064 A80D      		add r26,r8
 3565 1066 B91D      		adc r27,r9
 767:../../emulator/emulator.c **** 					{
 3566               		.loc 1 767 56 view .LVU618
 3567 1068 ED81      		ldd r30,Y+5
 3568 106a FE81      		ldd r31,Y+6
 3569 106c 3396      		adiw r30,3
 3570 106e EE0F      		lsl r30
 3571 1070 FF1F      		rol r31
 3572 1072 EE0F      		lsl r30
 3573 1074 FF1F      		rol r31
 3574 1076 E80D      		add r30,r8
 3575 1078 F91D      		adc r31,r9
 767:../../emulator/emulator.c **** 					{
 3576               		.loc 1 767 8 view .LVU619
 3577 107a 8D91      		ld r24,X+
 3578 107c 9D91      		ld r25,X+
 3579 107e 0D90      		ld __tmp_reg__,X+
 3580 1080 BC91      		ld r27,X
 3581 1082 A02D      		mov r26,__tmp_reg__
 3582 1084 4081      		ld r20,Z
 3583 1086 5181      		ldd r21,Z+1
 3584 1088 6281      		ldd r22,Z+2
 3585 108a 7381      		ldd r23,Z+3
 3586 108c 8417      		cp r24,r20
 3587 108e 9507      		cpc r25,r21
 3588 1090 A607      		cpc r26,r22
 3589 1092 B707      		cpc r27,r23
 3590 1094 04F4      		brge .+2
 3591 1096 00C0      		rjmp .L31
 3592 1098 00C0      		rjmp .L96
 3593               	.LVL221:
 3594               	.L85:
 791:../../emulator/emulator.c **** 					{
 3595               		.loc 1 791 6 is_stmt 1 view .LVU620
 791:../../emulator/emulator.c **** 					{
 3596               		.loc 1 791 23 is_stmt 0 view .LVU621
 3597 109a 440F      		lsl r20
 3598 109c 551F      		rol r21
 3599 109e 440F      		lsl r20
 3600 10a0 551F      		rol r21
 3601 10a2 480D      		add r20,r8
 3602 10a4 591D      		adc r21,r9
 791:../../emulator/emulator.c **** 					{
 3603               		.loc 1 791 46 view .LVU622
 3604 10a6 EE0F      		lsl r30
 3605 10a8 FF1F      		rol r31
 3606 10aa EE0F      		lsl r30
 3607 10ac FF1F      		rol r31
 3608               	.LVL222:
 791:../../emulator/emulator.c **** 					{
 3609               		.loc 1 791 46 view .LVU623
 3610 10ae 9F01      		movw r18,r30
 3611 10b0 280D      		add r18,r8
 3612 10b2 391D      		adc r19,r9
 791:../../emulator/emulator.c **** 					{
 3613               		.loc 1 791 8 view .LVU624
 3614 10b4 FA01      		movw r30,r20
 3615 10b6 4081      		ld r20,Z
 3616 10b8 5181      		ldd r21,Z+1
 3617 10ba 6281      		ldd r22,Z+2
 3618 10bc 7381      		ldd r23,Z+3
 3619 10be F901      		movw r30,r18
 3620 10c0 0081      		ld r16,Z
 3621 10c2 1181      		ldd r17,Z+1
 3622 10c4 2281      		ldd r18,Z+2
 3623 10c6 3381      		ldd r19,Z+3
 3624 10c8 4017      		cp r20,r16
 3625 10ca 5107      		cpc r21,r17
 3626 10cc 6207      		cpc r22,r18
 3627 10ce 7307      		cpc r23,r19
 3628 10d0 00F4      		brsh .+2
 3629 10d2 00C0      		rjmp .L31
 3630 10d4 00C0      		rjmp .L103
 3631               	.LVL223:
 3632               	.L22:
 791:../../emulator/emulator.c **** 					{
 3633               		.loc 1 791 8 view .LVU625
 3634               	.LBE223:
 3635               	.LBB224:
 810:../../emulator/emulator.c **** 			u32 rd, imm;
 3636               		.loc 1 810 4 is_stmt 1 view .LVU626
 811:../../emulator/emulator.c **** 			rd = (instr >> 7) & 0x1F;
 3637               		.loc 1 811 4 view .LVU627
 812:../../emulator/emulator.c **** 
 3638               		.loc 1 812 4 view .LVU628
 814:../../emulator/emulator.c **** 					(instr & 0xFF000) |
 3639               		.loc 1 814 4 view .LVU629
 819:../../emulator/emulator.c **** #ifdef DEBUG
 3640               		.loc 1 819 4 view .LVU630
 823:../../emulator/emulator.c **** 			emu->PC += offset;
 3641               		.loc 1 823 4 view .LVU631
 823:../../emulator/emulator.c **** 			emu->PC += offset;
 3642               		.loc 1 823 28 is_stmt 0 view .LVU632
 3643 10d6 F401      		movw r30,r8
 3644 10d8 C084      		ldd r12,Z+8
 3645 10da D184      		ldd r13,Z+9
 3646 10dc E284      		ldd r14,Z+10
 3647 10de F384      		ldd r15,Z+11
 812:../../emulator/emulator.c **** 
 3648               		.loc 1 812 16 view .LVU633
 3649 10e0 AC01      		movw r20,r24
 3650 10e2 BD01      		movw r22,r26
 3651 10e4 17E0      		ldi r17,7
 3652               		1:
 3653 10e6 7695      		lsr r23
 3654 10e8 6795      		ror r22
 3655 10ea 5795      		ror r21
 3656 10ec 4795      		ror r20
 3657 10ee 1A95      		dec r17
 3658 10f0 01F4      		brne 1b
 812:../../emulator/emulator.c **** 
 3659               		.loc 1 812 7 view .LVU634
 3660 10f2 4F71      		andi r20,31
 3661 10f4 5527      		clr r21
 3662 10f6 6627      		clr r22
 3663 10f8 7727      		clr r23
 3664               	.LVL224:
 823:../../emulator/emulator.c **** 			emu->PC += offset;
 3665               		.loc 1 823 23 view .LVU635
 3666 10fa FA01      		movw r30,r20
 3667 10fc 3396      		adiw r30,3
 3668 10fe EE0F      		lsl r30
 3669 1100 FF1F      		rol r31
 3670 1102 EE0F      		lsl r30
 3671 1104 FF1F      		rol r31
 3672               	.LVL225:
 823:../../emulator/emulator.c **** 			emu->PC += offset;
 3673               		.loc 1 823 23 view .LVU636
 3674 1106 E80D      		add r30,r8
 3675 1108 F91D      		adc r31,r9
 823:../../emulator/emulator.c **** 			emu->PC += offset;
 3676               		.loc 1 823 33 view .LVU637
 3677 110a 9701      		movw r18,r14
 3678 110c 8601      		movw r16,r12
 3679 110e 0C5F      		subi r16,-4
 3680 1110 1F4F      		sbci r17,-1
 3681 1112 2F4F      		sbci r18,-1
 3682 1114 3F4F      		sbci r19,-1
 823:../../emulator/emulator.c **** 			emu->PC += offset;
 3683               		.loc 1 823 23 view .LVU638
 3684 1116 0083      		st Z,r16
 3685 1118 1183      		std Z+1,r17
 3686 111a 2283      		std Z+2,r18
 3687 111c 3383      		std Z+3,r19
 824:../../emulator/emulator.c **** 			return 0;
 3688               		.loc 1 824 4 is_stmt 1 view .LVU639
 814:../../emulator/emulator.c **** 					(instr & 0xFF000) |
 3689               		.loc 1 814 32 is_stmt 0 view .LVU640
 3690 111e AC01      		movw r20,r24
 3691 1120 BD01      		movw r22,r26
 3692               	.LVL226:
 814:../../emulator/emulator.c **** 					(instr & 0xFF000) |
 3693               		.loc 1 814 32 view .LVU641
 3694 1122 2CE0      		ldi r18,12
 3695               		1:
 3696 1124 7695      		lsr r23
 3697 1126 6795      		ror r22
 3698 1128 5795      		ror r21
 3699 112a 4795      		ror r20
 3700 112c 2A95      		dec r18
 3701 112e 01F4      		brne 1b
 3702               	.LVL227:
 814:../../emulator/emulator.c **** 					(instr & 0xFF000) |
 3703               		.loc 1 814 32 view .LVU642
 3704 1130 4427      		clr r20
 3705 1132 5527      		clr r21
 3706 1134 6870      		andi r22,8
 3707 1136 7727      		clr r23
 3708               	.LVL228:
 816:../../emulator/emulator.c **** 					((instr & 0x7FE00000) >> 20);
 3709               		.loc 1 816 26 view .LVU643
 3710 1138 8C01      		movw r16,r24
 3711 113a 9D01      		movw r18,r26
 3712 113c E9E0      		ldi r30,9
 3713               		1:
 3714 113e 3695      		lsr r19
 3715 1140 2795      		ror r18
 3716 1142 1795      		ror r17
 3717 1144 0795      		ror r16
 3718 1146 EA95      		dec r30
 3719 1148 01F4      		brne 1b
 3720               	.LVL229:
 816:../../emulator/emulator.c **** 					((instr & 0x7FE00000) >> 20);
 3721               		.loc 1 816 26 view .LVU644
 3722 114a 0027      		clr r16
 3723 114c 1870      		andi r17,8
 3724 114e 2227      		clr r18
 3725 1150 3327      		clr r19
 3726               	.LVL230:
 815:../../emulator/emulator.c **** 					((instr & 0x100000) >> 9) |
 3727               		.loc 1 815 24 view .LVU645
 3728 1152 042B      		or r16,r20
 3729 1154 152B      		or r17,r21
 3730 1156 262B      		or r18,r22
 3731 1158 372B      		or r19,r23
 815:../../emulator/emulator.c **** 					((instr & 0x100000) >> 9) |
 3732               		.loc 1 815 13 view .LVU646
 3733 115a AC01      		movw r20,r24
 3734 115c BD01      		movw r22,r26
 3735 115e 4427      		clr r20
 3736 1160 507F      		andi r21,240
 3737 1162 6F70      		andi r22,15
 3738 1164 7727      		clr r23
 815:../../emulator/emulator.c **** 					((instr & 0x100000) >> 9) |
 3739               		.loc 1 815 24 view .LVU647
 3740 1166 402B      		or r20,r16
 3741 1168 512B      		or r21,r17
 3742 116a 622B      		or r22,r18
 3743 116c 732B      		or r23,r19
 817:../../emulator/emulator.c **** 
 3744               		.loc 1 817 28 view .LVU648
 3745 116e F4E1      		ldi r31,20
 3746               		1:
 3747 1170 B695      		lsr r27
 3748 1172 A795      		ror r26
 3749 1174 9795      		ror r25
 3750 1176 8795      		ror r24
 3751 1178 FA95      		dec r31
 3752 117a 01F4      		brne 1b
 3753               	.LVL231:
 817:../../emulator/emulator.c **** 
 3754               		.loc 1 817 28 view .LVU649
 3755 117c 8E7F      		andi r24,254
 3756 117e 9770      		andi r25,7
 3757 1180 AA27      		clr r26
 3758 1182 BB27      		clr r27
 814:../../emulator/emulator.c **** 					(instr & 0xFF000) |
 3759               		.loc 1 814 8 view .LVU650
 3760 1184 842B      		or r24,r20
 3761 1186 952B      		or r25,r21
 3762 1188 A62B      		or r26,r22
 3763 118a B72B      		or r27,r23
 824:../../emulator/emulator.c **** 			return 0;
 3764               		.loc 1 824 12 view .LVU651
 3765 118c AC01      		movw r20,r24
 3766 118e BD01      		movw r22,r26
 3767 1190 4C0D      		add r20,r12
 3768 1192 5D1D      		adc r21,r13
 3769 1194 6E1D      		adc r22,r14
 3770 1196 7F1D      		adc r23,r15
 3771 1198 D401      		movw r26,r8
 3772 119a 1896      		adiw r26,8
 3773 119c 4D93      		st X+,r20
 3774 119e 5D93      		st X+,r21
 3775 11a0 6D93      		st X+,r22
 3776 11a2 7C93      		st X,r23
 3777 11a4 1B97      		sbiw r26,8+3
 825:../../emulator/emulator.c **** 		}
 3778               		.loc 1 825 4 is_stmt 1 view .LVU652
 825:../../emulator/emulator.c **** 		}
 3779               		.loc 1 825 11 is_stmt 0 view .LVU653
 3780 11a6 00C0      		rjmp .L19
 3781               	.LVL232:
 3782               	.L23:
 825:../../emulator/emulator.c **** 		}
 3783               		.loc 1 825 11 view .LVU654
 3784               	.LBE224:
 3785               	.LBB225:
 830:../../emulator/emulator.c **** 			u32 rd, rs1, imm;
 3786               		.loc 1 830 4 is_stmt 1 view .LVU655
 831:../../emulator/emulator.c **** 			rd = (instr >> 7) & 0x1F;
 3787               		.loc 1 831 4 view .LVU656
 832:../../emulator/emulator.c **** 			rs1 = (instr >> 15) & 0x1F;
 3788               		.loc 1 832 4 view .LVU657
 833:../../emulator/emulator.c **** 			imm = (instr >> 20) & ~1;
 3789               		.loc 1 833 4 view .LVU658
 834:../../emulator/emulator.c **** 
 3790               		.loc 1 834 4 view .LVU659
 836:../../emulator/emulator.c **** #ifdef DEBUG
 3791               		.loc 1 836 4 view .LVU660
 3792               	.LBB213:
 3793               	.LBI213:
  31:../../emulator/emulator.c **** {
 3794               		.loc 1 31 19 view .LVU661
 3795               	.LBB214:
  33:../../emulator/emulator.c **** 	return (value ^ m) - m;
 3796               		.loc 1 33 2 view .LVU662
  34:../../emulator/emulator.c **** }
 3797               		.loc 1 34 2 view .LVU663
  34:../../emulator/emulator.c **** }
 3798               		.loc 1 34 2 is_stmt 0 view .LVU664
 3799               	.LBE214:
 3800               	.LBE213:
 840:../../emulator/emulator.c **** 			emu->PC = emu->Registers[rs1] + offset;
 3801               		.loc 1 840 4 is_stmt 1 view .LVU665
 832:../../emulator/emulator.c **** 			rs1 = (instr >> 15) & 0x1F;
 3802               		.loc 1 832 16 is_stmt 0 view .LVU666
 3803 11a8 AC01      		movw r20,r24
 3804 11aa BD01      		movw r22,r26
 3805 11ac 27E0      		ldi r18,7
 3806               		1:
 3807 11ae 7695      		lsr r23
 3808 11b0 6795      		ror r22
 3809 11b2 5795      		ror r21
 3810 11b4 4795      		ror r20
 3811 11b6 2A95      		dec r18
 3812 11b8 01F4      		brne 1b
 832:../../emulator/emulator.c **** 			rs1 = (instr >> 15) & 0x1F;
 3813               		.loc 1 832 7 view .LVU667
 3814 11ba 4F71      		andi r20,31
 3815 11bc 5527      		clr r21
 3816 11be 6627      		clr r22
 3817 11c0 7727      		clr r23
 3818               	.LVL233:
 840:../../emulator/emulator.c **** 			emu->PC = emu->Registers[rs1] + offset;
 3819               		.loc 1 840 23 view .LVU668
 3820 11c2 FA01      		movw r30,r20
 3821 11c4 3396      		adiw r30,3
 3822 11c6 EE0F      		lsl r30
 3823 11c8 FF1F      		rol r31
 3824 11ca EE0F      		lsl r30
 3825 11cc FF1F      		rol r31
 3826 11ce 9F01      		movw r18,r30
 3827 11d0 280D      		add r18,r8
 3828 11d2 391D      		adc r19,r9
 840:../../emulator/emulator.c **** 			emu->PC = emu->Registers[rs1] + offset;
 3829               		.loc 1 840 33 view .LVU669
 3830 11d4 F401      		movw r30,r8
 3831 11d6 4085      		ldd r20,Z+8
 3832 11d8 5185      		ldd r21,Z+9
 3833 11da 6285      		ldd r22,Z+10
 3834 11dc 7385      		ldd r23,Z+11
 3835               	.LVL234:
 840:../../emulator/emulator.c **** 			emu->PC = emu->Registers[rs1] + offset;
 3836               		.loc 1 840 33 view .LVU670
 3837 11de 4C5F      		subi r20,-4
 3838 11e0 5F4F      		sbci r21,-1
 3839 11e2 6F4F      		sbci r22,-1
 3840 11e4 7F4F      		sbci r23,-1
 840:../../emulator/emulator.c **** 			emu->PC = emu->Registers[rs1] + offset;
 3841               		.loc 1 840 23 view .LVU671
 3842 11e6 F901      		movw r30,r18
 3843 11e8 4083      		st Z,r20
 3844 11ea 5183      		std Z+1,r21
 3845 11ec 6283      		std Z+2,r22
 3846 11ee 7383      		std Z+3,r23
 841:../../emulator/emulator.c **** 			return 0;
 3847               		.loc 1 841 4 is_stmt 1 view .LVU672
 834:../../emulator/emulator.c **** 
 3848               		.loc 1 834 17 is_stmt 0 view .LVU673
 3849 11f0 AC01      		movw r20,r24
 3850 11f2 BD01      		movw r22,r26
 3851 11f4 E4E1      		ldi r30,20
 3852               		1:
 3853 11f6 7695      		lsr r23
 3854 11f8 6795      		ror r22
 3855 11fa 5795      		ror r21
 3856 11fc 4795      		ror r20
 3857 11fe EA95      		dec r30
 3858 1200 01F4      		brne 1b
 834:../../emulator/emulator.c **** 
 3859               		.loc 1 834 8 view .LVU674
 3860 1202 4E7F      		andi r20,254
 3861               	.LVL235:
 3862               	.LBB216:
 3863               	.LBB215:
  34:../../emulator/emulator.c **** }
 3864               		.loc 1 34 16 view .LVU675
 3865 1204 F8E0      		ldi r31,8
 3866 1206 5F27      		eor r21,r31
 3867               	.LVL236:
  34:../../emulator/emulator.c **** }
 3868               		.loc 1 34 21 view .LVU676
 3869 1208 5850      		subi r21,8
 3870 120a 6109      		sbc r22,__zero_reg__
 3871 120c 7109      		sbc r23,__zero_reg__
 3872               	.LVL237:
  34:../../emulator/emulator.c **** }
 3873               		.loc 1 34 21 view .LVU677
 3874               	.LBE215:
 3875               	.LBE216:
 833:../../emulator/emulator.c **** 			imm = (instr >> 20) & ~1;
 3876               		.loc 1 833 17 view .LVU678
 3877 120e FFE0      		ldi r31,15
 3878               		1:
 3879 1210 B695      		lsr r27
 3880 1212 A795      		ror r26
 3881 1214 9795      		ror r25
 3882 1216 8795      		ror r24
 3883 1218 FA95      		dec r31
 3884 121a 01F4      		brne 1b
 3885               	.LVL238:
 833:../../emulator/emulator.c **** 			imm = (instr >> 20) & ~1;
 3886               		.loc 1 833 8 view .LVU679
 3887 121c 8F71      		andi r24,31
 3888 121e 9927      		clr r25
 3889 1220 AA27      		clr r26
 3890 1222 BB27      		clr r27
 3891               	.LVL239:
 841:../../emulator/emulator.c **** 			return 0;
 3892               		.loc 1 841 28 view .LVU680
 3893 1224 FC01      		movw r30,r24
 3894 1226 3396      		adiw r30,3
 3895 1228 EE0F      		lsl r30
 3896 122a FF1F      		rol r31
 3897 122c EE0F      		lsl r30
 3898 122e FF1F      		rol r31
 3899 1230 E80D      		add r30,r8
 3900 1232 F91D      		adc r31,r9
 841:../../emulator/emulator.c **** 			return 0;
 3901               		.loc 1 841 34 view .LVU681
 3902 1234 8081      		ld r24,Z
 3903 1236 9181      		ldd r25,Z+1
 3904 1238 A281      		ldd r26,Z+2
 3905 123a B381      		ldd r27,Z+3
 3906               	.LVL240:
 841:../../emulator/emulator.c **** 			return 0;
 3907               		.loc 1 841 34 view .LVU682
 3908 123c 840F      		add r24,r20
 3909 123e 951F      		adc r25,r21
 3910 1240 A61F      		adc r26,r22
 3911 1242 B71F      		adc r27,r23
 3912 1244 00C0      		rjmp .L100
 3913               	.LVL241:
 3914               	.L86:
 841:../../emulator/emulator.c **** 			return 0;
 3915               		.loc 1 841 34 view .LVU683
 3916               	.LBE225:
 3917               	.LBE227:
 3918               	.LBE231:
 889:../../emulator/emulator.c **** 	return 1;
 890:../../emulator/emulator.c **** }
 3919               		.loc 1 890 1 view .LVU684
 3920 1246 60E0      		ldi r22,0
 3921 1248 70E0      		ldi r23,0
 3922 124a CB01      		movw r24,r22
 3923               	/* epilogue start */
 3924 124c 6696      		adiw r28,22
 3925 124e 0FB6      		in __tmp_reg__,__SREG__
 3926 1250 F894      		cli
 3927 1252 DEBF      		out __SP_H__,r29
 3928 1254 0FBE      		out __SREG__,__tmp_reg__
 3929 1256 CDBF      		out __SP_L__,r28
 3930 1258 DF91      		pop r29
 3931 125a CF91      		pop r28
 3932 125c 1F91      		pop r17
 3933 125e 0F91      		pop r16
 3934 1260 FF90      		pop r15
 3935 1262 EF90      		pop r14
 3936 1264 DF90      		pop r13
 3937 1266 CF90      		pop r12
 3938 1268 BF90      		pop r11
 3939 126a AF90      		pop r10
 3940 126c 9F90      		pop r9
 3941 126e 8F90      		pop r8
 3942               	.LVL242:
 3943               		.loc 1 890 1 view .LVU685
 3944 1270 7F90      		pop r7
 3945 1272 6F90      		pop r6
 3946 1274 5F90      		pop r5
 3947 1276 4F90      		pop r4
 3948 1278 3F90      		pop r3
 3949 127a 2F90      		pop r2
 3950 127c 0895      		ret
 3951               		.cfi_endproc
 3952               	.LFE33:
 3954               	.global	process_setup
 3956               	process_setup:
 3957               	.LFB10:
  48:../../emulator/emulator.c **** 	emulator_call(_emu, 0, NULL, 0, _memory_size, 1000000);
 3958               		.loc 1 48 1 is_stmt 1 view -0
 3959               		.cfi_startproc
 3960 127e AF92      		push r10
 3961               		.cfi_def_cfa_offset 3
 3962               		.cfi_offset 10, -2
 3963 1280 BF92      		push r11
 3964               		.cfi_def_cfa_offset 4
 3965               		.cfi_offset 11, -3
 3966 1282 CF92      		push r12
 3967               		.cfi_def_cfa_offset 5
 3968               		.cfi_offset 12, -4
 3969 1284 DF92      		push r13
 3970               		.cfi_def_cfa_offset 6
 3971               		.cfi_offset 13, -5
 3972 1286 EF92      		push r14
 3973               		.cfi_def_cfa_offset 7
 3974               		.cfi_offset 14, -6
 3975 1288 FF92      		push r15
 3976               		.cfi_def_cfa_offset 8
 3977               		.cfi_offset 15, -7
 3978 128a 0F93      		push r16
 3979               		.cfi_def_cfa_offset 9
 3980               		.cfi_offset 16, -8
 3981 128c 1F93      		push r17
 3982               		.cfi_def_cfa_offset 10
 3983               		.cfi_offset 17, -9
 3984               	/* prologue: function */
 3985               	/* frame size = 0 */
 3986               	/* stack size = 8 */
 3987               	.L__stack_usage = 8
  49:../../emulator/emulator.c **** }
 3988               		.loc 1 49 2 view .LVU687
 3989 128e A090 0000 		lds r10,_memory_size
 3990 1292 B090 0000 		lds r11,_memory_size+1
 3991 1296 C090 0000 		lds r12,_memory_size+2
 3992 129a D090 0000 		lds r13,_memory_size+3
 3993 129e 1F92      		push __zero_reg__
 3994               		.cfi_def_cfa_offset 11
 3995 12a0 8FE0      		ldi r24,lo8(15)
 3996 12a2 8F93      		push r24
 3997               		.cfi_def_cfa_offset 12
 3998 12a4 82E4      		ldi r24,lo8(66)
 3999 12a6 8F93      		push r24
 4000               		.cfi_def_cfa_offset 13
 4001 12a8 80E4      		ldi r24,lo8(64)
 4002 12aa 8F93      		push r24
 4003               		.cfi_def_cfa_offset 14
 4004 12ac E12C      		mov r14,__zero_reg__
 4005 12ae F12C      		mov r15,__zero_reg__
 4006 12b0 8701      		movw r16,r14
 4007 12b2 20E0      		ldi r18,0
 4008 12b4 30E0      		ldi r19,0
 4009 12b6 40E0      		ldi r20,0
 4010 12b8 50E0      		ldi r21,0
 4011 12ba BA01      		movw r22,r20
 4012 12bc 80E0      		ldi r24,lo8(_cur)
 4013 12be 90E0      		ldi r25,hi8(_cur)
 4014 12c0 0E94 0000 		call emulator_call
 4015               	.LVL243:
  50:../../emulator/emulator.c **** 
 4016               		.loc 1 50 1 is_stmt 0 view .LVU688
 4017 12c4 0F90      		pop __tmp_reg__
 4018 12c6 0F90      		pop __tmp_reg__
 4019 12c8 0F90      		pop __tmp_reg__
 4020 12ca 0F90      		pop __tmp_reg__
 4021               		.cfi_def_cfa_offset 10
 4022               	/* epilogue start */
 4023 12cc 1F91      		pop r17
 4024 12ce 0F91      		pop r16
 4025 12d0 FF90      		pop r15
 4026 12d2 EF90      		pop r14
 4027 12d4 DF90      		pop r13
 4028 12d6 CF90      		pop r12
 4029 12d8 BF90      		pop r11
 4030 12da AF90      		pop r10
 4031 12dc 0895      		ret
 4032               		.cfi_endproc
 4033               	.LFE10:
 4035               	.global	os_update
 4037               	os_update:
 4038               	.LFB11:
  53:../../emulator/emulator.c **** 	u32 addr = _emu->Events[EVENT_LOOP];
 4039               		.loc 1 53 1 is_stmt 1 view -0
 4040               		.cfi_startproc
 4041 12de AF92      		push r10
 4042               		.cfi_def_cfa_offset 3
 4043               		.cfi_offset 10, -2
 4044 12e0 BF92      		push r11
 4045               		.cfi_def_cfa_offset 4
 4046               		.cfi_offset 11, -3
 4047 12e2 CF92      		push r12
 4048               		.cfi_def_cfa_offset 5
 4049               		.cfi_offset 12, -4
 4050 12e4 DF92      		push r13
 4051               		.cfi_def_cfa_offset 6
 4052               		.cfi_offset 13, -5
 4053 12e6 EF92      		push r14
 4054               		.cfi_def_cfa_offset 7
 4055               		.cfi_offset 14, -6
 4056 12e8 FF92      		push r15
 4057               		.cfi_def_cfa_offset 8
 4058               		.cfi_offset 15, -7
 4059 12ea 0F93      		push r16
 4060               		.cfi_def_cfa_offset 9
 4061               		.cfi_offset 16, -8
 4062 12ec 1F93      		push r17
 4063               		.cfi_def_cfa_offset 10
 4064               		.cfi_offset 17, -9
 4065               	/* prologue: function */
 4066               	/* frame size = 0 */
 4067               	/* stack size = 8 */
 4068               	.L__stack_usage = 8
  54:../../emulator/emulator.c **** 	if(addr)
 4069               		.loc 1 54 2 view .LVU690
  54:../../emulator/emulator.c **** 	if(addr)
 4070               		.loc 1 54 6 is_stmt 0 view .LVU691
 4071 12ee 4091 0000 		lds r20,_cur
 4072 12f2 5091 0000 		lds r21,_cur+1
 4073 12f6 6091 0000 		lds r22,_cur+2
 4074 12fa 7091 0000 		lds r23,_cur+3
 4075               	.LVL244:
  55:../../emulator/emulator.c **** 	{
 4076               		.loc 1 55 2 is_stmt 1 view .LVU692
  55:../../emulator/emulator.c **** 	{
 4077               		.loc 1 55 4 is_stmt 0 view .LVU693
 4078 12fe 4115      		cp r20,__zero_reg__
 4079 1300 5105      		cpc r21,__zero_reg__
 4080 1302 6105      		cpc r22,__zero_reg__
 4081 1304 7105      		cpc r23,__zero_reg__
 4082 1306 01F0      		breq .L105
  57:../../emulator/emulator.c **** 	}
 4083               		.loc 1 57 3 is_stmt 1 view .LVU694
 4084 1308 A090 0000 		lds r10,_memory_size
 4085 130c B090 0000 		lds r11,_memory_size+1
 4086 1310 C090 0000 		lds r12,_memory_size+2
 4087 1314 D090 0000 		lds r13,_memory_size+3
 4088 1318 1F92      		push __zero_reg__
 4089               		.cfi_def_cfa_offset 11
 4090 131a 8FE0      		ldi r24,lo8(15)
 4091 131c 8F93      		push r24
 4092               		.cfi_def_cfa_offset 12
 4093 131e 82E4      		ldi r24,lo8(66)
 4094 1320 8F93      		push r24
 4095               		.cfi_def_cfa_offset 13
 4096 1322 80E4      		ldi r24,lo8(64)
 4097 1324 8F93      		push r24
 4098               		.cfi_def_cfa_offset 14
 4099 1326 E12C      		mov r14,__zero_reg__
 4100 1328 F12C      		mov r15,__zero_reg__
 4101 132a 8701      		movw r16,r14
 4102 132c 20E0      		ldi r18,0
 4103 132e 30E0      		ldi r19,0
 4104 1330 80E0      		ldi r24,lo8(_cur)
 4105 1332 90E0      		ldi r25,hi8(_cur)
 4106 1334 0E94 0000 		call emulator_call
 4107               	.LVL245:
  57:../../emulator/emulator.c **** 	}
 4108               		.loc 1 57 3 is_stmt 0 view .LVU695
 4109 1338 0F90      		pop __tmp_reg__
 4110 133a 0F90      		pop __tmp_reg__
 4111 133c 0F90      		pop __tmp_reg__
 4112 133e 0F90      		pop __tmp_reg__
 4113               		.cfi_def_cfa_offset 10
 4114               	.L105:
 4115               	/* epilogue start */
  59:../../emulator/emulator.c **** 
 4116               		.loc 1 59 1 view .LVU696
 4117 1340 1F91      		pop r17
 4118 1342 0F91      		pop r16
 4119 1344 FF90      		pop r15
 4120 1346 EF90      		pop r14
 4121 1348 DF90      		pop r13
 4122 134a CF90      		pop r12
 4123 134c BF90      		pop r11
 4124 134e AF90      		pop r10
 4125 1350 0895      		ret
 4126               		.cfi_endproc
 4127               	.LFE11:
 4129               	.global	keyboard_event
 4131               	keyboard_event:
 4132               	.LVL246:
 4133               	.LFB13:
  74:../../emulator/emulator.c **** 	u32 addr = _emu->Events[EVENT_KEY];
 4134               		.loc 1 74 1 is_stmt 1 view -0
 4135               		.cfi_startproc
  74:../../emulator/emulator.c **** 	u32 addr = _emu->Events[EVENT_KEY];
 4136               		.loc 1 74 1 is_stmt 0 view .LVU698
 4137 1352 4F92      		push r4
 4138               		.cfi_def_cfa_offset 3
 4139               		.cfi_offset 4, -2
 4140 1354 5F92      		push r5
 4141               		.cfi_def_cfa_offset 4
 4142               		.cfi_offset 5, -3
 4143 1356 6F92      		push r6
 4144               		.cfi_def_cfa_offset 5
 4145               		.cfi_offset 6, -4
 4146 1358 7F92      		push r7
 4147               		.cfi_def_cfa_offset 6
 4148               		.cfi_offset 7, -5
 4149 135a 9F92      		push r9
 4150               		.cfi_def_cfa_offset 7
 4151               		.cfi_offset 9, -6
 4152 135c AF92      		push r10
 4153               		.cfi_def_cfa_offset 8
 4154               		.cfi_offset 10, -7
 4155 135e BF92      		push r11
 4156               		.cfi_def_cfa_offset 9
 4157               		.cfi_offset 11, -8
 4158 1360 CF92      		push r12
 4159               		.cfi_def_cfa_offset 10
 4160               		.cfi_offset 12, -9
 4161 1362 DF92      		push r13
 4162               		.cfi_def_cfa_offset 11
 4163               		.cfi_offset 13, -10
 4164 1364 EF92      		push r14
 4165               		.cfi_def_cfa_offset 12
 4166               		.cfi_offset 14, -11
 4167 1366 FF92      		push r15
 4168               		.cfi_def_cfa_offset 13
 4169               		.cfi_offset 15, -12
 4170 1368 0F93      		push r16
 4171               		.cfi_def_cfa_offset 14
 4172               		.cfi_offset 16, -13
 4173 136a 1F93      		push r17
 4174               		.cfi_def_cfa_offset 15
 4175               		.cfi_offset 17, -14
 4176 136c CF93      		push r28
 4177               		.cfi_def_cfa_offset 16
 4178               		.cfi_offset 28, -15
 4179 136e DF93      		push r29
 4180               		.cfi_def_cfa_offset 17
 4181               		.cfi_offset 29, -16
 4182 1370 CDB7      		in r28,__SP_L__
 4183 1372 DEB7      		in r29,__SP_H__
 4184               		.cfi_def_cfa_register 28
 4185 1374 2C97      		sbiw r28,12
 4186               		.cfi_def_cfa_offset 29
 4187 1376 0FB6      		in __tmp_reg__,__SREG__
 4188 1378 F894      		cli
 4189 137a DEBF      		out __SP_H__,r29
 4190 137c 0FBE      		out __SREG__,__tmp_reg__
 4191 137e CDBF      		out __SP_L__,r28
 4192               	/* prologue: function */
 4193               	/* frame size = 12 */
 4194               	/* stack size = 27 */
 4195               	.L__stack_usage = 27
 4196 1380 2B01      		movw r4,r22
 4197 1382 3C01      		movw r6,r24
 4198 1384 CA01      		movw r24,r20
 4199 1386 902E      		mov r9,r16
  75:../../emulator/emulator.c **** 	if(addr)
 4200               		.loc 1 75 2 is_stmt 1 view .LVU699
  75:../../emulator/emulator.c **** 	if(addr)
 4201               		.loc 1 75 6 is_stmt 0 view .LVU700
 4202 1388 4091 0000 		lds r20,_cur+4
 4203 138c 5091 0000 		lds r21,_cur+4+1
 4204 1390 6091 0000 		lds r22,_cur+4+2
 4205 1394 7091 0000 		lds r23,_cur+4+3
 4206               	.LVL247:
  76:../../emulator/emulator.c **** 	{
 4207               		.loc 1 76 2 is_stmt 1 view .LVU701
  76:../../emulator/emulator.c **** 	{
 4208               		.loc 1 76 4 is_stmt 0 view .LVU702
 4209 1398 4115      		cp r20,__zero_reg__
 4210 139a 5105      		cpc r21,__zero_reg__
 4211 139c 6105      		cpc r22,__zero_reg__
 4212 139e 7105      		cpc r23,__zero_reg__
 4213 13a0 01F0      		breq .L111
 4214               	.LBB232:
  78:../../emulator/emulator.c **** 		emulator_call(_emu, addr, args, ARRLEN(args), _memory_size, 1000000);
 4215               		.loc 1 78 3 is_stmt 1 view .LVU703
  78:../../emulator/emulator.c **** 		emulator_call(_emu, addr, args, ARRLEN(args), _memory_size, 1000000);
 4216               		.loc 1 78 7 is_stmt 0 view .LVU704
 4217 13a2 4982      		std Y+1,r4
 4218 13a4 5A82      		std Y+2,r5
 4219 13a6 6B82      		std Y+3,r6
 4220 13a8 7C82      		std Y+4,r7
 4221 13aa 2D83      		std Y+5,r18
 4222 13ac 3E83      		std Y+6,r19
 4223 13ae 8F83      		std Y+7,r24
 4224 13b0 9887      		std Y+8,r25
 4225 13b2 802F      		mov r24,r16
 4226 13b4 90E0      		ldi r25,0
 4227 13b6 A0E0      		ldi r26,0
 4228 13b8 B0E0      		ldi r27,0
 4229 13ba 8987      		std Y+9,r24
 4230 13bc 9A87      		std Y+10,r25
 4231 13be AB87      		std Y+11,r26
 4232 13c0 BC87      		std Y+12,r27
  79:../../emulator/emulator.c **** 	}
 4233               		.loc 1 79 3 is_stmt 1 view .LVU705
 4234 13c2 A090 0000 		lds r10,_memory_size
 4235 13c6 B090 0000 		lds r11,_memory_size+1
 4236 13ca C090 0000 		lds r12,_memory_size+2
 4237 13ce D090 0000 		lds r13,_memory_size+3
 4238 13d2 1F92      		push __zero_reg__
 4239 13d4 8FE0      		ldi r24,lo8(15)
 4240 13d6 8F93      		push r24
 4241 13d8 82E4      		ldi r24,lo8(66)
 4242 13da 8F93      		push r24
 4243 13dc 80E4      		ldi r24,lo8(64)
 4244 13de 8F93      		push r24
 4245 13e0 13E0      		ldi r17,lo8(3)
 4246 13e2 E12E      		mov r14,r17
 4247 13e4 F12C      		mov r15,__zero_reg__
 4248 13e6 00E0      		ldi r16,0
 4249 13e8 10E0      		ldi r17,0
 4250 13ea 9E01      		movw r18,r28
 4251               	.LVL248:
  79:../../emulator/emulator.c **** 	}
 4252               		.loc 1 79 3 is_stmt 0 view .LVU706
 4253 13ec 2F5F      		subi r18,-1
 4254 13ee 3F4F      		sbci r19,-1
 4255 13f0 80E0      		ldi r24,lo8(_cur)
 4256 13f2 90E0      		ldi r25,hi8(_cur)
 4257 13f4 0E94 0000 		call emulator_call
 4258               	.LVL249:
  79:../../emulator/emulator.c **** 	}
 4259               		.loc 1 79 3 view .LVU707
 4260 13f8 0F90      		pop __tmp_reg__
 4261 13fa 0F90      		pop __tmp_reg__
 4262 13fc 0F90      		pop __tmp_reg__
 4263 13fe 0F90      		pop __tmp_reg__
 4264               	.L111:
 4265               	.LBE232:
  82:../../emulator/emulator.c **** 	if(key >= KEY_COUNT)
 4266               		.loc 1 82 2 is_stmt 1 view .LVU708
 4267               	.LVL250:
 4268               	.LBB233:
 4269               	.LBI233:
 4270               		.file 2 "../../keyboard/keyboard-shared.h"
   1:../../keyboard/keyboard-shared.h **** /**
   2:../../keyboard/keyboard-shared.h ****  * @file    keyboard.c
   3:../../keyboard/keyboard-shared.h ****  * @author  Tim Gabrikowski, Anton Tchekov
   4:../../keyboard/keyboard-shared.h ****  * @version 0.1
   5:../../keyboard/keyboard-shared.h ****  * @date    14.05.2023
   6:../../keyboard/keyboard-shared.h ****  * @brief   Keyboard types and utilities
   7:../../keyboard/keyboard-shared.h ****  */
   8:../../keyboard/keyboard-shared.h **** 
   9:../../keyboard/keyboard-shared.h **** #ifndef __KEYBOARD_SHARED_H__
  10:../../keyboard/keyboard-shared.h **** #define __KEYBOARD_SHARED_H__
  11:../../keyboard/keyboard-shared.h **** 
  12:../../keyboard/keyboard-shared.h **** #include <types.h>
  13:../../keyboard/keyboard-shared.h **** #include <keys.h>
  14:../../keyboard/keyboard-shared.h **** 
  15:../../keyboard/keyboard-shared.h **** /** Key State: Released (Key Up), Pressed (Key Down), Repeat (Held Down) */
  16:../../keyboard/keyboard-shared.h **** typedef enum
  17:../../keyboard/keyboard-shared.h **** {
  18:../../keyboard/keyboard-shared.h **** 	KEYSTATE_RELEASED,
  19:../../keyboard/keyboard-shared.h **** 	KEYSTATE_PRESSED,
  20:../../keyboard/keyboard-shared.h **** 	KEYSTATE_REPEAT
  21:../../keyboard/keyboard-shared.h **** } KeyState;
  22:../../keyboard/keyboard-shared.h **** 
  23:../../keyboard/keyboard-shared.h **** /** Keycode */
  24:../../keyboard/keyboard-shared.h **** typedef u32 Key;
  25:../../keyboard/keyboard-shared.h **** 
  26:../../keyboard/keyboard-shared.h **** /**
  27:../../keyboard/keyboard-shared.h ****  * @brief Remove modifiers from key
  28:../../keyboard/keyboard-shared.h ****  *
  29:../../keyboard/keyboard-shared.h ****  * @param key Scancode
  30:../../keyboard/keyboard-shared.h ****  * @return Scancode with modifiers removed
  31:../../keyboard/keyboard-shared.h ****  */
  32:../../keyboard/keyboard-shared.h **** static inline Key key_mod_remove(Key key)
 4271               		.loc 2 32 19 view .LVU709
 4272               	.LBB234:
  33:../../keyboard/keyboard-shared.h **** {
  34:../../keyboard/keyboard-shared.h **** 	return key & 0xFFFF;
 4273               		.loc 2 34 2 view .LVU710
 4274               		.loc 2 34 13 is_stmt 0 view .LVU711
 4275 1400 6624      		clr r6
 4276 1402 7724      		clr r7
 4277               	.LVL251:
 4278               		.loc 2 34 13 view .LVU712
 4279               	.LBE234:
 4280               	.LBE233:
  83:../../emulator/emulator.c **** 	{
 4281               		.loc 1 83 2 is_stmt 1 view .LVU713
  83:../../emulator/emulator.c **** 	{
 4282               		.loc 1 83 4 is_stmt 0 view .LVU714
 4283 1404 8DE1      		ldi r24,29
 4284 1406 4816      		cp r4,r24
 4285 1408 81E0      		ldi r24,1
 4286 140a 5806      		cpc r5,r24
 4287 140c 6104      		cpc r6,__zero_reg__
 4288 140e 7104      		cpc r7,__zero_reg__
 4289 1410 00F4      		brsh .L110
  88:../../emulator/emulator.c **** }
 4290               		.loc 1 88 2 is_stmt 1 view .LVU715
  88:../../emulator/emulator.c **** }
 4291               		.loc 1 88 13 is_stmt 0 view .LVU716
 4292 1412 F201      		movw r30,r4
 4293 1414 E050      		subi r30,lo8(-(_keys))
 4294 1416 F040      		sbci r31,hi8(-(_keys))
 4295 1418 81E0      		ldi r24,lo8(1)
 4296 141a 9110      		cpse r9,__zero_reg__
 4297 141c 00C0      		rjmp .L113
 4298 141e 80E0      		ldi r24,0
 4299               	.L113:
 4300 1420 8083      		st Z,r24
 4301               	.LVL252:
 4302               	.L110:
 4303               	/* epilogue start */
  89:../../emulator/emulator.c **** 
 4304               		.loc 1 89 1 view .LVU717
 4305 1422 2C96      		adiw r28,12
 4306 1424 0FB6      		in __tmp_reg__,__SREG__
 4307 1426 F894      		cli
 4308 1428 DEBF      		out __SP_H__,r29
 4309 142a 0FBE      		out __SREG__,__tmp_reg__
 4310 142c CDBF      		out __SP_L__,r28
 4311 142e DF91      		pop r29
 4312 1430 CF91      		pop r28
 4313 1432 1F91      		pop r17
 4314 1434 0F91      		pop r16
 4315 1436 FF90      		pop r15
 4316 1438 EF90      		pop r14
 4317 143a DF90      		pop r13
 4318 143c CF90      		pop r12
 4319 143e BF90      		pop r11
 4320 1440 AF90      		pop r10
 4321 1442 9F90      		pop r9
 4322               	.LVL253:
  89:../../emulator/emulator.c **** 
 4323               		.loc 1 89 1 view .LVU718
 4324 1444 7F90      		pop r7
 4325 1446 6F90      		pop r6
 4326 1448 5F90      		pop r5
 4327 144a 4F90      		pop r4
 4328               	.LVL254:
  89:../../emulator/emulator.c **** 
 4329               		.loc 1 89 1 view .LVU719
 4330 144c 0895      		ret
 4331               		.cfi_endproc
 4332               	.LFE13:
 4334               		.section	.rodata
 4337               	syscalls:
 4338 0000 0000      		.word	gs(syscall_exit)
 4339 0002 0000      		.word	gs(syscall_finish)
 4340 0004 0000      		.word	gs(syscall_event_register)
 4341 0006 0000      		.word	gs(syscall_gfx_rect)
 4342 0008 0000      		.word	gs(syscall_gfx_image_rgba)
 4343 000a 0000      		.word	gs(syscall_gfx_image_rgb)
 4344 000c 0000      		.word	gs(syscall_gfx_image_rgb565)
 4345 000e 0000      		.word	gs(syscall_gfx_image_grayscale)
 4346 0010 0000      		.word	gs(syscall_gfx_image_1bit)
 4347 0012 0000      		.word	gs(syscall_rand)
 4348 0014 0000      		.word	gs(syscall_keyboard_is_key_pressed)
 4349 0016 0000      		.word	gs(syscall_serial_write)
 4350 0018 0000      		.word	gs(syscall_datetime_now)
 4351 001a 0000      		.word	gs(syscall_millis)
 4352               		.local	_memory_size
 4353               		.comm	_memory_size,4,1
 4354               		.local	_keys
 4355               		.comm	_keys,285,1
 4356               		.local	_cur
 4357               		.comm	_cur,140,1
 4358               		.local	_finished
 4359               		.comm	_finished,1,1
 4360               		.text
 4361               	.Letext0:
 4362               		.file 3 "/usr/lib/gcc/avr/12.2.0/include/stddef.h"
 4363               		.file 4 "/usr/lib/gcc/avr/12.2.0/include/stdint-gcc.h"
 4364               		.file 5 "../../types/types.h"
 4365               		.file 6 "../../keyboard/keys.h"
 4366               		.file 7 "../../emulator/emulator.h"
 4367               		.file 8 "/usr/avr/include/stdio.h"
 4368               		.file 9 "../../platform/platform.h"
 4369               		.file 10 "/usr/avr/include/string.h"
 4370               		.file 11 "/usr/avr/include/stdlib.h"
DEFINED SYMBOLS
                            *ABS*:00000000 emulator.c
     /tmp/cc2yKuMi.s:2      *ABS*:0000003e __SP_H__
     /tmp/cc2yKuMi.s:3      *ABS*:0000003d __SP_L__
     /tmp/cc2yKuMi.s:4      *ABS*:0000003f __SREG__
     /tmp/cc2yKuMi.s:5      *ABS*:00000000 __tmp_reg__
     /tmp/cc2yKuMi.s:6      *ABS*:00000001 __zero_reg__
     /tmp/cc2yKuMi.s:13     .text:00000000 syscall_event_register
     /tmp/cc2yKuMi.s:17     .text:00000000 .Loc.0
     /tmp/cc2yKuMi.s:18     .text:00000000 L0
     /tmp/cc2yKuMi.s:23     .text:00000000 .Loc.1
     /tmp/cc2yKuMi.s:25     .text:00000002 .Loc.2
     /tmp/cc2yKuMi.s:26     .text:00000002 .Loc.3
     /tmp/cc2yKuMi.s:32     .text:0000000a .Loc.4
     /tmp/cc2yKuMi.s:33     .text:0000000a .Loc.5
     /tmp/cc2yKuMi.s:34     .text:0000000a .Loc.6
     /tmp/cc2yKuMi.s:40     .text:00000014 .Loc.7
     /tmp/cc2yKuMi.s:45     .text:0000001c .Loc.8
     /tmp/cc2yKuMi.s:46     .text:0000001c .Loc.9
     /tmp/cc2yKuMi.s:52     .text:00000024 .Loc.10
     /tmp/cc2yKuMi.s:55     .text:00000026 .Loc.11
     /tmp/cc2yKuMi.s:4355   .bss:00000121 _cur
     /tmp/cc2yKuMi.s:64     .text:00000032 .Loc.12
     /tmp/cc2yKuMi.s:65     .text:00000032 .Loc.13
     /tmp/cc2yKuMi.s:71     .text:0000003a L0
     /tmp/cc2yKuMi.s:75     .text:0000003a syscall_finish
     /tmp/cc2yKuMi.s:78     .text:0000003a .Loc.14
     /tmp/cc2yKuMi.s:79     .text:0000003a L0
     /tmp/cc2yKuMi.s:84     .text:0000003a .Loc.15
     /tmp/cc2yKuMi.s:85     .text:0000003a .Loc.16
     /tmp/cc2yKuMi.s:88     .text:0000003c .Loc.17
     /tmp/cc2yKuMi.s:4357   .bss:000001ad _finished
     /tmp/cc2yKuMi.s:90     .text:00000040 .Loc.18
     /tmp/cc2yKuMi.s:91     .text:00000040 .Loc.19
     /tmp/cc2yKuMi.s:92     .text:00000040 .Loc.20
     /tmp/cc2yKuMi.s:98     .text:00000048 L0
     /tmp/cc2yKuMi.s:103    .text:00000048 syscall_keyboard_is_key_pressed
     /tmp/cc2yKuMi.s:106    .text:00000048 .Loc.21
     /tmp/cc2yKuMi.s:107    .text:00000048 L0
     /tmp/cc2yKuMi.s:108    .text:00000048 .Loc.22
     /tmp/cc2yKuMi.s:115    .text:0000004e L0
     /tmp/cc2yKuMi.s:116    .text:00000050 L0
     /tmp/cc2yKuMi.s:125    .text:00000054 .Loc.23
     /tmp/cc2yKuMi.s:126    .text:00000054 .Loc.24
     /tmp/cc2yKuMi.s:135    .text:0000005e .Loc.25
     /tmp/cc2yKuMi.s:137    .text:0000005e .Loc.26
     /tmp/cc2yKuMi.s:138    .text:0000005e .Loc.27
     /tmp/cc2yKuMi.s:145    .text:0000006a .Loc.28
     /tmp/cc2yKuMi.s:146    .text:0000006a .Loc.29
     /tmp/cc2yKuMi.s:4353   .bss:00000004 _keys
     /tmp/cc2yKuMi.s:150    .text:0000006e .Loc.30
     /tmp/cc2yKuMi.s:153    .text:00000070 .Loc.31
     /tmp/cc2yKuMi.s:157    .text:00000072 .Loc.32
     /tmp/cc2yKuMi.s:160    .text:00000072 .Loc.33
     /tmp/cc2yKuMi.s:165    .text:0000007a .Loc.34
     /tmp/cc2yKuMi.s:180    .text:0000008c .Loc.35
     /tmp/cc2yKuMi.s:183    .text:0000008e .Loc.36
     /tmp/cc2yKuMi.s:187    .text:00000090 L0
     /tmp/cc2yKuMi.s:192    .text:00000090 syscall_exit
     /tmp/cc2yKuMi.s:195    .text:00000090 .Loc.37
     /tmp/cc2yKuMi.s:196    .text:00000090 L0
     /tmp/cc2yKuMi.s:201    .text:00000090 .Loc.38
     /tmp/cc2yKuMi.s:206    .text:00000096 .Loc.39
     /tmp/cc2yKuMi.s:209    .text:0000009a .Loc.40
     /tmp/cc2yKuMi.s:210    .text:0000009a L0
     /tmp/cc2yKuMi.s:215    .text:0000009a syscall_rand
     /tmp/cc2yKuMi.s:218    .text:0000009a .Loc.41
     /tmp/cc2yKuMi.s:219    .text:0000009a L0
     /tmp/cc2yKuMi.s:224    .text:0000009a .Loc.42
     /tmp/cc2yKuMi.s:225    .text:0000009a .Loc.43
     /tmp/cc2yKuMi.s:228    .text:0000009e .Loc.44
     /tmp/cc2yKuMi.s:229    .text:0000009e L0
     /tmp/cc2yKuMi.s:234    .text:0000009e syscall_serial_write
     /tmp/cc2yKuMi.s:237    .text:0000009e .Loc.45
     /tmp/cc2yKuMi.s:238    .text:0000009e L0
     /tmp/cc2yKuMi.s:239    .text:0000009e .Loc.46
     /tmp/cc2yKuMi.s:292    .text:000000ca .Loc.47
     /tmp/cc2yKuMi.s:293    .text:000000ca .Loc.48
     /tmp/cc2yKuMi.s:294    .text:000000ca .Loc.49
     /tmp/cc2yKuMi.s:300    .text:000000d2 .Loc.50
     /tmp/cc2yKuMi.s:310    .text:000000e2 .Loc.51
     /tmp/cc2yKuMi.s:311    .text:000000e2 .Loc.52
     /tmp/cc2yKuMi.s:317    .text:000000ea .Loc.53
     /tmp/cc2yKuMi.s:318    .text:000000ea .Loc.54
     /tmp/cc2yKuMi.s:320    .text:000000ea .Loc.55
     /tmp/cc2yKuMi.s:326    .text:000000f4 .Loc.56
     /tmp/cc2yKuMi.s:327    .text:000000f4 .Loc.57
     /tmp/cc2yKuMi.s:352    .text:00000120 .Loc.58
     /tmp/cc2yKuMi.s:356    .text:00000122 .Loc.59
     /tmp/cc2yKuMi.s:357    .text:00000122 .Loc.60
     /tmp/cc2yKuMi.s:366    .text:00000132 .Loc.61
     /tmp/cc2yKuMi.s:374    .text:0000013c .Loc.62
     /tmp/cc2yKuMi.s:390    .text:0000015a .Loc.63
     /tmp/cc2yKuMi.s:397    .text:00000166 .Loc.64
     /tmp/cc2yKuMi.s:398    .text:00000166 .Loc.65
     /tmp/cc2yKuMi.s:404    .text:0000016e .Loc.66
     /tmp/cc2yKuMi.s:405    .text:0000016e .Loc.67
     /tmp/cc2yKuMi.s:427    .text:00000196 .Loc.68
     /tmp/cc2yKuMi.s:429    .text:00000198 L0
     /tmp/cc2yKuMi.s:433    .text:00000198 syscall_millis
     /tmp/cc2yKuMi.s:436    .text:00000198 .Loc.69
     /tmp/cc2yKuMi.s:437    .text:00000198 L0
     /tmp/cc2yKuMi.s:442    .text:00000198 .Loc.70
     /tmp/cc2yKuMi.s:443    .text:00000198 .Loc.71
     /tmp/cc2yKuMi.s:446    .text:0000019c .Loc.72
     /tmp/cc2yKuMi.s:447    .text:0000019c L0
     /tmp/cc2yKuMi.s:451    .text:0000019c syscall_datetime_now
     /tmp/cc2yKuMi.s:454    .text:0000019c .Loc.73
     /tmp/cc2yKuMi.s:455    .text:0000019c L0
     /tmp/cc2yKuMi.s:456    .text:0000019c .Loc.74
     /tmp/cc2yKuMi.s:484    .text:000001b6 .Loc.75
     /tmp/cc2yKuMi.s:485    .text:000001b6 .Loc.76
     /tmp/cc2yKuMi.s:488    .text:000001b8 .Loc.77
     /tmp/cc2yKuMi.s:492    .text:000001be .Loc.78
     /tmp/cc2yKuMi.s:508    .text:000001da .Loc.79
     /tmp/cc2yKuMi.s:516    .text:000001e8 .Loc.80
     /tmp/cc2yKuMi.s:517    .text:000001e8 .Loc.81
     /tmp/cc2yKuMi.s:533    .text:00000204 L0
     /tmp/cc2yKuMi.s:537    .text:00000204 syscall_gfx_rect
     /tmp/cc2yKuMi.s:540    .text:00000204 .Loc.82
     /tmp/cc2yKuMi.s:541    .text:00000204 L0
     /tmp/cc2yKuMi.s:542    .text:00000204 .Loc.83
     /tmp/cc2yKuMi.s:588    .text:0000022a .Loc.84
     /tmp/cc2yKuMi.s:598    .text:0000023a .Loc.85
     /tmp/cc2yKuMi.s:633    .text:0000027e .Loc.86
     /tmp/cc2yKuMi.s:634    .text:0000027e .Loc.87
     /tmp/cc2yKuMi.s:639    .text:00000286 .Loc.88
     /tmp/cc2yKuMi.s:661    .text:000002ae L0
     /tmp/cc2yKuMi.s:666    .text:000002ae kernel_init
     /tmp/cc2yKuMi.s:668    .text:000002ae .Loc.89
     /tmp/cc2yKuMi.s:669    .text:000002ae L0
     /tmp/cc2yKuMi.s:674    .text:000002ae .Loc.90
     /tmp/cc2yKuMi.s:675    .text:000002ae .Loc.91
                             .bss:00000000 _memory_size
     /tmp/cc2yKuMi.s:683    .text:000002c2 .Loc.92
     /tmp/cc2yKuMi.s:685    .text:000002c4 L0
     /tmp/cc2yKuMi.s:694    .text:000002c4 emulator_call
     /tmp/cc2yKuMi.s:697    .text:000002c4 .Loc.93
     /tmp/cc2yKuMi.s:698    .text:000002c4 L0
     /tmp/cc2yKuMi.s:699    .text:000002c4 .Loc.94
     /tmp/cc2yKuMi.s:769    .text:000002fa .Loc.95
     /tmp/cc2yKuMi.s:770    .text:000002fa .Loc.96
     /tmp/cc2yKuMi.s:771    .text:000002fa .Loc.97
     /tmp/cc2yKuMi.s:777    .text:00000304 .Loc.98
     /tmp/cc2yKuMi.s:778    .text:00000304 .Loc.99
     /tmp/cc2yKuMi.s:783    .text:0000030c .Loc.100
     /tmp/cc2yKuMi.s:784    .text:0000030c .Loc.101
     /tmp/cc2yKuMi.s:789    .text:00000314 .Loc.102
     /tmp/cc2yKuMi.s:792    .text:00000316 .Loc.103
     /tmp/cc2yKuMi.s:800    .text:00000322 .Loc.104
     /tmp/cc2yKuMi.s:803    .text:00000326 .Loc.105
     /tmp/cc2yKuMi.s:804    .text:00000326 .Loc.106
     /tmp/cc2yKuMi.s:806    .text:0000032a .Loc.107
     /tmp/cc2yKuMi.s:808    .text:0000032a .Loc.108
     /tmp/cc2yKuMi.s:817    .text:00000332 .Loc.109
     /tmp/cc2yKuMi.s:823    .text:0000033a .Loc.110
     /tmp/cc2yKuMi.s:826    .text:0000033a .Loc.111
     /tmp/cc2yKuMi.s:834    .text:00000344 .Loc.112
     /tmp/cc2yKuMi.s:837    .text:00000344 .Loc.113
     /tmp/cc2yKuMi.s:853    .text:0000035e .Loc.114
     /tmp/cc2yKuMi.s:856    .text:0000035e .Loc.115
     /tmp/cc2yKuMi.s:861    .text:00000364 .Loc.116
     /tmp/cc2yKuMi.s:869    .text:00000376 .Loc.117
     /tmp/cc2yKuMi.s:875    .text:0000037e .Loc.118
     /tmp/cc2yKuMi.s:878    .text:0000037e .Loc.119
     /tmp/cc2yKuMi.s:881    .text:0000037e .Loc.120
     /tmp/cc2yKuMi.s:883    .text:0000037e .Loc.121
     /tmp/cc2yKuMi.s:884    .text:0000037e .Loc.122
     /tmp/cc2yKuMi.s:887    .text:0000037e .Loc.123
     /tmp/cc2yKuMi.s:889    .text:0000037e .Loc.124
     /tmp/cc2yKuMi.s:890    .text:0000037e .Loc.125
     /tmp/cc2yKuMi.s:909    .text:000003a2 .Loc.126
     /tmp/cc2yKuMi.s:910    .text:000003a2 .Loc.127
     /tmp/cc2yKuMi.s:916    .text:000003aa .Loc.128
     /tmp/cc2yKuMi.s:919    .text:000003aa .Loc.129
     /tmp/cc2yKuMi.s:920    .text:000003aa .Loc.130
     /tmp/cc2yKuMi.s:926    .text:000003b4 .Loc.131
     /tmp/cc2yKuMi.s:928    .text:000003b4 .Loc.132
     /tmp/cc2yKuMi.s:929    .text:000003b4 .Loc.133
     /tmp/cc2yKuMi.s:937    .text:000003c2 .Loc.134
     /tmp/cc2yKuMi.s:942    .text:000003cc L0
     /tmp/cc2yKuMi.s:944    .text:000003ce .Loc.135
     /tmp/cc2yKuMi.s:946    .text:000003ce .Loc.136
     /tmp/cc2yKuMi.s:947    .text:000003ce .Loc.137
     /tmp/cc2yKuMi.s:963    .text:000003e8 .Loc.138
     /tmp/cc2yKuMi.s:968    .text:000003f2 L0
     /tmp/cc2yKuMi.s:1008   .text:000003fe .Loc.139
     /tmp/cc2yKuMi.s:1009   .text:000003fe .Loc.140
     /tmp/cc2yKuMi.s:1019   .text:0000040a .Loc.141
     /tmp/cc2yKuMi.s:1021   .text:0000040a .Loc.142
     /tmp/cc2yKuMi.s:1022   .text:0000040a .Loc.143
     /tmp/cc2yKuMi.s:1027   .text:00000414 L0
     /tmp/cc2yKuMi.s:1029   .text:00000416 .Loc.144
     /tmp/cc2yKuMi.s:1030   .text:00000416 .Loc.145
     /tmp/cc2yKuMi.s:1034   .text:0000041a .Loc.146
     /tmp/cc2yKuMi.s:1037   .text:0000041c .Loc.147
     /tmp/cc2yKuMi.s:4337   .rodata:00000000 syscalls
     /tmp/cc2yKuMi.s:1040   .text:00000420 .Loc.148
     /tmp/cc2yKuMi.s:1047   .text:0000042a .Loc.149
     /tmp/cc2yKuMi.s:1055   .text:00000438 .Loc.150
     /tmp/cc2yKuMi.s:1058   .text:00000438 .Loc.151
     /tmp/cc2yKuMi.s:1061   .text:00000438 .Loc.152
     /tmp/cc2yKuMi.s:1062   .text:00000438 .Loc.153
     /tmp/cc2yKuMi.s:1075   .text:0000044a .Loc.154
     /tmp/cc2yKuMi.s:1076   .text:0000044a .Loc.155
     /tmp/cc2yKuMi.s:1077   .text:0000044a .Loc.156
     /tmp/cc2yKuMi.s:1078   .text:0000044a .Loc.157
     /tmp/cc2yKuMi.s:1089   .text:0000045c .Loc.158
     /tmp/cc2yKuMi.s:1095   .text:00000466 .Loc.159
     /tmp/cc2yKuMi.s:1096   .text:00000466 .Loc.160
     /tmp/cc2yKuMi.s:1100   .text:0000046a .Loc.161
     /tmp/cc2yKuMi.s:1109   .text:00000478 .Loc.162
     /tmp/cc2yKuMi.s:1116   .text:00000482 .Loc.163
     /tmp/cc2yKuMi.s:1117   .text:00000482 .Loc.164
     /tmp/cc2yKuMi.s:1121   .text:00000486 .Loc.165
     /tmp/cc2yKuMi.s:1130   .text:00000494 .Loc.166
     /tmp/cc2yKuMi.s:1136   .text:0000049c .Loc.167
     /tmp/cc2yKuMi.s:1137   .text:0000049c .Loc.168
     /tmp/cc2yKuMi.s:1140   .text:0000049c .Loc.169
     /tmp/cc2yKuMi.s:1142   .text:0000049c .Loc.170
     /tmp/cc2yKuMi.s:1143   .text:0000049c .Loc.171
     /tmp/cc2yKuMi.s:1146   .text:0000049c .Loc.172
     /tmp/cc2yKuMi.s:1158   .text:000004aa .Loc.173
     /tmp/cc2yKuMi.s:1162   .text:000004ae .Loc.174
     /tmp/cc2yKuMi.s:1167   .text:000004b4 .Loc.175
     /tmp/cc2yKuMi.s:1170   .text:000004b4 .Loc.176
     /tmp/cc2yKuMi.s:1176   .text:000004c0 L0
     /tmp/cc2yKuMi.s:1182   .text:000004c8 .Loc.177
     /tmp/cc2yKuMi.s:1190   .text:000004d8 L0
     /tmp/cc2yKuMi.s:1192   .text:000004da .Loc.178
     /tmp/cc2yKuMi.s:1196   .text:000004da .Loc.179
     /tmp/cc2yKuMi.s:1198   .text:000004da .Loc.180
     /tmp/cc2yKuMi.s:1199   .text:000004da .Loc.181
     /tmp/cc2yKuMi.s:1202   .text:000004da .Loc.182
     /tmp/cc2yKuMi.s:1210   .text:000004e8 .Loc.183
     /tmp/cc2yKuMi.s:1218   .text:000004f4 .Loc.184
     /tmp/cc2yKuMi.s:1229   .text:00000504 .Loc.185
     /tmp/cc2yKuMi.s:1238   .text:00000514 .Loc.186
     /tmp/cc2yKuMi.s:1239   .text:00000514 .Loc.187
     /tmp/cc2yKuMi.s:1248   .text:00000520 .Loc.188
     /tmp/cc2yKuMi.s:1251   .text:00000520 .Loc.189
     /tmp/cc2yKuMi.s:1262   .text:0000052e .Loc.190
     /tmp/cc2yKuMi.s:1267   .text:00000536 .Loc.191
     /tmp/cc2yKuMi.s:1271   .text:00000538 .Loc.192
     /tmp/cc2yKuMi.s:1277   .text:00000544 L0
     /tmp/cc2yKuMi.s:1284   .text:00000552 L0
     /tmp/cc2yKuMi.s:1288   .text:00000554 .Loc.193
     /tmp/cc2yKuMi.s:1292   .text:00000554 .Loc.194
     /tmp/cc2yKuMi.s:1293   .text:00000554 .Loc.195
     /tmp/cc2yKuMi.s:1297   .text:0000055c .Loc.196
     /tmp/cc2yKuMi.s:1311   .text:00000574 .Loc.197
     /tmp/cc2yKuMi.s:1318   .text:00000576 .Loc.198
     /tmp/cc2yKuMi.s:1321   .text:00000576 .Loc.199
     /tmp/cc2yKuMi.s:1323   .text:00000576 .Loc.200
     /tmp/cc2yKuMi.s:1324   .text:00000576 .Loc.201
     /tmp/cc2yKuMi.s:1327   .text:00000576 .Loc.202
     /tmp/cc2yKuMi.s:1335   .text:00000584 .Loc.203
     /tmp/cc2yKuMi.s:1343   .text:00000590 .Loc.204
     /tmp/cc2yKuMi.s:1354   .text:000005a0 .Loc.205
     /tmp/cc2yKuMi.s:1363   .text:000005b0 .Loc.206
     /tmp/cc2yKuMi.s:1364   .text:000005b0 .Loc.207
     /tmp/cc2yKuMi.s:1374   .text:000005be .Loc.208
     /tmp/cc2yKuMi.s:1377   .text:000005be .Loc.209
     /tmp/cc2yKuMi.s:1380   .text:000005be .Loc.210
     /tmp/cc2yKuMi.s:1382   .text:000005be .Loc.211
     /tmp/cc2yKuMi.s:1383   .text:000005be .Loc.212
     /tmp/cc2yKuMi.s:1386   .text:000005be .Loc.213
     /tmp/cc2yKuMi.s:1395   .text:000005ce .Loc.214
     /tmp/cc2yKuMi.s:1401   .text:000005d6 .Loc.215
     /tmp/cc2yKuMi.s:1405   .text:000005da .Loc.216
     /tmp/cc2yKuMi.s:1416   .text:000005ea .Loc.217
     /tmp/cc2yKuMi.s:1425   .text:000005fa .Loc.218
     /tmp/cc2yKuMi.s:1426   .text:000005fa .Loc.219
     /tmp/cc2yKuMi.s:1433   .text:00000602 .Loc.220
     /tmp/cc2yKuMi.s:1436   .text:00000602 .Loc.221
     /tmp/cc2yKuMi.s:1442   .text:00000608 .Loc.222
     /tmp/cc2yKuMi.s:1445   .text:00000608 .Loc.223
     /tmp/cc2yKuMi.s:1447   .text:00000608 .Loc.224
     /tmp/cc2yKuMi.s:1448   .text:00000608 .Loc.225
     /tmp/cc2yKuMi.s:1451   .text:00000608 .Loc.226
     /tmp/cc2yKuMi.s:1460   .text:00000618 .Loc.227
     /tmp/cc2yKuMi.s:1466   .text:00000620 .Loc.228
     /tmp/cc2yKuMi.s:1470   .text:00000624 .Loc.229
     /tmp/cc2yKuMi.s:1481   .text:00000634 .Loc.230
     /tmp/cc2yKuMi.s:1490   .text:00000644 .Loc.231
     /tmp/cc2yKuMi.s:1491   .text:00000644 .Loc.232
     /tmp/cc2yKuMi.s:1496   .text:00000648 .Loc.233
     /tmp/cc2yKuMi.s:1502   .text:0000064e .Loc.234
     /tmp/cc2yKuMi.s:1505   .text:0000064e .Loc.235
     /tmp/cc2yKuMi.s:1508   .text:0000064e .Loc.236
     /tmp/cc2yKuMi.s:1510   .text:0000064e .Loc.237
     /tmp/cc2yKuMi.s:1511   .text:0000064e .Loc.238
     /tmp/cc2yKuMi.s:1514   .text:0000064e .Loc.239
     /tmp/cc2yKuMi.s:1523   .text:0000065e .Loc.240
     /tmp/cc2yKuMi.s:1529   .text:00000666 .Loc.241
     /tmp/cc2yKuMi.s:1533   .text:0000066a .Loc.242
     /tmp/cc2yKuMi.s:1544   .text:0000067a .Loc.243
     /tmp/cc2yKuMi.s:1553   .text:0000068a .Loc.244
     /tmp/cc2yKuMi.s:1554   .text:0000068a .Loc.245
     /tmp/cc2yKuMi.s:1560   .text:00000690 .Loc.246
     /tmp/cc2yKuMi.s:1565   .text:00000690 .Loc.247
     /tmp/cc2yKuMi.s:1566   .text:00000690 .Loc.248
     /tmp/cc2yKuMi.s:1567   .text:00000690 .Loc.249
     /tmp/cc2yKuMi.s:1571   .text:00000694 .Loc.250
     /tmp/cc2yKuMi.s:1580   .text:000006a2 .Loc.251
     /tmp/cc2yKuMi.s:1585   .text:000006aa .Loc.252
     /tmp/cc2yKuMi.s:1587   .text:000006aa .Loc.253
     /tmp/cc2yKuMi.s:1588   .text:000006aa .Loc.254
     /tmp/cc2yKuMi.s:1589   .text:000006aa .Loc.255
     /tmp/cc2yKuMi.s:1601   .text:000006bc .Loc.256
     /tmp/cc2yKuMi.s:1602   .text:000006bc .Loc.257
     /tmp/cc2yKuMi.s:1613   .text:000006ce .Loc.258
     /tmp/cc2yKuMi.s:1620   .text:000006d8 .Loc.259
     /tmp/cc2yKuMi.s:1623   .text:000006d8 .Loc.260
     /tmp/cc2yKuMi.s:1637   .text:000006f0 .Loc.261
     /tmp/cc2yKuMi.s:1640   .text:000006f0 .Loc.262
     /tmp/cc2yKuMi.s:1644   .text:000006f4 .Loc.263
     /tmp/cc2yKuMi.s:1653   .text:00000702 .Loc.264
     /tmp/cc2yKuMi.s:1660   .text:0000070c .Loc.265
     /tmp/cc2yKuMi.s:1667   .text:00000716 .Loc.266
     /tmp/cc2yKuMi.s:1692   .text:00000730 .Loc.267
     /tmp/cc2yKuMi.s:1696   .text:00000730 .Loc.268
     /tmp/cc2yKuMi.s:1698   .text:00000730 .Loc.269
     /tmp/cc2yKuMi.s:1699   .text:00000730 .Loc.270
     /tmp/cc2yKuMi.s:1700   .text:00000730 .Loc.271
     /tmp/cc2yKuMi.s:1703   .text:00000730 .Loc.272
     /tmp/cc2yKuMi.s:1704   .text:00000730 .Loc.273
     /tmp/cc2yKuMi.s:1711   .text:0000073a .Loc.274
     /tmp/cc2yKuMi.s:1716   .text:0000073e .Loc.275
     /tmp/cc2yKuMi.s:1720   .text:00000742 .Loc.276
     /tmp/cc2yKuMi.s:1725   .text:00000748 .Loc.277
     /tmp/cc2yKuMi.s:1728   .text:00000748 .Loc.278
     /tmp/cc2yKuMi.s:1735   .text:00000750 .Loc.279
     /tmp/cc2yKuMi.s:1740   .text:00000758 .Loc.280
     /tmp/cc2yKuMi.s:1744   .text:0000075a .Loc.281
     /tmp/cc2yKuMi.s:1745   .text:0000075a .Loc.282
     /tmp/cc2yKuMi.s:1746   .text:0000075a .Loc.283
     /tmp/cc2yKuMi.s:1754   .text:00000768 .Loc.284
     /tmp/cc2yKuMi.s:1760   .text:00000770 .Loc.285
     /tmp/cc2yKuMi.s:1772   .text:0000077e .Loc.286
     /tmp/cc2yKuMi.s:1780   .text:00000788 .Loc.287
     /tmp/cc2yKuMi.s:1783   .text:00000788 .Loc.288
     /tmp/cc2yKuMi.s:1785   .text:00000788 .Loc.289
     /tmp/cc2yKuMi.s:1786   .text:00000788 .Loc.290
     /tmp/cc2yKuMi.s:1787   .text:00000788 .Loc.291
     /tmp/cc2yKuMi.s:1790   .text:00000788 .Loc.292
     /tmp/cc2yKuMi.s:1791   .text:00000788 .Loc.293
     /tmp/cc2yKuMi.s:1801   .text:00000796 .Loc.294
     /tmp/cc2yKuMi.s:1805   .text:0000079a .Loc.295
     /tmp/cc2yKuMi.s:1810   .text:000007a0 .Loc.296
     /tmp/cc2yKuMi.s:1813   .text:000007a0 .Loc.297
     /tmp/cc2yKuMi.s:1819   .text:000007a8 .Loc.298
     /tmp/cc2yKuMi.s:1826   .text:000007b0 .Loc.299
     /tmp/cc2yKuMi.s:1829   .text:000007b0 .Loc.300
     /tmp/cc2yKuMi.s:1830   .text:000007b2 L0
     /tmp/cc2yKuMi.s:1835   .text:000007b6 .Loc.301
     /tmp/cc2yKuMi.s:1838   .text:000007b6 .Loc.302
     /tmp/cc2yKuMi.s:1839   .text:000007b6 .Loc.303
     /tmp/cc2yKuMi.s:1847   .text:000007c4 .Loc.304
     /tmp/cc2yKuMi.s:1853   .text:000007cc .Loc.305
     /tmp/cc2yKuMi.s:1858   .text:000007d6 L0
     /tmp/cc2yKuMi.s:1862   .text:000007d8 .Loc.306
     /tmp/cc2yKuMi.s:1865   .text:000007d8 .Loc.307
     /tmp/cc2yKuMi.s:1872   .text:000007e0 .Loc.308
     /tmp/cc2yKuMi.s:1875   .text:000007e0 .Loc.309
     /tmp/cc2yKuMi.s:1878   .text:000007e0 .Loc.310
     /tmp/cc2yKuMi.s:1880   .text:000007e0 .Loc.311
     /tmp/cc2yKuMi.s:1881   .text:000007e0 .Loc.312
     /tmp/cc2yKuMi.s:1882   .text:000007e0 .Loc.313
     /tmp/cc2yKuMi.s:1885   .text:000007e0 .Loc.314
     /tmp/cc2yKuMi.s:1886   .text:000007e0 .Loc.315
     /tmp/cc2yKuMi.s:1896   .text:000007ee .Loc.316
     /tmp/cc2yKuMi.s:1900   .text:000007f2 .Loc.317
     /tmp/cc2yKuMi.s:1905   .text:000007f8 .Loc.318
     /tmp/cc2yKuMi.s:1908   .text:000007f8 .Loc.319
     /tmp/cc2yKuMi.s:1914   .text:00000800 .Loc.320
     /tmp/cc2yKuMi.s:1918   .text:00000802 .Loc.321
     /tmp/cc2yKuMi.s:1919   .text:00000802 .Loc.322
     /tmp/cc2yKuMi.s:1929   .text:00000810 .Loc.323
     /tmp/cc2yKuMi.s:1937   .text:0000081e .Loc.324
     /tmp/cc2yKuMi.s:1942   .text:00000826 .Loc.325
     /tmp/cc2yKuMi.s:1944   .text:00000826 .Loc.326
     /tmp/cc2yKuMi.s:1945   .text:00000826 .Loc.327
     /tmp/cc2yKuMi.s:1951   .text:0000082e .Loc.328
     /tmp/cc2yKuMi.s:1963   .text:0000083e .Loc.329
     /tmp/cc2yKuMi.s:1965   .text:0000083e .Loc.330
     /tmp/cc2yKuMi.s:1966   .text:0000083e .Loc.331
     /tmp/cc2yKuMi.s:1979   .text:0000084e .Loc.332
     /tmp/cc2yKuMi.s:1982   .text:0000084e .Loc.333
     /tmp/cc2yKuMi.s:1984   .text:0000084e .Loc.334
     /tmp/cc2yKuMi.s:1985   .text:0000084e .Loc.335
     /tmp/cc2yKuMi.s:1986   .text:0000084e .Loc.336
     /tmp/cc2yKuMi.s:1989   .text:0000084e .Loc.337
     /tmp/cc2yKuMi.s:1990   .text:0000084e .Loc.338
     /tmp/cc2yKuMi.s:2000   .text:0000085c .Loc.339
     /tmp/cc2yKuMi.s:2004   .text:00000860 .Loc.340
     /tmp/cc2yKuMi.s:2009   .text:00000866 .Loc.341
     /tmp/cc2yKuMi.s:2012   .text:00000866 .Loc.342
     /tmp/cc2yKuMi.s:2018   .text:0000086e .Loc.343
     /tmp/cc2yKuMi.s:2022   .text:00000870 .Loc.344
     /tmp/cc2yKuMi.s:2025   .text:00000870 .Loc.345
     /tmp/cc2yKuMi.s:2027   .text:00000870 .Loc.346
     /tmp/cc2yKuMi.s:2028   .text:00000870 .Loc.347
     /tmp/cc2yKuMi.s:2029   .text:00000870 .Loc.348
     /tmp/cc2yKuMi.s:2032   .text:00000870 .Loc.349
     /tmp/cc2yKuMi.s:2033   .text:00000870 .Loc.350
     /tmp/cc2yKuMi.s:2043   .text:0000087e .Loc.351
     /tmp/cc2yKuMi.s:2047   .text:00000882 .Loc.352
     /tmp/cc2yKuMi.s:2052   .text:00000888 .Loc.353
     /tmp/cc2yKuMi.s:2055   .text:00000888 .Loc.354
     /tmp/cc2yKuMi.s:2061   .text:00000890 .Loc.355
     /tmp/cc2yKuMi.s:2065   .text:00000892 .Loc.356
     /tmp/cc2yKuMi.s:2068   .text:00000892 .Loc.357
     /tmp/cc2yKuMi.s:2069   .text:00000892 .Loc.358
     /tmp/cc2yKuMi.s:2070   .text:00000892 .Loc.359
     /tmp/cc2yKuMi.s:2071   .text:00000892 .Loc.360
     /tmp/cc2yKuMi.s:2072   .text:00000892 .Loc.361
     /tmp/cc2yKuMi.s:2083   .text:000008a4 .Loc.362
     /tmp/cc2yKuMi.s:2089   .text:000008ac .Loc.363
     /tmp/cc2yKuMi.s:2097   .text:000008b8 .Loc.364
     /tmp/cc2yKuMi.s:2101   .text:000008be .Loc.365
     /tmp/cc2yKuMi.s:2106   .text:000008c6 .Loc.366
     /tmp/cc2yKuMi.s:2113   .text:000008d0 .Loc.367
     /tmp/cc2yKuMi.s:2118   .text:000008d8 .Loc.368
     /tmp/cc2yKuMi.s:2123   .text:000008dc .Loc.369
     /tmp/cc2yKuMi.s:2126   .text:000008dc .Loc.370
     /tmp/cc2yKuMi.s:2127   .text:000008dc .Loc.371
     /tmp/cc2yKuMi.s:2128   .text:000008dc .Loc.372
     /tmp/cc2yKuMi.s:2129   .text:000008dc .Loc.373
     /tmp/cc2yKuMi.s:2140   .text:000008ee .Loc.374
     /tmp/cc2yKuMi.s:2147   .text:000008f8 .Loc.375
     /tmp/cc2yKuMi.s:2148   .text:000008f8 .Loc.376
     /tmp/cc2yKuMi.s:2159   .text:0000090a .Loc.377
     /tmp/cc2yKuMi.s:2164   .text:00000912 .Loc.378
     /tmp/cc2yKuMi.s:2165   .text:00000912 .Loc.379
     /tmp/cc2yKuMi.s:2169   .text:00000916 .Loc.380
     /tmp/cc2yKuMi.s:2178   .text:00000924 .Loc.381
     /tmp/cc2yKuMi.s:2182   .text:00000928 .Loc.382
     /tmp/cc2yKuMi.s:2187   .text:00000930 .Loc.383
     /tmp/cc2yKuMi.s:2189   .text:00000930 .Loc.384
     /tmp/cc2yKuMi.s:2192   .text:00000930 .Loc.385
     /tmp/cc2yKuMi.s:2194   .text:00000930 .Loc.386
     /tmp/cc2yKuMi.s:2195   .text:00000930 .Loc.387
     /tmp/cc2yKuMi.s:2198   .text:00000930 .Loc.388
     /tmp/cc2yKuMi.s:2208   .text:0000093e .Loc.389
     /tmp/cc2yKuMi.s:2213   .text:00000946 .Loc.390
     /tmp/cc2yKuMi.s:2221   .text:00000952 .Loc.391
     /tmp/cc2yKuMi.s:2229   .text:0000095a .Loc.392
     /tmp/cc2yKuMi.s:2233   .text:0000095e .Loc.393
     /tmp/cc2yKuMi.s:2238   .text:00000964 .Loc.394
     /tmp/cc2yKuMi.s:2241   .text:00000964 .Loc.395
     /tmp/cc2yKuMi.s:2253   .text:0000097c L0
     /tmp/cc2yKuMi.s:2258   .text:00000986 L0
     /tmp/cc2yKuMi.s:2260   .text:00000988 .Loc.396
     /tmp/cc2yKuMi.s:2261   .text:00000988 .Loc.397
     /tmp/cc2yKuMi.s:2270   .text:00000998 .Loc.398
     /tmp/cc2yKuMi.s:2288   .text:000009b4 .Loc.399
     /tmp/cc2yKuMi.s:2290   .text:000009b4 .Loc.400
     /tmp/cc2yKuMi.s:2293   .text:000009b4 .Loc.401
     /tmp/cc2yKuMi.s:2304   .text:000009c4 .Loc.402
     /tmp/cc2yKuMi.s:2307   .text:000009c6 .Loc.403
     /tmp/cc2yKuMi.s:2310   .text:000009c8 .Loc.404
     /tmp/cc2yKuMi.s:2317   .text:000009d0 .Loc.405
     /tmp/cc2yKuMi.s:2322   .text:000009d0 .Loc.406
     /tmp/cc2yKuMi.s:2331   .text:000009dc .Loc.407
     /tmp/cc2yKuMi.s:2334   .text:000009dc .Loc.408
     /tmp/cc2yKuMi.s:2335   .text:000009dc .Loc.409
     /tmp/cc2yKuMi.s:2344   .text:000009ec .Loc.410
     /tmp/cc2yKuMi.s:2352   .text:000009f8 .Loc.411
     /tmp/cc2yKuMi.s:2364   .text:00000a08 .Loc.412
     /tmp/cc2yKuMi.s:2366   .text:00000a08 .Loc.413
     /tmp/cc2yKuMi.s:2369   .text:00000a08 .Loc.414
     /tmp/cc2yKuMi.s:2380   .text:00000a18 .Loc.415
     /tmp/cc2yKuMi.s:2384   .text:00000a1c .Loc.416
     /tmp/cc2yKuMi.s:2388   .text:00000a20 .Loc.417
     /tmp/cc2yKuMi.s:2394   .text:00000a28 .Loc.418
     /tmp/cc2yKuMi.s:2402   .text:00000a32 .Loc.419
     /tmp/cc2yKuMi.s:2407   .text:00000a32 .Loc.420
     /tmp/cc2yKuMi.s:2412   .text:00000a36 .Loc.421
     /tmp/cc2yKuMi.s:2416   .text:00000a38 .Loc.422
     /tmp/cc2yKuMi.s:2417   .text:00000a38 .Loc.423
     /tmp/cc2yKuMi.s:2426   .text:00000a48 .Loc.424
     /tmp/cc2yKuMi.s:2442   .text:00000a64 .Loc.425
     /tmp/cc2yKuMi.s:2456   .text:00000a7c .Loc.426
     /tmp/cc2yKuMi.s:2464   .text:00000a84 .Loc.427
     /tmp/cc2yKuMi.s:2466   .text:00000a84 .Loc.428
     /tmp/cc2yKuMi.s:2474   .text:00000a8e .Loc.429
     /tmp/cc2yKuMi.s:2479   .text:00000a8e .Loc.430
     /tmp/cc2yKuMi.s:2480   .text:00000a8e .Loc.431
     /tmp/cc2yKuMi.s:2481   .text:00000a8e .Loc.432
     /tmp/cc2yKuMi.s:2492   .text:00000aa0 .Loc.433
     /tmp/cc2yKuMi.s:2497   .text:00000aa8 .Loc.434
     /tmp/cc2yKuMi.s:2498   .text:00000aa8 .Loc.435
     /tmp/cc2yKuMi.s:2502   .text:00000aac .Loc.436
     /tmp/cc2yKuMi.s:2511   .text:00000aba .Loc.437
     /tmp/cc2yKuMi.s:2517   .text:00000ac2 .Loc.438
     /tmp/cc2yKuMi.s:2518   .text:00000ac2 .Loc.439
     /tmp/cc2yKuMi.s:2519   .text:00000ac2 .Loc.440
     /tmp/cc2yKuMi.s:2520   .text:00000ac2 .Loc.441
     /tmp/cc2yKuMi.s:2532   .text:00000ad4 .Loc.442
     /tmp/cc2yKuMi.s:2533   .text:00000ad4 .Loc.443
     /tmp/cc2yKuMi.s:2537   .text:00000ad8 .Loc.444
     /tmp/cc2yKuMi.s:2546   .text:00000ae6 .Loc.445
     /tmp/cc2yKuMi.s:2553   .text:00000af0 .Loc.446
     /tmp/cc2yKuMi.s:2556   .text:00000af0 .Loc.447
     /tmp/cc2yKuMi.s:2570   .text:00000b08 .Loc.448
     /tmp/cc2yKuMi.s:2577   .text:00000b10 .Loc.449
     /tmp/cc2yKuMi.s:2587   .text:00000b1e .Loc.450
     /tmp/cc2yKuMi.s:2593   .text:00000b26 .Loc.451
     /tmp/cc2yKuMi.s:2596   .text:00000b26 .Loc.452
     /tmp/cc2yKuMi.s:2614   .text:00000b46 .Loc.453
     /tmp/cc2yKuMi.s:2619   .text:00000b4a .Loc.454
     /tmp/cc2yKuMi.s:2625   .text:00000b56 L0
     /tmp/cc2yKuMi.s:2627   .text:00000b58 .Loc.455
     /tmp/cc2yKuMi.s:2636   .text:00000b66 .Loc.456
     /tmp/cc2yKuMi.s:2638   .text:00000b68 .Loc.457
     /tmp/cc2yKuMi.s:2646   .text:00000b76 .Loc.458
     /tmp/cc2yKuMi.s:2666   .text:00000b86 .Loc.459
     /tmp/cc2yKuMi.s:2667   .text:00000b86 .Loc.460
     /tmp/cc2yKuMi.s:2675   .text:00000b94 .Loc.461
     /tmp/cc2yKuMi.s:2684   .text:00000ba4 .Loc.462
     /tmp/cc2yKuMi.s:2689   .text:00000bac .Loc.463
     /tmp/cc2yKuMi.s:2692   .text:00000bae .Loc.464
     /tmp/cc2yKuMi.s:2693   .text:00000bae .Loc.465
     /tmp/cc2yKuMi.s:2695   .text:00000bb2 .Loc.466
     /tmp/cc2yKuMi.s:2699   .text:00000bb8 .Loc.467
     /tmp/cc2yKuMi.s:2710   .text:00000bcc .Loc.468
     /tmp/cc2yKuMi.s:2713   .text:00000bce .Loc.469
     /tmp/cc2yKuMi.s:2714   .text:00000bce .Loc.470
     /tmp/cc2yKuMi.s:2716   .text:00000bd2 .Loc.471
     /tmp/cc2yKuMi.s:2719   .text:00000bd8 .Loc.472
     /tmp/cc2yKuMi.s:2725   .text:00000be2 .Loc.473
     /tmp/cc2yKuMi.s:2728   .text:00000be4 .Loc.474
     /tmp/cc2yKuMi.s:2729   .text:00000be4 .Loc.475
     /tmp/cc2yKuMi.s:2731   .text:00000be8 .Loc.476
     /tmp/cc2yKuMi.s:2736   .text:00000bf0 .Loc.477
     /tmp/cc2yKuMi.s:2737   .text:00000bf0 .Loc.478
     /tmp/cc2yKuMi.s:2739   .text:00000bf4 .Loc.479
     /tmp/cc2yKuMi.s:2745   .text:00000bfe .Loc.480
     /tmp/cc2yKuMi.s:2748   .text:00000c00 .Loc.481
     /tmp/cc2yKuMi.s:2749   .text:00000c00 .Loc.482
     /tmp/cc2yKuMi.s:2751   .text:00000c04 .Loc.483
     /tmp/cc2yKuMi.s:2758   .text:00000c10 .Loc.484
     /tmp/cc2yKuMi.s:2761   .text:00000c12 .Loc.485
     /tmp/cc2yKuMi.s:2762   .text:00000c12 .Loc.486
     /tmp/cc2yKuMi.s:2767   .text:00000c1a .Loc.487
     /tmp/cc2yKuMi.s:2768   .text:00000c1a .Loc.488
     /tmp/cc2yKuMi.s:2776   .text:00000c2a .Loc.489
     /tmp/cc2yKuMi.s:2779   .text:00000c2c .Loc.490
     /tmp/cc2yKuMi.s:2801   .text:00000c40 .Loc.491
     /tmp/cc2yKuMi.s:2802   .text:00000c40 .Loc.492
     /tmp/cc2yKuMi.s:2810   .text:00000c4e .Loc.493
     /tmp/cc2yKuMi.s:2816   .text:00000c56 .Loc.494
     /tmp/cc2yKuMi.s:2821   .text:00000c5e .Loc.495
     /tmp/cc2yKuMi.s:2822   .text:00000c5e .Loc.496
     /tmp/cc2yKuMi.s:2829   .text:00000c68 .Loc.497
     /tmp/cc2yKuMi.s:2830   .text:00000c68 .Loc.498
     /tmp/cc2yKuMi.s:2838   .text:00000c72 .Loc.499
     /tmp/cc2yKuMi.s:2839   .text:00000c72 .Loc.500
     /tmp/cc2yKuMi.s:2847   .text:00000c80 .Loc.501
     /tmp/cc2yKuMi.s:2851   .text:00000c86 .Loc.502
     /tmp/cc2yKuMi.s:2857   .text:00000c8e .Loc.503
     /tmp/cc2yKuMi.s:2870   .text:00000c9e .Loc.504
     /tmp/cc2yKuMi.s:2871   .text:00000c9e .Loc.505
     /tmp/cc2yKuMi.s:2879   .text:00000cac .Loc.506
     /tmp/cc2yKuMi.s:2885   .text:00000cb4 .Loc.507
     /tmp/cc2yKuMi.s:2897   .text:00000cc6 .Loc.508
     /tmp/cc2yKuMi.s:2898   .text:00000cc6 .Loc.509
     /tmp/cc2yKuMi.s:2906   .text:00000cd4 .Loc.510
     /tmp/cc2yKuMi.s:2912   .text:00000cdc .Loc.511
     /tmp/cc2yKuMi.s:2918   .text:00000ce4 .Loc.512
     /tmp/cc2yKuMi.s:2923   .text:00000cee L0
     /tmp/cc2yKuMi.s:2928   .text:00000cf2 .Loc.513
     /tmp/cc2yKuMi.s:2929   .text:00000cf2 .Loc.514
     /tmp/cc2yKuMi.s:2937   .text:00000d00 .Loc.515
     /tmp/cc2yKuMi.s:2943   .text:00000d08 .Loc.516
     /tmp/cc2yKuMi.s:2951   .text:00000d12 .Loc.517
     /tmp/cc2yKuMi.s:2952   .text:00000d12 .Loc.518
     /tmp/cc2yKuMi.s:2956   .text:00000d18 .Loc.519
     /tmp/cc2yKuMi.s:2964   .text:00000d26 .Loc.520
     /tmp/cc2yKuMi.s:2970   .text:00000d2e .Loc.521
     /tmp/cc2yKuMi.s:2975   .text:00000d36 .Loc.522
     /tmp/cc2yKuMi.s:2976   .text:00000d36 .Loc.523
     /tmp/cc2yKuMi.s:2988   .text:00000d46 .Loc.524
     /tmp/cc2yKuMi.s:2989   .text:00000d46 .Loc.525
     /tmp/cc2yKuMi.s:3002   .text:00000d56 .Loc.526
     /tmp/cc2yKuMi.s:3003   .text:00000d56 .Loc.527
     /tmp/cc2yKuMi.s:3011   .text:00000d64 .Loc.528
     /tmp/cc2yKuMi.s:3017   .text:00000d6c .Loc.529
     /tmp/cc2yKuMi.s:3025   .text:00000d76 .Loc.530
     /tmp/cc2yKuMi.s:3026   .text:00000d76 .Loc.531
     /tmp/cc2yKuMi.s:3033   .text:00000d80 .Loc.532
     /tmp/cc2yKuMi.s:3036   .text:00000d84 .Loc.533
     /tmp/cc2yKuMi.s:3048   .text:00000d96 .Loc.534
     /tmp/cc2yKuMi.s:3051   .text:00000d96 .Loc.535
     /tmp/cc2yKuMi.s:3052   .text:00000d96 .Loc.536
     /tmp/cc2yKuMi.s:3053   .text:00000d96 .Loc.537
     /tmp/cc2yKuMi.s:3054   .text:00000d96 .Loc.538
     /tmp/cc2yKuMi.s:3055   .text:00000d96 .Loc.539
     /tmp/cc2yKuMi.s:3066   .text:00000da8 .Loc.540
     /tmp/cc2yKuMi.s:3072   .text:00000db0 .Loc.541
     /tmp/cc2yKuMi.s:3080   .text:00000dbc .Loc.542
     /tmp/cc2yKuMi.s:3083   .text:00000dc0 .Loc.543
     /tmp/cc2yKuMi.s:3087   .text:00000dc4 .Loc.544
     /tmp/cc2yKuMi.s:3091   .text:00000dc6 .Loc.545
     /tmp/cc2yKuMi.s:3094   .text:00000dc6 .Loc.546
     /tmp/cc2yKuMi.s:3095   .text:00000dc6 .Loc.547
     /tmp/cc2yKuMi.s:3096   .text:00000dc6 .Loc.548
     /tmp/cc2yKuMi.s:3097   .text:00000dc6 .Loc.549
     /tmp/cc2yKuMi.s:3101   .text:00000dca .Loc.550
     /tmp/cc2yKuMi.s:3110   .text:00000dd8 .Loc.551
     /tmp/cc2yKuMi.s:3116   .text:00000de0 .Loc.552
     /tmp/cc2yKuMi.s:3117   .text:00000de0 .Loc.553
     /tmp/cc2yKuMi.s:3128   .text:00000df2 .Loc.554
     /tmp/cc2yKuMi.s:3140   .text:00000e06 .Loc.555
     /tmp/cc2yKuMi.s:3141   .text:00000e06 .Loc.556
     /tmp/cc2yKuMi.s:3152   .text:00000e18 .Loc.557
     /tmp/cc2yKuMi.s:3156   .text:00000e1c .Loc.558
     /tmp/cc2yKuMi.s:3166   .text:00000e2c .Loc.559
     /tmp/cc2yKuMi.s:3167   .text:00000e2c .Loc.560
     /tmp/cc2yKuMi.s:3170   .text:00000e2c .Loc.561
     /tmp/cc2yKuMi.s:3172   .text:00000e2c .Loc.562
     /tmp/cc2yKuMi.s:3173   .text:00000e2c .Loc.563
     /tmp/cc2yKuMi.s:3176   .text:00000e2c .Loc.564
     /tmp/cc2yKuMi.s:3180   .text:00000e30 .Loc.565
     /tmp/cc2yKuMi.s:3194   .text:00000e48 .Loc.566
     /tmp/cc2yKuMi.s:3198   .text:00000e4c .Loc.567
     /tmp/cc2yKuMi.s:3203   .text:00000e54 .Loc.568
     /tmp/cc2yKuMi.s:3208   .text:00000e5c .Loc.569
     /tmp/cc2yKuMi.s:3218   .text:00000e6a .Loc.570
     /tmp/cc2yKuMi.s:3223   .text:00000e72 .Loc.571
     /tmp/cc2yKuMi.s:3228   .text:00000e7a .Loc.572
     /tmp/cc2yKuMi.s:3235   .text:00000e84 .Loc.573
     /tmp/cc2yKuMi.s:3242   .text:00000e8c .Loc.574
     /tmp/cc2yKuMi.s:3245   .text:00000e90 .Loc.575
     /tmp/cc2yKuMi.s:3253   .text:00000e9c .Loc.576
     /tmp/cc2yKuMi.s:3256   .text:00000e9c .Loc.577
     /tmp/cc2yKuMi.s:3261   .text:00000ea6 L0
     /tmp/cc2yKuMi.s:3263   .text:00000eaa L0
     /tmp/cc2yKuMi.s:3269   .text:00000eb6 L0
     /tmp/cc2yKuMi.s:3275   .text:00000ec2 L0
     /tmp/cc2yKuMi.s:3280   .text:00000ecc L0
     /tmp/cc2yKuMi.s:3282   .text:00000ece .Loc.578
     /tmp/cc2yKuMi.s:3285   .text:00000ece .Loc.579
     /tmp/cc2yKuMi.s:3294   .text:00000edc .Loc.580
     /tmp/cc2yKuMi.s:3297   .text:00000edc .Loc.581
     /tmp/cc2yKuMi.s:3307   .text:00000eee .Loc.582
     /tmp/cc2yKuMi.s:3317   .text:00000f00 .Loc.583
     /tmp/cc2yKuMi.s:3331   .text:00000f1c L0
     /tmp/cc2yKuMi.s:3334   .text:00000f1e .Loc.584
     /tmp/cc2yKuMi.s:3335   .text:00000f1e .Loc.585
     /tmp/cc2yKuMi.s:3345   .text:00000f30 .Loc.586
     /tmp/cc2yKuMi.s:3346   .text:00000f30 .Loc.587
     /tmp/cc2yKuMi.s:3350   .text:00000f32 .Loc.588
     /tmp/cc2yKuMi.s:3367   .text:00000f54 L0
     /tmp/cc2yKuMi.s:3369   .text:00000f56 .Loc.589
     /tmp/cc2yKuMi.s:3370   .text:00000f56 .Loc.590
     /tmp/cc2yKuMi.s:3377   .text:00000f62 .Loc.591
     /tmp/cc2yKuMi.s:3385   .text:00000f70 .Loc.592
     /tmp/cc2yKuMi.s:3397   .text:00000f84 .Loc.593
     /tmp/cc2yKuMi.s:3402   .text:00000f8e L0
     /tmp/cc2yKuMi.s:3405   .text:00000f90 .Loc.594
     /tmp/cc2yKuMi.s:3406   .text:00000f90 .Loc.595
     /tmp/cc2yKuMi.s:3413   .text:00000f98 .Loc.596
     /tmp/cc2yKuMi.s:3416   .text:00000f98 .Loc.597
     /tmp/cc2yKuMi.s:3420   .text:00000f9a .Loc.598
     /tmp/cc2yKuMi.s:3422   .text:00000f9a .Loc.599
     /tmp/cc2yKuMi.s:3427   .text:00000fa2 .Loc.600
     /tmp/cc2yKuMi.s:3428   .text:00000fa2 .Loc.601
     /tmp/cc2yKuMi.s:3433   .text:00000fa4 .Loc.602
     /tmp/cc2yKuMi.s:3436   .text:00000fa4 .Loc.603
     /tmp/cc2yKuMi.s:3445   .text:00000fb2 .Loc.604
     /tmp/cc2yKuMi.s:3448   .text:00000fb2 .Loc.605
     /tmp/cc2yKuMi.s:3458   .text:00000fc4 .Loc.606
     /tmp/cc2yKuMi.s:3468   .text:00000fd6 .Loc.607
     /tmp/cc2yKuMi.s:3482   .text:00000ff2 L0
     /tmp/cc2yKuMi.s:3487   .text:00000ff6 .Loc.608
     /tmp/cc2yKuMi.s:3490   .text:00000ff6 .Loc.609
     /tmp/cc2yKuMi.s:3499   .text:00001004 .Loc.610
     /tmp/cc2yKuMi.s:3502   .text:00001004 .Loc.611
     /tmp/cc2yKuMi.s:3512   .text:00001016 .Loc.612
     /tmp/cc2yKuMi.s:3522   .text:00001028 .Loc.613
     /tmp/cc2yKuMi.s:3536   .text:00001044 L0
     /tmp/cc2yKuMi.s:3541   .text:00001048 .Loc.614
     /tmp/cc2yKuMi.s:3544   .text:00001048 .Loc.615
     /tmp/cc2yKuMi.s:3553   .text:00001056 .Loc.616
     /tmp/cc2yKuMi.s:3556   .text:00001056 .Loc.617
     /tmp/cc2yKuMi.s:3566   .text:00001068 .Loc.618
     /tmp/cc2yKuMi.s:3576   .text:0000107a .Loc.619
     /tmp/cc2yKuMi.s:3590   .text:00001096 L0
     /tmp/cc2yKuMi.s:3595   .text:0000109a .Loc.620
     /tmp/cc2yKuMi.s:3596   .text:0000109a .Loc.621
     /tmp/cc2yKuMi.s:3603   .text:000010a6 .Loc.622
     /tmp/cc2yKuMi.s:3609   .text:000010ae .Loc.623
     /tmp/cc2yKuMi.s:3613   .text:000010b4 .Loc.624
     /tmp/cc2yKuMi.s:3628   .text:000010d2 L0
     /tmp/cc2yKuMi.s:3633   .text:000010d6 .Loc.625
     /tmp/cc2yKuMi.s:3636   .text:000010d6 .Loc.626
     /tmp/cc2yKuMi.s:3637   .text:000010d6 .Loc.627
     /tmp/cc2yKuMi.s:3638   .text:000010d6 .Loc.628
     /tmp/cc2yKuMi.s:3639   .text:000010d6 .Loc.629
     /tmp/cc2yKuMi.s:3640   .text:000010d6 .Loc.630
     /tmp/cc2yKuMi.s:3641   .text:000010d6 .Loc.631
     /tmp/cc2yKuMi.s:3642   .text:000010d6 .Loc.632
     /tmp/cc2yKuMi.s:3648   .text:000010e0 .Loc.633
     /tmp/cc2yKuMi.s:3659   .text:000010f2 .Loc.634
     /tmp/cc2yKuMi.s:3665   .text:000010fa .Loc.635
     /tmp/cc2yKuMi.s:3673   .text:00001106 .Loc.636
     /tmp/cc2yKuMi.s:3676   .text:0000110a .Loc.637
     /tmp/cc2yKuMi.s:3683   .text:00001116 .Loc.638
     /tmp/cc2yKuMi.s:3688   .text:0000111e .Loc.639
     /tmp/cc2yKuMi.s:3689   .text:0000111e .Loc.640
     /tmp/cc2yKuMi.s:3693   .text:00001122 .Loc.641
     /tmp/cc2yKuMi.s:3703   .text:00001130 .Loc.642
     /tmp/cc2yKuMi.s:3709   .text:00001138 .Loc.643
     /tmp/cc2yKuMi.s:3721   .text:0000114a .Loc.644
     /tmp/cc2yKuMi.s:3727   .text:00001152 .Loc.645
     /tmp/cc2yKuMi.s:3732   .text:0000115a .Loc.646
     /tmp/cc2yKuMi.s:3739   .text:00001166 .Loc.647
     /tmp/cc2yKuMi.s:3744   .text:0000116e .Loc.648
     /tmp/cc2yKuMi.s:3754   .text:0000117c .Loc.649
     /tmp/cc2yKuMi.s:3759   .text:00001184 .Loc.650
     /tmp/cc2yKuMi.s:3764   .text:0000118c .Loc.651
     /tmp/cc2yKuMi.s:3778   .text:000011a6 .Loc.652
     /tmp/cc2yKuMi.s:3779   .text:000011a6 .Loc.653
     /tmp/cc2yKuMi.s:3783   .text:000011a8 .Loc.654
     /tmp/cc2yKuMi.s:3786   .text:000011a8 .Loc.655
     /tmp/cc2yKuMi.s:3787   .text:000011a8 .Loc.656
     /tmp/cc2yKuMi.s:3788   .text:000011a8 .Loc.657
     /tmp/cc2yKuMi.s:3789   .text:000011a8 .Loc.658
     /tmp/cc2yKuMi.s:3790   .text:000011a8 .Loc.659
     /tmp/cc2yKuMi.s:3791   .text:000011a8 .Loc.660
     /tmp/cc2yKuMi.s:3794   .text:000011a8 .Loc.661
     /tmp/cc2yKuMi.s:3796   .text:000011a8 .Loc.662
     /tmp/cc2yKuMi.s:3797   .text:000011a8 .Loc.663
     /tmp/cc2yKuMi.s:3798   .text:000011a8 .Loc.664
     /tmp/cc2yKuMi.s:3801   .text:000011a8 .Loc.665
     /tmp/cc2yKuMi.s:3802   .text:000011a8 .Loc.666
     /tmp/cc2yKuMi.s:3813   .text:000011ba .Loc.667
     /tmp/cc2yKuMi.s:3819   .text:000011c2 .Loc.668
     /tmp/cc2yKuMi.s:3829   .text:000011d4 .Loc.669
     /tmp/cc2yKuMi.s:3836   .text:000011de .Loc.670
     /tmp/cc2yKuMi.s:3841   .text:000011e6 .Loc.671
     /tmp/cc2yKuMi.s:3847   .text:000011f0 .Loc.672
     /tmp/cc2yKuMi.s:3848   .text:000011f0 .Loc.673
     /tmp/cc2yKuMi.s:3859   .text:00001202 .Loc.674
     /tmp/cc2yKuMi.s:3864   .text:00001204 .Loc.675
     /tmp/cc2yKuMi.s:3868   .text:00001208 .Loc.676
     /tmp/cc2yKuMi.s:3873   .text:0000120e .Loc.677
     /tmp/cc2yKuMi.s:3876   .text:0000120e .Loc.678
     /tmp/cc2yKuMi.s:3886   .text:0000121c .Loc.679
     /tmp/cc2yKuMi.s:3892   .text:00001224 .Loc.680
     /tmp/cc2yKuMi.s:3901   .text:00001234 .Loc.681
     /tmp/cc2yKuMi.s:3907   .text:0000123c .Loc.682
     /tmp/cc2yKuMi.s:3915   .text:00001246 .Loc.683
     /tmp/cc2yKuMi.s:3919   .text:00001246 .Loc.684
     /tmp/cc2yKuMi.s:3943   .text:00001270 .Loc.685
     /tmp/cc2yKuMi.s:3951   .text:0000127e L0
     /tmp/cc2yKuMi.s:3956   .text:0000127e process_setup
     /tmp/cc2yKuMi.s:3958   .text:0000127e .Loc.686
     /tmp/cc2yKuMi.s:3959   .text:0000127e L0
     /tmp/cc2yKuMi.s:3988   .text:0000128e .Loc.687
     /tmp/cc2yKuMi.s:4016   .text:000012c4 .Loc.688
     /tmp/cc2yKuMi.s:4032   .text:000012de L0
     /tmp/cc2yKuMi.s:4037   .text:000012de os_update
     /tmp/cc2yKuMi.s:4039   .text:000012de .Loc.689
     /tmp/cc2yKuMi.s:4040   .text:000012de L0
     /tmp/cc2yKuMi.s:4069   .text:000012ee .Loc.690
     /tmp/cc2yKuMi.s:4070   .text:000012ee .Loc.691
     /tmp/cc2yKuMi.s:4076   .text:000012fe .Loc.692
     /tmp/cc2yKuMi.s:4077   .text:000012fe .Loc.693
     /tmp/cc2yKuMi.s:4083   .text:00001308 .Loc.694
     /tmp/cc2yKuMi.s:4108   .text:00001338 .Loc.695
     /tmp/cc2yKuMi.s:4116   .text:00001340 .Loc.696
     /tmp/cc2yKuMi.s:4126   .text:00001352 L0
     /tmp/cc2yKuMi.s:4131   .text:00001352 keyboard_event
     /tmp/cc2yKuMi.s:4134   .text:00001352 .Loc.697
     /tmp/cc2yKuMi.s:4135   .text:00001352 L0
     /tmp/cc2yKuMi.s:4136   .text:00001352 .Loc.698
     /tmp/cc2yKuMi.s:4200   .text:00001388 .Loc.699
     /tmp/cc2yKuMi.s:4201   .text:00001388 .Loc.700
     /tmp/cc2yKuMi.s:4207   .text:00001398 .Loc.701
     /tmp/cc2yKuMi.s:4208   .text:00001398 .Loc.702
     /tmp/cc2yKuMi.s:4215   .text:000013a2 .Loc.703
     /tmp/cc2yKuMi.s:4216   .text:000013a2 .Loc.704
     /tmp/cc2yKuMi.s:4233   .text:000013c2 .Loc.705
     /tmp/cc2yKuMi.s:4252   .text:000013ec .Loc.706
     /tmp/cc2yKuMi.s:4259   .text:000013f8 .Loc.707
     /tmp/cc2yKuMi.s:4266   .text:00001400 .Loc.708
     /tmp/cc2yKuMi.s:4271   .text:00001400 .Loc.709
     /tmp/cc2yKuMi.s:4273   .text:00001400 .Loc.710
     /tmp/cc2yKuMi.s:4274   .text:00001400 .Loc.711
     /tmp/cc2yKuMi.s:4278   .text:00001404 .Loc.712
     /tmp/cc2yKuMi.s:4281   .text:00001404 .Loc.713
     /tmp/cc2yKuMi.s:4282   .text:00001404 .Loc.714
     /tmp/cc2yKuMi.s:4290   .text:00001412 .Loc.715
     /tmp/cc2yKuMi.s:4291   .text:00001412 .Loc.716
     /tmp/cc2yKuMi.s:4304   .text:00001422 .Loc.717
     /tmp/cc2yKuMi.s:4323   .text:00001444 .Loc.718
     /tmp/cc2yKuMi.s:4329   .text:0000144c .Loc.719
     /tmp/cc2yKuMi.s:4331   .text:0000144e L0
     /tmp/cc2yKuMi.s:4371   .text:0000144e L0
                     .debug_frame:00000000 L0
     /tmp/cc2yKuMi.s:63     .text:00000032 .L2
     /tmp/cc2yKuMi.s:177    .text:0000008c .L6
     /tmp/cc2yKuMi.s:155    .text:00000072 .L5
     /tmp/cc2yKuMi.s:355    .text:00000122 .L12
     /tmp/cc2yKuMi.s:372    .text:0000013c .L11
     /tmp/cc2yKuMi.s:319    .text:000000ea .L10
     /tmp/cc2yKuMi.s:874    .text:0000037e .L83
     /tmp/cc2yKuMi.s:1287   .text:00000554 .L19
     /tmp/cc2yKuMi.s:951    .text:000003d4 .L11
     /tmp/cc2yKuMi.s:976    .jumptables.gcc.emulator_call:00000000 .L21
     /tmp/cc2yKuMi.s:3419   .text:00000f9a .L97
     /tmp/cc2yKuMi.s:1082   .text:00000450 .L12
     /tmp/cc2yKuMi.s:1102   .text:0000046c .L13
     /tmp/cc2yKuMi.s:1123   .text:00000488 .L14
     /tmp/cc2yKuMi.s:1148   .text:0000049e .L15
     /tmp/cc2yKuMi.s:1373   .text:000005be .L32
     /tmp/cc2yKuMi.s:1270   .text:00000538 .L33
     /tmp/cc2yKuMi.s:1314   .text:00000576 .L84
     /tmp/cc2yKuMi.s:1057   .text:00000438 .L31
     /tmp/cc2yKuMi.s:1441   .text:00000608 .L36
     /tmp/cc2yKuMi.s:1501   .text:0000064e .L37
     /tmp/cc2yKuMi.s:3914   .text:00001246 .L86
     /tmp/cc2yKuMi.s:833    .text:00000344 .L18
     /tmp/cc2yKuMi.s:1247   .text:00000520 .L87
     /tmp/cc2yKuMi.s:1253   .text:00000522 .L89
     /tmp/cc2yKuMi.s:1432   .text:00000602 .L98
     /tmp/cc2yKuMi.s:1495   .text:00000648 .L99
     /tmp/cc2yKuMi.s:1573   .text:00000696 .L16
     /tmp/cc2yKuMi.s:1593   .text:000006b0 .L17
     /tmp/cc2yKuMi.s:1606   .text:000006c2 .L18
     /tmp/cc2yKuMi.s:1646   .text:000006f6 .L19
     /tmp/cc2yKuMi.s:1691   .text:00000730 .L38
     /tmp/cc2yKuMi.s:1682   .jumptables.gcc.emulator_call:0000003a .L40
     /tmp/cc2yKuMi.s:1767   .text:0000077a .L21
     /tmp/cc2yKuMi.s:1762   .text:00000772 .L110
     /tmp/cc2yKuMi.s:1261   .text:0000052e .L88
     /tmp/cc2yKuMi.s:1861   .text:000007d8 .L101
     /tmp/cc2yKuMi.s:1734   .text:00000750 .L90
     /tmp/cc2yKuMi.s:1921   .text:00000804 .L111
     /tmp/cc2yKuMi.s:1962   .text:0000083e .L49
     /tmp/cc2yKuMi.s:1958   .text:00000838 .L22
     /tmp/cc2yKuMi.s:1953   .text:00000830 .L112
     /tmp/cc2yKuMi.s:1771   .text:0000077e .L91
     /tmp/cc2yKuMi.s:1973   .text:00000848 .L23
     /tmp/cc2yKuMi.s:1968   .text:00000840 .L113
     /tmp/cc2yKuMi.s:2076   .text:00000898 .L114
     /tmp/cc2yKuMi.s:2133   .text:000008e2 .L115
     /tmp/cc2yKuMi.s:2152   .text:000008fe .L116
     /tmp/cc2yKuMi.s:2171   .text:00000918 .L117
     /tmp/cc2yKuMi.s:2200   .text:00000932 .L118
     /tmp/cc2yKuMi.s:2330   .text:000009dc .L50
     /tmp/cc2yKuMi.s:2415   .text:00000a38 .L51
     /tmp/cc2yKuMi.s:2401   .text:00000a32 .L95
     /tmp/cc2yKuMi.s:2316   .text:000009d0 .L94
     /tmp/cc2yKuMi.s:2485   .text:00000a94 .L119
     /tmp/cc2yKuMi.s:2504   .text:00000aae .L120
     /tmp/cc2yKuMi.s:2524   .text:00000ac8 .L121
     /tmp/cc2yKuMi.s:2539   .text:00000ada .L122
     /tmp/cc2yKuMi.s:2579   .text:00000b12 .L123
     /tmp/cc2yKuMi.s:2778   .text:00000c2c .L52
     /tmp/cc2yKuMi.s:2665   .text:00000b86 .L53
     /tmp/cc2yKuMi.s:2656   .jumptables.gcc.emulator_call:00000048 .L55
     /tmp/cc2yKuMi.s:2698   .text:00000bb8 .L92
     /tmp/cc2yKuMi.s:2683   .text:00000ba4 .L93
     /tmp/cc2yKuMi.s:2800   .text:00000c40 .L62
     /tmp/cc2yKuMi.s:2791   .jumptables.gcc.emulator_call:00000056 .L64
     /tmp/cc2yKuMi.s:2828   .text:00000c68 .L71
     /tmp/cc2yKuMi.s:2864   .text:00000c98 .L24
     /tmp/cc2yKuMi.s:2859   .text:00000c90 .L124
     /tmp/cc2yKuMi.s:1825   .text:000007b0 .L102
     /tmp/cc2yKuMi.s:2987   .text:00000d46 .L74
     /tmp/cc2yKuMi.s:2983   .text:00000d40 .L25
     /tmp/cc2yKuMi.s:2978   .text:00000d38 .L125
     /tmp/cc2yKuMi.s:2996   .text:00000d50 .L26
     /tmp/cc2yKuMi.s:2991   .text:00000d48 .L126
     /tmp/cc2yKuMi.s:3059   .text:00000d9c .L127
     /tmp/cc2yKuMi.s:3103   .text:00000dcc .L128
     /tmp/cc2yKuMi.s:3121   .text:00000de6 .L129
     /tmp/cc2yKuMi.s:3145   .text:00000e0c .L130
     /tmp/cc2yKuMi.s:3182   .text:00000e32 .L131
     /tmp/cc2yKuMi.s:3210   .text:00000e5e .L132
     /tmp/cc2yKuMi.s:3540   .text:00001048 .L75
     /tmp/cc2yKuMi.s:3349   .text:00000f32 .L76
     /tmp/cc2yKuMi.s:3431   .text:00000fa4 .L77
     /tmp/cc2yKuMi.s:3486   .text:00000ff6 .L78
     /tmp/cc2yKuMi.s:3594   .text:0000109a .L85
     /tmp/cc2yKuMi.s:3333   .text:00000f1e .L96
     /tmp/cc2yKuMi.s:3404   .text:00000f90 .L103
     /tmp/cc2yKuMi.s:3652   .text:000010e6 .L133
     /tmp/cc2yKuMi.s:3695   .text:00001124 .L134
     /tmp/cc2yKuMi.s:3713   .text:0000113e .L135
     /tmp/cc2yKuMi.s:3746   .text:00001170 .L136
     /tmp/cc2yKuMi.s:3806   .text:000011ae .L137
     /tmp/cc2yKuMi.s:3852   .text:000011f6 .L138
     /tmp/cc2yKuMi.s:3878   .text:00001210 .L139
     /tmp/cc2yKuMi.s:3412   .text:00000f98 .L100
     /tmp/cc2yKuMi.s:4114   .text:00001340 .L105
     /tmp/cc2yKuMi.s:4264   .text:00001400 .L111
     /tmp/cc2yKuMi.s:4302   .text:00001422 .L110
     /tmp/cc2yKuMi.s:4299   .text:00001420 .L113
     /tmp/cc2yKuMi.s:1073   .text:0000044a .L30
     /tmp/cc2yKuMi.s:1559   .text:00000690 .L29
     /tmp/cc2yKuMi.s:2064   .text:00000892 .L28
     /tmp/cc2yKuMi.s:2122   .text:000008dc .L27
     /tmp/cc2yKuMi.s:2473   .text:00000a8e .L26
     /tmp/cc2yKuMi.s:3047   .text:00000d96 .L25
     /tmp/cc2yKuMi.s:3090   .text:00000dc6 .L24
     /tmp/cc2yKuMi.s:3782   .text:000011a8 .L23
     /tmp/cc2yKuMi.s:3632   .text:000010d6 .L22
     /tmp/cc2yKuMi.s:1007   .text:000003fe .L20
     /tmp/cc2yKuMi.s:1743   .text:0000075a .L46
     /tmp/cc2yKuMi.s:1779   .text:00000788 .L45
     /tmp/cc2yKuMi.s:1834   .text:000007b6 .L44
     /tmp/cc2yKuMi.s:1871   .text:000007e0 .L43
     /tmp/cc2yKuMi.s:1917   .text:00000802 .L42
     /tmp/cc2yKuMi.s:1978   .text:0000084e .L41
     /tmp/cc2yKuMi.s:2021   .text:00000870 .L39
     /tmp/cc2yKuMi.s:2691   .text:00000bae .L61
     /tmp/cc2yKuMi.s:2712   .text:00000bce .L60
     /tmp/cc2yKuMi.s:2727   .text:00000be4 .L59
     /tmp/cc2yKuMi.s:2735   .text:00000bf0 .L58
     /tmp/cc2yKuMi.s:2747   .text:00000c00 .L57
     /tmp/cc2yKuMi.s:2760   .text:00000c12 .L56
     /tmp/cc2yKuMi.s:2766   .text:00000c1a .L54
     /tmp/cc2yKuMi.s:2837   .text:00000c72 .L70
     /tmp/cc2yKuMi.s:2869   .text:00000c9e .L69
     /tmp/cc2yKuMi.s:2896   .text:00000cc6 .L68
     /tmp/cc2yKuMi.s:2927   .text:00000cf2 .L67
     /tmp/cc2yKuMi.s:2950   .text:00000d12 .L66
     /tmp/cc2yKuMi.s:3001   .text:00000d56 .L65
     /tmp/cc2yKuMi.s:3024   .text:00000d76 .L63
     /tmp/cc2yKuMi.s:7972   .debug_abbrev:00000000 .Ldebug_abbrev0
     /tmp/cc2yKuMi.s:8      .text:00000000 .Ltext0
     /tmp/cc2yKuMi.s:4361   .text:0000144e .Letext0
     /tmp/cc2yKuMi.s:16206  .debug_line:00000000 .Ldebug_line0
     /tmp/cc2yKuMi.s:539    .text:00000204 .LFB30
     /tmp/cc2yKuMi.s:662    .text:000002ae .LFE30
     /tmp/cc2yKuMi.s:9143   .debug_loclists:00000012 .LLST15
     /tmp/cc2yKuMi.s:9136   .debug_loclists:0000000c .LVUS15
     /tmp/cc2yKuMi.s:632    .text:0000027e .LVL39
     /tmp/cc2yKuMi.s:236    .text:0000009e .LFB29
     /tmp/cc2yKuMi.s:430    .text:00000198 .LFE29
     /tmp/cc2yKuMi.s:9180   .debug_loclists:0000003b .LLST9
     /tmp/cc2yKuMi.s:9173   .debug_loclists:00000035 .LVUS9
     /tmp/cc2yKuMi.s:9213   .debug_loclists:00000060 .LLST10
     /tmp/cc2yKuMi.s:9210   .debug_loclists:0000005e .LVUS10
     /tmp/cc2yKuMi.s:9230   .debug_loclists:00000071 .LLST11
     /tmp/cc2yKuMi.s:9225   .debug_loclists:0000006d .LVUS11
     /tmp/cc2yKuMi.s:9269   .debug_loclists:0000009a .LLST12
     /tmp/cc2yKuMi.s:9264   .debug_loclists:00000096 .LVUS12
     /tmp/cc2yKuMi.s:389    .text:0000015a .LVL26
     /tmp/cc2yKuMi.s:396    .text:00000166 .LVL27
     /tmp/cc2yKuMi.s:105    .text:00000048 .LFB28
     /tmp/cc2yKuMi.s:188    .text:00000090 .LFE28
     /tmp/cc2yKuMi.s:9312   .debug_loclists:000000c7 .LLST4
     /tmp/cc2yKuMi.s:9303   .debug_loclists:000000bf .LVUS4
     /tmp/cc2yKuMi.s:134    .text:0000005e .LBI36
     /tmp/cc2yKuMi.s:15940  .debug_rnglists:0000000c .LLRL5
     /tmp/cc2yKuMi.s:9363   .debug_loclists:000000fb .LLST6
     /tmp/cc2yKuMi.s:9352   .debug_loclists:000000f1 .LVUS6
     /tmp/cc2yKuMi.s:217    .text:0000009a .LFB27
     /tmp/cc2yKuMi.s:230    .text:0000009e .LFE27
     /tmp/cc2yKuMi.s:9421   .debug_loclists:00000137 .LLST8
     /tmp/cc2yKuMi.s:9416   .debug_loclists:00000133 .LVUS8
     /tmp/cc2yKuMi.s:227    .text:0000009e .LVL18
     /tmp/cc2yKuMi.s:453    .text:0000019c .LFB26
     /tmp/cc2yKuMi.s:534    .text:00000204 .LFE26
     /tmp/cc2yKuMi.s:9450   .debug_loclists:00000156 .LLST14
     /tmp/cc2yKuMi.s:9441   .debug_loclists:0000014e .LVUS14
     /tmp/cc2yKuMi.s:491    .text:000001be .LVL34
     /tmp/cc2yKuMi.s:515    .text:000001e8 .LVL36
     /tmp/cc2yKuMi.s:435    .text:00000198 .LFB25
     /tmp/cc2yKuMi.s:448    .text:0000019c .LFE25
     /tmp/cc2yKuMi.s:9495   .debug_loclists:00000189 .LLST13
     /tmp/cc2yKuMi.s:9490   .debug_loclists:00000185 .LVUS13
     /tmp/cc2yKuMi.s:445    .text:0000019c .LVL31
     /tmp/cc2yKuMi.s:77     .text:0000003a .LFB24
     /tmp/cc2yKuMi.s:99     .text:00000048 .LFE24
     /tmp/cc2yKuMi.s:9520   .debug_loclists:000001a4 .LLST3
     /tmp/cc2yKuMi.s:9515   .debug_loclists:000001a0 .LVUS3
     /tmp/cc2yKuMi.s:194    .text:00000090 .LFB23
     /tmp/cc2yKuMi.s:211    .text:0000009a .LFE23
     /tmp/cc2yKuMi.s:9547   .debug_loclists:000001bd .LLST7
     /tmp/cc2yKuMi.s:9540   .debug_loclists:000001b7 .LVUS7
     /tmp/cc2yKuMi.s:208    .text:0000009a .LVL16
     /tmp/cc2yKuMi.s:4133   .text:00001352 .LFB13
     /tmp/cc2yKuMi.s:4332   .text:0000144e .LFE13
     /tmp/cc2yKuMi.s:9584   .debug_loclists:000001e6 .LLST127
     /tmp/cc2yKuMi.s:9577   .debug_loclists:000001e0 .LVUS127
     /tmp/cc2yKuMi.s:9631   .debug_loclists:00000219 .LLST128
     /tmp/cc2yKuMi.s:9626   .debug_loclists:00000215 .LVUS128
     /tmp/cc2yKuMi.s:9664   .debug_loclists:0000023c .LLST129
     /tmp/cc2yKuMi.s:9657   .debug_loclists:00000236 .LVUS129
     /tmp/cc2yKuMi.s:9687   .debug_loclists:00000257 .LLST130
     /tmp/cc2yKuMi.s:9684   .debug_loclists:00000255 .LVUS130
     /tmp/cc2yKuMi.s:4214   .text:000013a2 .LBB232
     /tmp/cc2yKuMi.s:4265   .text:00001400 .LBE232
     /tmp/cc2yKuMi.s:4258   .text:000013f8 .LVL249
     /tmp/cc2yKuMi.s:4269   .text:00001400 .LBI233
     /tmp/cc2yKuMi.s:4268   .text:00001400 .LBB233
     /tmp/cc2yKuMi.s:4280   .text:00001404 .LBE233
     /tmp/cc2yKuMi.s:9708   .debug_loclists:0000026c .LLST131
     /tmp/cc2yKuMi.s:9705   .debug_loclists:0000026a .LVUS131
     /tmp/cc2yKuMi.s:15     .text:00000000 .LFB12
     /tmp/cc2yKuMi.s:72     .text:0000003a .LFE12
     /tmp/cc2yKuMi.s:9733   .debug_loclists:00000285 .LLST0
     /tmp/cc2yKuMi.s:9726   .debug_loclists:0000027f .LVUS0
     /tmp/cc2yKuMi.s:9770   .debug_loclists:000002a8 .LLST1
     /tmp/cc2yKuMi.s:9763   .debug_loclists:000002a2 .LVUS1
     /tmp/cc2yKuMi.s:9806   .debug_loclists:000002ca .LLST2
     /tmp/cc2yKuMi.s:9801   .debug_loclists:000002c6 .LVUS2
     /tmp/cc2yKuMi.s:4038   .text:000012de .LFB11
     /tmp/cc2yKuMi.s:4127   .text:00001352 .LFE11
     /tmp/cc2yKuMi.s:9833   .debug_loclists:000002e3 .LLST126
     /tmp/cc2yKuMi.s:9830   .debug_loclists:000002e1 .LVUS126
     /tmp/cc2yKuMi.s:4107   .text:00001338 .LVL245
     /tmp/cc2yKuMi.s:3957   .text:0000127e .LFB10
     /tmp/cc2yKuMi.s:4033   .text:000012de .LFE10
     /tmp/cc2yKuMi.s:4015   .text:000012c4 .LVL243
     /tmp/cc2yKuMi.s:667    .text:000002ae .LFB9
     /tmp/cc2yKuMi.s:686    .text:000002c4 .LFE9
     /tmp/cc2yKuMi.s:677    .text:000002b2 .LVL40
     /tmp/cc2yKuMi.s:696    .text:000002c4 .LFB33
     /tmp/cc2yKuMi.s:3952   .text:0000127e .LFE33
     /tmp/cc2yKuMi.s:9858   .debug_loclists:000002fc .LLST16
     /tmp/cc2yKuMi.s:9851   .debug_loclists:000002f6 .LVUS16
     /tmp/cc2yKuMi.s:9901   .debug_loclists:0000032b .LLST17
     /tmp/cc2yKuMi.s:9892   .debug_loclists:00000323 .LVUS17
     /tmp/cc2yKuMi.s:9944   .debug_loclists:0000035c .LLST18
     /tmp/cc2yKuMi.s:9939   .debug_loclists:00000358 .LVUS18
     /tmp/cc2yKuMi.s:9969   .debug_loclists:00000377 .LLST19
     /tmp/cc2yKuMi.s:9964   .debug_loclists:00000373 .LVUS19
     /tmp/cc2yKuMi.s:10000  .debug_loclists:00000398 .LLST20
     /tmp/cc2yKuMi.s:9995   .debug_loclists:00000394 .LVUS20
     /tmp/cc2yKuMi.s:10063  .debug_loclists:000003d9 .LLST21
     /tmp/cc2yKuMi.s:10026  .debug_loclists:000003b5 .LVUS21
     /tmp/cc2yKuMi.s:880    .text:0000037e .LBI118
     /tmp/cc2yKuMi.s:15948  .debug_rnglists:00000015 .LLRL22
     /tmp/cc2yKuMi.s:10258  .debug_loclists:000004be .LLST23
     /tmp/cc2yKuMi.s:10253  .debug_loclists:000004ba .LVUS23
     /tmp/cc2yKuMi.s:10357  .debug_loclists:00000523 .LLST24
     /tmp/cc2yKuMi.s:10280  .debug_loclists:000004d7 .LVUS24
     /tmp/cc2yKuMi.s:10826  .debug_loclists:00000742 .LLST25
     /tmp/cc2yKuMi.s:10737  .debug_loclists:000006ea .LVUS25
     /tmp/cc2yKuMi.s:886    .text:0000037e .LBI120
     /tmp/cc2yKuMi.s:15959  .debug_rnglists:00000025 .LLRL26
     /tmp/cc2yKuMi.s:11379  .debug_loclists:000009c1 .LLST27
     /tmp/cc2yKuMi.s:11376  .debug_loclists:000009bf .LVUS27
     /tmp/cc2yKuMi.s:908    .text:000003a2 .LVL52
     /tmp/cc2yKuMi.s:1018   .text:0000040a .LBI124
     /tmp/cc2yKuMi.s:1017   .text:0000040a .LBB124
     /tmp/cc2yKuMi.s:1060   .text:00000438 .LBE124
     /tmp/cc2yKuMi.s:11390  .debug_loclists:000009cc .LLST28
     /tmp/cc2yKuMi.s:11387  .debug_loclists:000009ca .LVUS28
     /tmp/cc2yKuMi.s:11409  .debug_loclists:000009df .LLST29
     /tmp/cc2yKuMi.s:11402  .debug_loclists:000009d9 .LVUS29
     /tmp/cc2yKuMi.s:1046   .text:0000042a .LVL60
     /tmp/cc2yKuMi.s:15967  .debug_rnglists:00000030 .LLRL30
     /tmp/cc2yKuMi.s:11454  .debug_loclists:00000a10 .LLST31
     /tmp/cc2yKuMi.s:11441  .debug_loclists:00000a04 .LVUS31
     /tmp/cc2yKuMi.s:11573  .debug_loclists:00000a91 .LLST32
     /tmp/cc2yKuMi.s:11552  .debug_loclists:00000a7d .LVUS32
     /tmp/cc2yKuMi.s:11738  .debug_loclists:00000b48 .LLST33
     /tmp/cc2yKuMi.s:11715  .debug_loclists:00000b32 .LVUS33
     /tmp/cc2yKuMi.s:11915  .debug_loclists:00000c0d .LLST34
     /tmp/cc2yKuMi.s:11896  .debug_loclists:00000bfb .LVUS34
     /tmp/cc2yKuMi.s:1139   .text:0000049c .LBI127
     /tmp/cc2yKuMi.s:15981  .debug_rnglists:00000045 .LLRL35
     /tmp/cc2yKuMi.s:12019  .debug_loclists:00000c92 .LLST36
     /tmp/cc2yKuMi.s:12012  .debug_loclists:00000c8c .LVUS36
     /tmp/cc2yKuMi.s:12059  .debug_loclists:00000cbf .LLST37
     /tmp/cc2yKuMi.s:12056  .debug_loclists:00000cbd .LVUS37
     /tmp/cc2yKuMi.s:12070  .debug_loclists:00000cca .LLST38
     /tmp/cc2yKuMi.s:12067  .debug_loclists:00000cc8 .LVUS38
     /tmp/cc2yKuMi.s:1195   .text:000004da .LBI131
     /tmp/cc2yKuMi.s:15989  .debug_rnglists:00000050 .LLRL39
     /tmp/cc2yKuMi.s:12082  .debug_loclists:00000cd7 .LLST40
     /tmp/cc2yKuMi.s:12079  .debug_loclists:00000cd5 .LVUS40
     /tmp/cc2yKuMi.s:1237   .text:00000514 .LVL73
     /tmp/cc2yKuMi.s:1320   .text:00000576 .LBI135
     /tmp/cc2yKuMi.s:15997  .debug_rnglists:0000005b .LLRL41
     /tmp/cc2yKuMi.s:12110  .debug_loclists:00000cf3 .LLST42
     /tmp/cc2yKuMi.s:12107  .debug_loclists:00000cf1 .LVUS42
     /tmp/cc2yKuMi.s:1362   .text:000005b0 .LVL81
     /tmp/cc2yKuMi.s:1379   .text:000005be .LBI139
     /tmp/cc2yKuMi.s:16005  .debug_rnglists:00000066 .LLRL43
     /tmp/cc2yKuMi.s:12140  .debug_loclists:00000d11 .LLST44
     /tmp/cc2yKuMi.s:12135  .debug_loclists:00000d0d .LVUS44
     /tmp/cc2yKuMi.s:1424   .text:000005fa .LVL85
     /tmp/cc2yKuMi.s:1444   .text:00000608 .LBI143
     /tmp/cc2yKuMi.s:16013  .debug_rnglists:00000071 .LLRL45
     /tmp/cc2yKuMi.s:12186  .debug_loclists:00000d41 .LLST46
     /tmp/cc2yKuMi.s:12181  .debug_loclists:00000d3d .LVUS46
     /tmp/cc2yKuMi.s:1489   .text:00000644 .LVL90
     /tmp/cc2yKuMi.s:1507   .text:0000064e .LBI147
     /tmp/cc2yKuMi.s:16021  .debug_rnglists:0000007c .LLRL47
     /tmp/cc2yKuMi.s:12232  .debug_loclists:00000d71 .LLST48
     /tmp/cc2yKuMi.s:12227  .debug_loclists:00000d6d .LVUS48
     /tmp/cc2yKuMi.s:1552   .text:0000068a .LVL95
     /tmp/cc2yKuMi.s:16029  .debug_rnglists:00000087 .LLRL49
     /tmp/cc2yKuMi.s:12304  .debug_loclists:00000dbb .LLST50
     /tmp/cc2yKuMi.s:12273  .debug_loclists:00000d9d .LVUS50
     /tmp/cc2yKuMi.s:12493  .debug_loclists:00000e94 .LLST51
     /tmp/cc2yKuMi.s:12482  .debug_loclists:00000e8a .LVUS51
     /tmp/cc2yKuMi.s:12604  .debug_loclists:00000f0b .LLST52
     /tmp/cc2yKuMi.s:12543  .debug_loclists:00000ecf .LVUS52
     /tmp/cc2yKuMi.s:1695   .text:00000730 .LBI153
     /tmp/cc2yKuMi.s:16043  .debug_rnglists:0000009c .LLRL53
     /tmp/cc2yKuMi.s:13055  .debug_loclists:00001122 .LLST54
     /tmp/cc2yKuMi.s:13052  .debug_loclists:00001120 .LVUS54
     /tmp/cc2yKuMi.s:13076  .debug_loclists:00001137 .LLST55
     /tmp/cc2yKuMi.s:13073  .debug_loclists:00001135 .LVUS55
     /tmp/cc2yKuMi.s:13087  .debug_loclists:00001142 .LLST56
     /tmp/cc2yKuMi.s:13084  .debug_loclists:00001140 .LVUS56
     /tmp/cc2yKuMi.s:1782   .text:00000788 .LBI157
     /tmp/cc2yKuMi.s:16051  .debug_rnglists:000000a7 .LLRL57
     /tmp/cc2yKuMi.s:13099  .debug_loclists:0000114f .LLST58
     /tmp/cc2yKuMi.s:13096  .debug_loclists:0000114d .LVUS58
     /tmp/cc2yKuMi.s:13120  .debug_loclists:00001164 .LLST59
     /tmp/cc2yKuMi.s:13117  .debug_loclists:00001162 .LVUS59
     /tmp/cc2yKuMi.s:13131  .debug_loclists:0000116f .LLST60
     /tmp/cc2yKuMi.s:13128  .debug_loclists:0000116d .LVUS60
     /tmp/cc2yKuMi.s:1877   .text:000007e0 .LBI161
     /tmp/cc2yKuMi.s:16059  .debug_rnglists:000000b2 .LLRL61
     /tmp/cc2yKuMi.s:13143  .debug_loclists:0000117c .LLST62
     /tmp/cc2yKuMi.s:13140  .debug_loclists:0000117a .LVUS62
     /tmp/cc2yKuMi.s:13164  .debug_loclists:00001191 .LLST63
     /tmp/cc2yKuMi.s:13161  .debug_loclists:0000118f .LVUS63
     /tmp/cc2yKuMi.s:13175  .debug_loclists:0000119c .LLST64
     /tmp/cc2yKuMi.s:13172  .debug_loclists:0000119a .LVUS64
     /tmp/cc2yKuMi.s:1981   .text:0000084e .LBI165
     /tmp/cc2yKuMi.s:16067  .debug_rnglists:000000bd .LLRL65
     /tmp/cc2yKuMi.s:13187  .debug_loclists:000011a9 .LLST66
     /tmp/cc2yKuMi.s:13184  .debug_loclists:000011a7 .LVUS66
     /tmp/cc2yKuMi.s:13208  .debug_loclists:000011be .LLST67
     /tmp/cc2yKuMi.s:13205  .debug_loclists:000011bc .LVUS67
     /tmp/cc2yKuMi.s:13219  .debug_loclists:000011c9 .LLST68
     /tmp/cc2yKuMi.s:13216  .debug_loclists:000011c7 .LVUS68
     /tmp/cc2yKuMi.s:2024   .text:00000870 .LBI169
     /tmp/cc2yKuMi.s:16075  .debug_rnglists:000000c8 .LLRL69
     /tmp/cc2yKuMi.s:13231  .debug_loclists:000011d6 .LLST70
     /tmp/cc2yKuMi.s:13228  .debug_loclists:000011d4 .LVUS70
     /tmp/cc2yKuMi.s:13252  .debug_loclists:000011eb .LLST71
     /tmp/cc2yKuMi.s:13249  .debug_loclists:000011e9 .LVUS71
     /tmp/cc2yKuMi.s:13263  .debug_loclists:000011f6 .LLST72
     /tmp/cc2yKuMi.s:13260  .debug_loclists:000011f4 .LVUS72
     /tmp/cc2yKuMi.s:16083  .debug_rnglists:000000d3 .LLRL73
     /tmp/cc2yKuMi.s:13281  .debug_loclists:00001209 .LLST74
     /tmp/cc2yKuMi.s:13272  .debug_loclists:00001201 .LVUS74
     /tmp/cc2yKuMi.s:13370  .debug_loclists:00001268 .LLST75
     /tmp/cc2yKuMi.s:13333  .debug_loclists:00001244 .LVUS75
     /tmp/cc2yKuMi.s:13626  .debug_loclists:0000138a .LLST76
     /tmp/cc2yKuMi.s:13619  .debug_loclists:00001384 .LVUS76
     /tmp/cc2yKuMi.s:13670  .debug_loclists:000013ba .LLST77
     /tmp/cc2yKuMi.s:13663  .debug_loclists:000013b4 .LVUS77
     /tmp/cc2yKuMi.s:16100  .debug_rnglists:000000ed .LLRL78
     /tmp/cc2yKuMi.s:13723  .debug_loclists:000013f3 .LLST79
     /tmp/cc2yKuMi.s:13714  .debug_loclists:000013eb .LVUS79
     /tmp/cc2yKuMi.s:13780  .debug_loclists:00001432 .LLST80
     /tmp/cc2yKuMi.s:13775  .debug_loclists:0000142e .LVUS80
     /tmp/cc2yKuMi.s:16117  .debug_rnglists:00000107 .LLRL81
     /tmp/cc2yKuMi.s:13814  .debug_loclists:00001456 .LLST82
     /tmp/cc2yKuMi.s:13801  .debug_loclists:0000144a .LVUS82
     /tmp/cc2yKuMi.s:13968  .debug_loclists:00001503 .LLST83
     /tmp/cc2yKuMi.s:13945  .debug_loclists:000014ed .LVUS83
     /tmp/cc2yKuMi.s:14152  .debug_loclists:000015dc .LLST84
     /tmp/cc2yKuMi.s:14145  .debug_loclists:000015d6 .LVUS84
     /tmp/cc2yKuMi.s:2191   .text:00000930 .LBI181
     /tmp/cc2yKuMi.s:16125  .debug_rnglists:00000112 .LLRL85
     /tmp/cc2yKuMi.s:14209  .debug_loclists:00001619 .LLST86
     /tmp/cc2yKuMi.s:14198  .debug_loclists:0000160f .LVUS86
     /tmp/cc2yKuMi.s:14296  .debug_loclists:0000167c .LLST87
     /tmp/cc2yKuMi.s:14293  .debug_loclists:0000167a .LVUS87
     /tmp/cc2yKuMi.s:14307  .debug_loclists:00001687 .LLST88
     /tmp/cc2yKuMi.s:14304  .debug_loclists:00001685 .LVUS88
     /tmp/cc2yKuMi.s:2287   .text:000009b4 .LBI185
     /tmp/cc2yKuMi.s:16133  .debug_rnglists:0000011d .LLRL89
     /tmp/cc2yKuMi.s:14319  .debug_loclists:00001694 .LLST90
     /tmp/cc2yKuMi.s:14316  .debug_loclists:00001692 .LVUS90
     /tmp/cc2yKuMi.s:14335  .debug_loclists:000016a4 .LLST91
     /tmp/cc2yKuMi.s:14332  .debug_loclists:000016a2 .LVUS91
     /tmp/cc2yKuMi.s:2463   .text:00000a84 .LBI189
     /tmp/cc2yKuMi.s:16141  .debug_rnglists:00000128 .LLRL92
     /tmp/cc2yKuMi.s:14356  .debug_loclists:000016b9 .LLST93
     /tmp/cc2yKuMi.s:14353  .debug_loclists:000016b7 .LVUS93
     /tmp/cc2yKuMi.s:14377  .debug_loclists:000016ce .LLST94
     /tmp/cc2yKuMi.s:14374  .debug_loclists:000016cc .LVUS94
     /tmp/cc2yKuMi.s:2409   .text:00000a36 .LVL163
     /tmp/cc2yKuMi.s:2363   .text:00000a08 .LBI193
     /tmp/cc2yKuMi.s:16152  .debug_rnglists:00000138 .LLRL95
     /tmp/cc2yKuMi.s:14398  .debug_loclists:000016e3 .LLST96
     /tmp/cc2yKuMi.s:14395  .debug_loclists:000016e1 .LVUS96
     /tmp/cc2yKuMi.s:14414  .debug_loclists:000016f3 .LLST97
     /tmp/cc2yKuMi.s:14411  .debug_loclists:000016f1 .LVUS97
     /tmp/cc2yKuMi.s:3050   .text:00000d96 .LBB204
     /tmp/cc2yKuMi.s:3092   .text:00000dc6 .LBE204
     /tmp/cc2yKuMi.s:14437  .debug_loclists:0000170a .LLST98
     /tmp/cc2yKuMi.s:14432  .debug_loclists:00001706 .LVUS98
     /tmp/cc2yKuMi.s:14471  .debug_loclists:0000172e .LLST99
     /tmp/cc2yKuMi.s:14466  .debug_loclists:0000172a .LVUS99
     /tmp/cc2yKuMi.s:16160  .debug_rnglists:00000143 .LLRL100
     /tmp/cc2yKuMi.s:14497  .debug_loclists:0000174a .LLST101
     /tmp/cc2yKuMi.s:14492  .debug_loclists:00001746 .LVUS101
     /tmp/cc2yKuMi.s:14540  .debug_loclists:00001777 .LLST102
     /tmp/cc2yKuMi.s:14531  .debug_loclists:0000176f .LVUS102
     /tmp/cc2yKuMi.s:14679  .debug_loclists:00001810 .LLST103
     /tmp/cc2yKuMi.s:14672  .debug_loclists:0000180a .LVUS103
     /tmp/cc2yKuMi.s:14716  .debug_loclists:00001839 .LLST104
     /tmp/cc2yKuMi.s:14709  .debug_loclists:00001833 .LVUS104
     /tmp/cc2yKuMi.s:14771  .debug_loclists:00001874 .LLST105
     /tmp/cc2yKuMi.s:14746  .debug_loclists:0000185c .LVUS105
     /tmp/cc2yKuMi.s:3169   .text:00000e2c .LBI206
     /tmp/cc2yKuMi.s:16180  .debug_rnglists:00000162 .LLRL106
     /tmp/cc2yKuMi.s:14948  .debug_loclists:0000193b .LLST107
     /tmp/cc2yKuMi.s:14941  .debug_loclists:00001935 .LVUS107
     /tmp/cc2yKuMi.s:15047  .debug_loclists:000019a8 .LLST108
     /tmp/cc2yKuMi.s:15044  .debug_loclists:000019a6 .LVUS108
     /tmp/cc2yKuMi.s:15058  .debug_loclists:000019b3 .LLST109
     /tmp/cc2yKuMi.s:15055  .debug_loclists:000019b1 .LVUS109
     /tmp/cc2yKuMi.s:16188  .debug_rnglists:0000016d .LLRL110
     /tmp/cc2yKuMi.s:15072  .debug_loclists:000019c2 .LLST111
     /tmp/cc2yKuMi.s:15067  .debug_loclists:000019be .LVUS111
     /tmp/cc2yKuMi.s:15117  .debug_loclists:000019f3 .LLST112
     /tmp/cc2yKuMi.s:15108  .debug_loclists:000019eb .LVUS112
     /tmp/cc2yKuMi.s:15178  .debug_loclists:00001a36 .LLST113
     /tmp/cc2yKuMi.s:15169  .debug_loclists:00001a2e .LVUS113
     /tmp/cc2yKuMi.s:15240  .debug_loclists:00001a7a .LLST114
     /tmp/cc2yKuMi.s:15231  .debug_loclists:00001a72 .LVUS114
     /tmp/cc2yKuMi.s:3793   .text:000011a8 .LBI213
     /tmp/cc2yKuMi.s:16196  .debug_rnglists:00000178 .LLRL115
     /tmp/cc2yKuMi.s:15293  .debug_loclists:00001ab8 .LLST116
     /tmp/cc2yKuMi.s:15290  .debug_loclists:00001ab6 .LVUS116
     /tmp/cc2yKuMi.s:15310  .debug_loclists:00001ac9 .LLST117
     /tmp/cc2yKuMi.s:15307  .debug_loclists:00001ac7 .LVUS117
     /tmp/cc2yKuMi.s:15321  .debug_loclists:00001ad4 .LLST118
     /tmp/cc2yKuMi.s:15318  .debug_loclists:00001ad2 .LVUS118
     /tmp/cc2yKuMi.s:3635   .text:000010d6 .LBB224
     /tmp/cc2yKuMi.s:3784   .text:000011a8 .LBE224
     /tmp/cc2yKuMi.s:15343  .debug_loclists:00001aeb .LLST119
     /tmp/cc2yKuMi.s:15330  .debug_loclists:00001adf .LVUS119
     /tmp/cc2yKuMi.s:15576  .debug_loclists:00001bea .LLST120
     /tmp/cc2yKuMi.s:15567  .debug_loclists:00001be2 .LVUS120
     /tmp/cc2yKuMi.s:15641  .debug_loclists:00001c31 .LLST121
     /tmp/cc2yKuMi.s:15628  .debug_loclists:00001c25 .LVUS121
     /tmp/cc2yKuMi.s:852    .text:0000035e .LBI228
     /tmp/cc2yKuMi.s:851    .text:0000035e .LBB228
     /tmp/cc2yKuMi.s:877    .text:0000037e .LBE228
     /tmp/cc2yKuMi.s:15868  .debug_loclists:00001d2a .LLST122
     /tmp/cc2yKuMi.s:15865  .debug_loclists:00001d28 .LVUS122
     /tmp/cc2yKuMi.s:15883  .debug_loclists:00001d39 .LLST123
     /tmp/cc2yKuMi.s:15880  .debug_loclists:00001d37 .LVUS123
     /tmp/cc2yKuMi.s:15896  .debug_loclists:00001d46 .LLST124
     /tmp/cc2yKuMi.s:15893  .debug_loclists:00001d44 .LVUS124
     /tmp/cc2yKuMi.s:15909  .debug_loclists:00001d53 .LLST125
     /tmp/cc2yKuMi.s:15906  .debug_loclists:00001d51 .LVUS125
     /tmp/cc2yKuMi.s:868    .text:00000376 .LVL50
     /tmp/cc2yKuMi.s:873    .text:0000037e .LVL51
     /tmp/cc2yKuMi.s:802    .text:00000326 .LVL44
     /tmp/cc2yKuMi.s:4372   .debug_info:00000000 .Ldebug_info0

UNDEFINED SYMBOLS
exit
random_get
memory_read
serial_write
millis
datetime_now
memory_write
gfx_rect
memory_size
memcpy
__iob
fprintf
__tablejump2__
__mulsi3
__umulsidi3
__ashrdi3
__lshrdi3
__divmodsi4
__udivmodsi4
syscall_gfx_image_rgba
syscall_gfx_image_rgb
syscall_gfx_image_rgb565
syscall_gfx_image_grayscale
syscall_gfx_image_1bit
__do_copy_data
__do_clear_bss
