   1               		.file	"emulator.c"
   2               	__SP_H__ = 0x3e
   3               	__SP_L__ = 0x3d
   4               	__SREG__ = 0x3f
   5               	__tmp_reg__ = 0
   6               	__zero_reg__ = 1
   7               		.text
   8               	.Ltext0:
   9               		.cfi_sections	.debug_frame
  10               		.file 0 "/home/files/osdev/platform/avr" "../../emulator/emulator.c"
  12               	syscall_exit:
  13               	.LVL0:
  14               	.LFB20:
  15               		.file 1 "../../emulator/emulator.c"
   1:../../emulator/emulator.c **** #include <types.h>
   2:../../emulator/emulator.c **** #include <platform.h>
   3:../../emulator/emulator.c **** #include <emulator.h>
   4:../../emulator/emulator.c **** 
   5:../../emulator/emulator.c **** #include <stdio.h>
   6:../../emulator/emulator.c **** #include <stdlib.h>
   7:../../emulator/emulator.c **** #include <string.h>
   8:../../emulator/emulator.c **** 
   9:../../emulator/emulator.c **** #include <time.h>
  10:../../emulator/emulator.c **** #include <util.h>
  11:../../emulator/emulator.c **** 
  12:../../emulator/emulator.c **** /* --- LOGGING --- */
  13:../../emulator/emulator.c **** #ifdef DEBUG
  14:../../emulator/emulator.c **** 
  15:../../emulator/emulator.c **** #ifdef __linux__
  16:../../emulator/emulator.c **** 
  17:../../emulator/emulator.c **** #define EMU_LOG(...) { printf(__VA_ARGS__); fputc('\n', stdout); }
  18:../../emulator/emulator.c **** #define PSTR(X) X
  19:../../emulator/emulator.c **** 
  20:../../emulator/emulator.c **** #else /* __linux__ */
  21:../../emulator/emulator.c **** 
  22:../../emulator/emulator.c **** #include <logger.h>
  23:../../emulator/emulator.c **** #include <avr/pgmspace.h>
  24:../../emulator/emulator.c **** 
  25:../../emulator/emulator.c **** #define EMU_LOG(...) log_boot_P(LOG_EXT, __VA_ARGS__)
  26:../../emulator/emulator.c **** 
  27:../../emulator/emulator.c **** #endif /* __linux__ */
  28:../../emulator/emulator.c **** 
  29:../../emulator/emulator.c **** static void emulator_dump_registers(Emulator *emu)
  30:../../emulator/emulator.c **** {
  31:../../emulator/emulator.c **** 	EMU_LOG(PSTR("\nPC  0x%08"PRIx32" %10d"), emu->PC, emu->PC);
  32:../../emulator/emulator.c **** 	for(i32 i = 0; i < 32; ++i)
  33:../../emulator/emulator.c **** 	{
  34:../../emulator/emulator.c **** 		EMU_LOG(PSTR("r%"PRIu8"%s 0x%08"PRIx32" %10d"), i, i < 10 ? " " : "",
  35:../../emulator/emulator.c **** 			emu->Registers[i], emu->Registers[i]);
  36:../../emulator/emulator.c **** 	}
  37:../../emulator/emulator.c **** }
  38:../../emulator/emulator.c **** 
  39:../../emulator/emulator.c **** #else /* DEBUG */
  40:../../emulator/emulator.c **** 
  41:../../emulator/emulator.c **** #define EMU_LOG(...)
  42:../../emulator/emulator.c **** 
  43:../../emulator/emulator.c **** #endif /* DEBUG */
  44:../../emulator/emulator.c **** 
  45:../../emulator/emulator.c **** /* --- OPCODES --- */
  46:../../emulator/emulator.c **** #define OPCODE_LOAD   0x00
  47:../../emulator/emulator.c **** #define OPCODE_IMM    0x04
  48:../../emulator/emulator.c **** #define OPCODE_AUIPC  0x05 /* Add Upper Immediate to Program Counter */
  49:../../emulator/emulator.c **** #define OPCODE_STORE  0x08
  50:../../emulator/emulator.c **** #define OPCODE_REG    0x0C
  51:../../emulator/emulator.c **** #define OPCODE_LUI    0x0D /* Load Upper Immediate */
  52:../../emulator/emulator.c **** #define OPCODE_BRANCH 0x18
  53:../../emulator/emulator.c **** #define OPCODE_JALR   0x19 /* Jump and Link Register */
  54:../../emulator/emulator.c **** #define OPCODE_JAL    0x1B /* Jump and Link */
  55:../../emulator/emulator.c **** #define OPCODE_ECALL  0x1C
  56:../../emulator/emulator.c **** 
  57:../../emulator/emulator.c **** /**
  58:../../emulator/emulator.c ****  * @brief Sign extend twos-complement value to 32-bit
  59:../../emulator/emulator.c ****  *
  60:../../emulator/emulator.c ****  * @param bits Number of bits
  61:../../emulator/emulator.c ****  * @param value Value to sign extent
  62:../../emulator/emulator.c ****  * @return Result
  63:../../emulator/emulator.c ****  */
  64:../../emulator/emulator.c **** static inline u32 sext(u8 bits, u32 value)
  65:../../emulator/emulator.c **** {
  66:../../emulator/emulator.c **** 	u32 m = ((u32)1) << (bits - 1);
  67:../../emulator/emulator.c **** 	return (value ^ m) - m;
  68:../../emulator/emulator.c **** }
  69:../../emulator/emulator.c **** 
  70:../../emulator/emulator.c **** static bool _finished;
  71:../../emulator/emulator.c **** static Emulator _cur, *_emu = &_cur;
  72:../../emulator/emulator.c **** static bool _keys[KEY_COUNT];
  73:../../emulator/emulator.c **** static u32 _memory_size;
  74:../../emulator/emulator.c **** 
  75:../../emulator/emulator.c **** void kernel_init(void)
  76:../../emulator/emulator.c **** {
  77:../../emulator/emulator.c **** 	_memory_size = memory_size();
  78:../../emulator/emulator.c **** 	emulator_call(_emu, 0, NULL, 0, _memory_size);
  79:../../emulator/emulator.c **** }
  80:../../emulator/emulator.c **** 
  81:../../emulator/emulator.c **** void os_update(void)
  82:../../emulator/emulator.c **** {
  83:../../emulator/emulator.c **** 	u32 addr = _emu->Events[EVENT_LOOP];
  84:../../emulator/emulator.c **** 	if(addr)
  85:../../emulator/emulator.c **** 	{
  86:../../emulator/emulator.c **** 		emulator_call(_emu, addr, NULL, 0, _memory_size);
  87:../../emulator/emulator.c **** 	}
  88:../../emulator/emulator.c **** }
  89:../../emulator/emulator.c **** 
  90:../../emulator/emulator.c **** void keyboard_event(Key key, i32 chr, KeyState down)
  91:../../emulator/emulator.c **** {
  92:../../emulator/emulator.c **** 	u32 addr = _emu->Events[EVENT_KEY];
  93:../../emulator/emulator.c **** 	if(addr)
  94:../../emulator/emulator.c **** 	{
  95:../../emulator/emulator.c **** 		u32 args[] = { key, chr, down };
  96:../../emulator/emulator.c **** 		emulator_call(_emu, addr, args, ARRLEN(args), _memory_size);
  97:../../emulator/emulator.c **** 	}
  98:../../emulator/emulator.c **** 
  99:../../emulator/emulator.c **** 	key = key_mod_remove(key);
 100:../../emulator/emulator.c **** 	if(key >= KEY_COUNT)
 101:../../emulator/emulator.c **** 	{
 102:../../emulator/emulator.c **** 		return;
 103:../../emulator/emulator.c **** 	}
 104:../../emulator/emulator.c **** 
 105:../../emulator/emulator.c **** 	_keys[key] = down;
 106:../../emulator/emulator.c **** }
 107:../../emulator/emulator.c **** 
 108:../../emulator/emulator.c **** /* Store */
 109:../../emulator/emulator.c **** static void memory_sb(u32 addr, u32 value)
 110:../../emulator/emulator.c **** {
 111:../../emulator/emulator.c **** 	i8 value8 = (i8)value;
 112:../../emulator/emulator.c **** 	memory_write(addr, &value8, 1);
 113:../../emulator/emulator.c **** }
 114:../../emulator/emulator.c **** 
 115:../../emulator/emulator.c **** static void memory_sh(u32 addr, u32 value)
 116:../../emulator/emulator.c **** {
 117:../../emulator/emulator.c **** 	i16 value16 = (i16)value;
 118:../../emulator/emulator.c **** 	memory_write(addr, &value16, 2);
 119:../../emulator/emulator.c **** }
 120:../../emulator/emulator.c **** 
 121:../../emulator/emulator.c **** static void memory_sw(u32 addr, u32 value)
 122:../../emulator/emulator.c **** {
 123:../../emulator/emulator.c **** 	memory_write(addr, &value, 4);
 124:../../emulator/emulator.c **** }
 125:../../emulator/emulator.c **** 
 126:../../emulator/emulator.c **** /* Load */
 127:../../emulator/emulator.c **** static u32 memory_lb(u32 addr)
 128:../../emulator/emulator.c **** {
 129:../../emulator/emulator.c **** 	i8 value8;
 130:../../emulator/emulator.c **** 	memory_read(addr, &value8, 1);
 131:../../emulator/emulator.c **** 	return (i32)value8;
 132:../../emulator/emulator.c **** }
 133:../../emulator/emulator.c **** 
 134:../../emulator/emulator.c **** static u32 memory_lh(u32 addr)
 135:../../emulator/emulator.c **** {
 136:../../emulator/emulator.c **** 	i16 value16;
 137:../../emulator/emulator.c **** 	memory_read(addr, &value16, 2);
 138:../../emulator/emulator.c **** 	return (i32)value16;
 139:../../emulator/emulator.c **** }
 140:../../emulator/emulator.c **** 
 141:../../emulator/emulator.c **** static u32 memory_lw(u32 addr)
 142:../../emulator/emulator.c **** {
 143:../../emulator/emulator.c **** 	u32 value;
 144:../../emulator/emulator.c **** 	memory_read(addr, &value, 4);
 145:../../emulator/emulator.c **** 	return value;
 146:../../emulator/emulator.c **** }
 147:../../emulator/emulator.c **** 
 148:../../emulator/emulator.c **** static u32 memory_lbu(u32 addr)
 149:../../emulator/emulator.c **** {
 150:../../emulator/emulator.c **** 	u8 value8;
 151:../../emulator/emulator.c **** 	memory_read(addr, &value8, 1);
 152:../../emulator/emulator.c **** 	return value8;
 153:../../emulator/emulator.c **** }
 154:../../emulator/emulator.c **** 
 155:../../emulator/emulator.c **** static u32 memory_lhu(u32 addr)
 156:../../emulator/emulator.c **** {
 157:../../emulator/emulator.c **** 	u16 value16;
 158:../../emulator/emulator.c **** 	memory_read(addr, &value16, 2);
 159:../../emulator/emulator.c **** 	return value16;
 160:../../emulator/emulator.c **** }
 161:../../emulator/emulator.c **** 
 162:../../emulator/emulator.c **** /* Syscalls */
 163:../../emulator/emulator.c **** static u32 syscall_exit(u32 *args)
 164:../../emulator/emulator.c **** {
  16               		.loc 1 164 1 view -0
  17               		.cfi_startproc
  18               	/* prologue: function */
  19               	/* frame size = 0 */
  20               	/* stack size = 0 */
  21               	.L__stack_usage = 0
 165:../../emulator/emulator.c **** 	/* TODO */
 166:../../emulator/emulator.c **** 
 167:../../emulator/emulator.c **** 	/* Remove process from scheduler */
 168:../../emulator/emulator.c **** 
 169:../../emulator/emulator.c **** 	/* If init process, crash system */
 170:../../emulator/emulator.c **** 	return 0;
  22               		.loc 1 170 2 view .LVU1
 171:../../emulator/emulator.c **** 	(void)args;
  23               		.loc 1 171 2 view .LVU2
 172:../../emulator/emulator.c **** }
  24               		.loc 1 172 1 is_stmt 0 view .LVU3
  25 0000 60E0      		ldi r22,0
  26 0002 70E0      		ldi r23,0
  27 0004 CB01      		movw r24,r22
  28               	/* epilogue start */
  29 0006 0895      		ret
  30               		.cfi_endproc
  31               	.LFE20:
  34               	syscall_finish:
  35               	.LVL1:
  36               	.LFB21:
 173:../../emulator/emulator.c **** 
 174:../../emulator/emulator.c **** static u32 syscall_finish(u32 *args)
 175:../../emulator/emulator.c **** {
  37               		.loc 1 175 1 is_stmt 1 view -0
  38               		.cfi_startproc
  39               	/* prologue: function */
  40               	/* frame size = 0 */
  41               	/* stack size = 0 */
  42               	.L__stack_usage = 0
 176:../../emulator/emulator.c **** 	_finished = true;
  43               		.loc 1 176 2 view .LVU5
  44               		.loc 1 176 12 is_stmt 0 view .LVU6
  45 0008 81E0      		ldi r24,lo8(1)
  46               	.LVL2:
  47               		.loc 1 176 12 view .LVU7
  48 000a 8093 0000 		sts _finished,r24
 177:../../emulator/emulator.c **** 	return 0;
  49               		.loc 1 177 2 is_stmt 1 view .LVU8
 178:../../emulator/emulator.c **** 	(void)args;
  50               		.loc 1 178 2 view .LVU9
 179:../../emulator/emulator.c **** }
  51               		.loc 1 179 1 is_stmt 0 view .LVU10
  52 000e 60E0      		ldi r22,0
  53 0010 70E0      		ldi r23,0
  54 0012 CB01      		movw r24,r22
  55               	/* epilogue start */
  56 0014 0895      		ret
  57               		.cfi_endproc
  58               	.LFE21:
  61               	syscall_event_register:
  62               	.LVL3:
  63               	.LFB22:
 180:../../emulator/emulator.c **** 
 181:../../emulator/emulator.c **** static u32 syscall_event_register(u32 *args)
 182:../../emulator/emulator.c **** {
  64               		.loc 1 182 1 is_stmt 1 view -0
  65               		.cfi_startproc
  66               	/* prologue: function */
  67               	/* frame size = 0 */
  68               	/* stack size = 0 */
  69               	.L__stack_usage = 0
  70               		.loc 1 182 1 is_stmt 0 view .LVU12
  71 0016 FC01      		movw r30,r24
 183:../../emulator/emulator.c **** 	u32 type = args[0];
  72               		.loc 1 183 2 is_stmt 1 view .LVU13
  73               		.loc 1 183 6 is_stmt 0 view .LVU14
  74 0018 8081      		ld r24,Z
  75 001a 9181      		ldd r25,Z+1
  76 001c A281      		ldd r26,Z+2
  77 001e B381      		ldd r27,Z+3
  78               	.LVL4:
 184:../../emulator/emulator.c **** 	u32 addr = args[1];
  79               		.loc 1 184 2 is_stmt 1 view .LVU15
 185:../../emulator/emulator.c **** 	if(type < EVENT_COUNT)
  80               		.loc 1 185 2 view .LVU16
  81               		.loc 1 185 4 is_stmt 0 view .LVU17
  82 0020 8230      		cpi r24,2
  83 0022 9105      		cpc r25,__zero_reg__
  84 0024 A105      		cpc r26,__zero_reg__
  85 0026 B105      		cpc r27,__zero_reg__
  86 0028 00F4      		brsh .L4
 184:../../emulator/emulator.c **** 	u32 addr = args[1];
  87               		.loc 1 184 6 view .LVU18
  88 002a 4481      		ldd r20,Z+4
  89 002c 5581      		ldd r21,Z+5
  90 002e 6681      		ldd r22,Z+6
  91 0030 7781      		ldd r23,Z+7
 186:../../emulator/emulator.c **** 	{
 187:../../emulator/emulator.c **** 		EMU_LOG(PSTR("Registered Event %"PRIu32" %"PRIu32), type, addr);
  92               		.loc 1 187 66 is_stmt 1 view .LVU19
 188:../../emulator/emulator.c **** 		_emu->Events[type] = addr;
  93               		.loc 1 188 3 view .LVU20
  94               		.loc 1 188 22 is_stmt 0 view .LVU21
  95 0032 880F      		lsl r24
  96 0034 991F      		rol r25
  97 0036 880F      		lsl r24
  98 0038 991F      		rol r25
  99               	.LVL5:
 100               		.loc 1 188 22 view .LVU22
 101 003a FC01      		movw r30,r24
 102               	.LVL6:
 103               		.loc 1 188 22 view .LVU23
 104 003c E050      		subi r30,lo8(-(_cur))
 105 003e F040      		sbci r31,hi8(-(_cur))
 106 0040 4083      		st Z,r20
 107 0042 5183      		std Z+1,r21
 108 0044 6283      		std Z+2,r22
 109 0046 7383      		std Z+3,r23
 110               	.LVL7:
 111               	.L4:
 189:../../emulator/emulator.c **** 	}
 190:../../emulator/emulator.c **** 
 191:../../emulator/emulator.c **** 	return 0;
 112               		.loc 1 191 2 is_stmt 1 view .LVU24
 192:../../emulator/emulator.c **** }
 113               		.loc 1 192 1 is_stmt 0 view .LVU25
 114 0048 60E0      		ldi r22,0
 115 004a 70E0      		ldi r23,0
 116 004c CB01      		movw r24,r22
 117               	/* epilogue start */
 118 004e 0895      		ret
 119               		.cfi_endproc
 120               	.LFE22:
 123               	syscall_keyboard_is_key_pressed:
 124               	.LVL8:
 125               	.LFB26:
 193:../../emulator/emulator.c **** 
 194:../../emulator/emulator.c **** static u32 syscall_millis(u32 *args)
 195:../../emulator/emulator.c **** {
 196:../../emulator/emulator.c **** 	return millis();
 197:../../emulator/emulator.c **** 	(void)args;
 198:../../emulator/emulator.c **** }
 199:../../emulator/emulator.c **** 
 200:../../emulator/emulator.c **** static u32 syscall_datetime_now(u32 *args)
 201:../../emulator/emulator.c **** {
 202:../../emulator/emulator.c **** 	DateTime dt;
 203:../../emulator/emulator.c **** 	datetime_now(&dt);
 204:../../emulator/emulator.c **** 	memory_write(args[0], &dt, sizeof(dt));
 205:../../emulator/emulator.c **** 	return 0;
 206:../../emulator/emulator.c **** }
 207:../../emulator/emulator.c **** 
 208:../../emulator/emulator.c **** static u32 syscall_rand(u32 *args)
 209:../../emulator/emulator.c **** {
 210:../../emulator/emulator.c **** 	return random_get();
 211:../../emulator/emulator.c **** 	(void)args;
 212:../../emulator/emulator.c **** }
 213:../../emulator/emulator.c **** 
 214:../../emulator/emulator.c **** static u32 syscall_keyboard_is_key_pressed(u32 *args)
 215:../../emulator/emulator.c **** {
 126               		.loc 1 215 1 is_stmt 1 view -0
 127               		.cfi_startproc
 128               		.loc 1 215 1 is_stmt 0 view .LVU27
 129 0050 CF93      		push r28
 130               		.cfi_def_cfa_offset 3
 131               		.cfi_offset 28, -2
 132 0052 DF93      		push r29
 133               		.cfi_def_cfa_offset 4
 134               		.cfi_offset 29, -3
 135 0054 00D0      		rcall .
 136 0056 00D0      		rcall .
 137               		.cfi_def_cfa_offset 8
 138 0058 CDB7      		in r28,__SP_L__
 139 005a DEB7      		in r29,__SP_H__
 140               		.cfi_def_cfa_register 28
 141               	/* prologue: function */
 142               	/* frame size = 4 */
 143               	/* stack size = 6 */
 144               	.L__stack_usage = 6
 216:../../emulator/emulator.c **** 	u32 key = args[0];
 145               		.loc 1 216 2 is_stmt 1 view .LVU28
 146               		.loc 1 216 6 is_stmt 0 view .LVU29
 147 005c FC01      		movw r30,r24
 148 005e 8081      		ld r24,Z
 149 0060 9181      		ldd r25,Z+1
 150 0062 A281      		ldd r26,Z+2
 151 0064 B381      		ldd r27,Z+3
 152               	.LVL9:
 217:../../emulator/emulator.c **** 	if(key >= KEY_COUNT)
 153               		.loc 1 217 2 is_stmt 1 view .LVU30
 154               		.loc 1 217 4 is_stmt 0 view .LVU31
 155 0066 8D31      		cpi r24,29
 156 0068 F1E0      		ldi r31,1
 157 006a 9F07      		cpc r25,r31
 158 006c A105      		cpc r26,__zero_reg__
 159 006e B105      		cpc r27,__zero_reg__
 160 0070 00F4      		brsh .L7
 218:../../emulator/emulator.c **** 	{
 219:../../emulator/emulator.c **** 		return false;
 220:../../emulator/emulator.c **** 	}
 221:../../emulator/emulator.c **** 
 222:../../emulator/emulator.c **** 	return _keys[key];
 161               		.loc 1 222 2 is_stmt 1 view .LVU32
 162               		.loc 1 222 14 is_stmt 0 view .LVU33
 163 0072 8050      		subi r24,lo8(-(_keys))
 164 0074 9040      		sbci r25,hi8(-(_keys))
 165               	.LVL10:
 166               		.loc 1 222 14 view .LVU34
 167 0076 FC01      		movw r30,r24
 168               	.LVL11:
 169               		.loc 1 222 14 view .LVU35
 170 0078 8081      		ld r24,Z
 171 007a 282F      		mov r18,r24
 172 007c 30E0      		ldi r19,0
 173 007e 40E0      		ldi r20,0
 174 0080 50E0      		ldi r21,0
 175 0082 2983      		std Y+1,r18
 176 0084 3A83      		std Y+2,r19
 177 0086 4B83      		std Y+3,r20
 178 0088 5C83      		std Y+4,r21
 179               	.L5:
 223:../../emulator/emulator.c **** }
 180               		.loc 1 223 1 view .LVU36
 181 008a 6981      		ldd r22,Y+1
 182 008c 7A81      		ldd r23,Y+2
 183 008e 8B81      		ldd r24,Y+3
 184 0090 9C81      		ldd r25,Y+4
 185               	/* epilogue start */
 186 0092 0F90      		pop __tmp_reg__
 187 0094 0F90      		pop __tmp_reg__
 188 0096 0F90      		pop __tmp_reg__
 189 0098 0F90      		pop __tmp_reg__
 190 009a DF91      		pop r29
 191 009c CF91      		pop r28
 192 009e 0895      		ret
 193               	.LVL12:
 194               	.L7:
 219:../../emulator/emulator.c **** 	}
 195               		.loc 1 219 10 view .LVU37
 196 00a0 1982      		std Y+1,__zero_reg__
 197 00a2 1A82      		std Y+2,__zero_reg__
 198 00a4 1B82      		std Y+3,__zero_reg__
 199 00a6 1C82      		std Y+4,__zero_reg__
 200 00a8 00C0      		rjmp .L5
 201               		.cfi_endproc
 202               	.LFE26:
 205               	syscall_millis:
 206               	.LVL13:
 207               	.LFB23:
 195:../../emulator/emulator.c **** 	return millis();
 208               		.loc 1 195 1 is_stmt 1 view -0
 209               		.cfi_startproc
 210               	/* prologue: function */
 211               	/* frame size = 0 */
 212               	/* stack size = 0 */
 213               	.L__stack_usage = 0
 196:../../emulator/emulator.c **** 	(void)args;
 214               		.loc 1 196 2 view .LVU39
 196:../../emulator/emulator.c **** 	(void)args;
 215               		.loc 1 196 9 is_stmt 0 view .LVU40
 216 00aa 0C94 0000 		jmp millis
 217               	.LVL14:
 196:../../emulator/emulator.c **** 	(void)args;
 218               		.loc 1 196 9 view .LVU41
 219               		.cfi_endproc
 220               	.LFE23:
 223               	syscall_datetime_now:
 224               	.LVL15:
 225               	.LFB24:
 201:../../emulator/emulator.c **** 	DateTime dt;
 226               		.loc 1 201 1 is_stmt 1 view -0
 227               		.cfi_startproc
 201:../../emulator/emulator.c **** 	DateTime dt;
 228               		.loc 1 201 1 is_stmt 0 view .LVU43
 229 00ae 0F93      		push r16
 230               		.cfi_def_cfa_offset 3
 231               		.cfi_offset 16, -2
 232 00b0 1F93      		push r17
 233               		.cfi_def_cfa_offset 4
 234               		.cfi_offset 17, -3
 235 00b2 CF93      		push r28
 236               		.cfi_def_cfa_offset 5
 237               		.cfi_offset 28, -4
 238 00b4 DF93      		push r29
 239               		.cfi_def_cfa_offset 6
 240               		.cfi_offset 29, -5
 241 00b6 CDB7      		in r28,__SP_L__
 242 00b8 DEB7      		in r29,__SP_H__
 243               		.cfi_def_cfa_register 28
 244 00ba 6C97      		sbiw r28,28
 245               		.cfi_def_cfa_offset 34
 246 00bc 0FB6      		in __tmp_reg__,__SREG__
 247 00be F894      		cli
 248 00c0 DEBF      		out __SP_H__,r29
 249 00c2 0FBE      		out __SREG__,__tmp_reg__
 250 00c4 CDBF      		out __SP_L__,r28
 251               	/* prologue: function */
 252               	/* frame size = 28 */
 253               	/* stack size = 32 */
 254               	.L__stack_usage = 32
 255 00c6 8C01      		movw r16,r24
 202:../../emulator/emulator.c **** 	datetime_now(&dt);
 256               		.loc 1 202 2 is_stmt 1 view .LVU44
 203:../../emulator/emulator.c **** 	memory_write(args[0], &dt, sizeof(dt));
 257               		.loc 1 203 2 view .LVU45
 258 00c8 CE01      		movw r24,r28
 259               	.LVL16:
 203:../../emulator/emulator.c **** 	memory_write(args[0], &dt, sizeof(dt));
 260               		.loc 1 203 2 is_stmt 0 view .LVU46
 261 00ca 0196      		adiw r24,1
 262 00cc 0E94 0000 		call datetime_now
 263               	.LVL17:
 204:../../emulator/emulator.c **** 	return 0;
 264               		.loc 1 204 2 is_stmt 1 view .LVU47
 265 00d0 D801      		movw r26,r16
 266 00d2 8D91      		ld r24,X+
 267 00d4 9D91      		ld r25,X+
 268 00d6 0D90      		ld __tmp_reg__,X+
 269 00d8 BC91      		ld r27,X
 270 00da A02D      		mov r26,__tmp_reg__
 271 00dc 898F      		std Y+25,r24
 272 00de 9A8F      		std Y+26,r25
 273 00e0 AB8F      		std Y+27,r26
 274 00e2 BC8F      		std Y+28,r27
 275 00e4 08E1      		ldi r16,lo8(24)
 276 00e6 10E0      		ldi r17,0
 277 00e8 20E0      		ldi r18,0
 278 00ea 30E0      		ldi r19,0
 279               	.LVL18:
 204:../../emulator/emulator.c **** 	return 0;
 280               		.loc 1 204 2 is_stmt 0 view .LVU48
 281 00ec AE01      		movw r20,r28
 282 00ee 4F5F      		subi r20,-1
 283 00f0 5F4F      		sbci r21,-1
 284 00f2 BC01      		movw r22,r24
 285 00f4 CD01      		movw r24,r26
 286 00f6 0E94 0000 		call memory_write
 287               	.LVL19:
 205:../../emulator/emulator.c **** }
 288               		.loc 1 205 2 is_stmt 1 view .LVU49
 206:../../emulator/emulator.c **** 
 289               		.loc 1 206 1 is_stmt 0 view .LVU50
 290 00fa 60E0      		ldi r22,0
 291 00fc 70E0      		ldi r23,0
 292 00fe CB01      		movw r24,r22
 293               	/* epilogue start */
 294 0100 6C96      		adiw r28,28
 295 0102 0FB6      		in __tmp_reg__,__SREG__
 296 0104 F894      		cli
 297 0106 DEBF      		out __SP_H__,r29
 298 0108 0FBE      		out __SREG__,__tmp_reg__
 299 010a CDBF      		out __SP_L__,r28
 300 010c DF91      		pop r29
 301 010e CF91      		pop r28
 302 0110 1F91      		pop r17
 303 0112 0F91      		pop r16
 304 0114 0895      		ret
 305               		.cfi_endproc
 306               	.LFE24:
 309               	syscall_serial_write:
 310               	.LVL20:
 311               	.LFB27:
 224:../../emulator/emulator.c **** 
 225:../../emulator/emulator.c **** static u32 syscall_serial_write(u32 *args)
 226:../../emulator/emulator.c **** {
 312               		.loc 1 226 1 is_stmt 1 view -0
 313               		.cfi_startproc
 314               		.loc 1 226 1 is_stmt 0 view .LVU52
 315 0116 8F92      		push r8
 316               		.cfi_def_cfa_offset 3
 317               		.cfi_offset 8, -2
 318 0118 9F92      		push r9
 319               		.cfi_def_cfa_offset 4
 320               		.cfi_offset 9, -3
 321 011a AF92      		push r10
 322               		.cfi_def_cfa_offset 5
 323               		.cfi_offset 10, -4
 324 011c BF92      		push r11
 325               		.cfi_def_cfa_offset 6
 326               		.cfi_offset 11, -5
 327 011e CF92      		push r12
 328               		.cfi_def_cfa_offset 7
 329               		.cfi_offset 12, -6
 330 0120 DF92      		push r13
 331               		.cfi_def_cfa_offset 8
 332               		.cfi_offset 13, -7
 333 0122 EF92      		push r14
 334               		.cfi_def_cfa_offset 9
 335               		.cfi_offset 14, -8
 336 0124 FF92      		push r15
 337               		.cfi_def_cfa_offset 10
 338               		.cfi_offset 15, -9
 339 0126 0F93      		push r16
 340               		.cfi_def_cfa_offset 11
 341               		.cfi_offset 16, -10
 342 0128 1F93      		push r17
 343               		.cfi_def_cfa_offset 12
 344               		.cfi_offset 17, -11
 345 012a CF93      		push r28
 346               		.cfi_def_cfa_offset 13
 347               		.cfi_offset 28, -12
 348 012c DF93      		push r29
 349               		.cfi_def_cfa_offset 14
 350               		.cfi_offset 29, -13
 351 012e CDB7      		in r28,__SP_L__
 352 0130 DEB7      		in r29,__SP_H__
 353               		.cfi_def_cfa_register 28
 354 0132 C458      		subi r28,-124
 355 0134 D109      		sbc r29,__zero_reg__
 356               		.cfi_def_cfa_offset 146
 357 0136 0FB6      		in __tmp_reg__,__SREG__
 358 0138 F894      		cli
 359 013a DEBF      		out __SP_H__,r29
 360 013c 0FBE      		out __SREG__,__tmp_reg__
 361 013e CDBF      		out __SP_L__,r28
 362               	/* prologue: function */
 363               	/* frame size = 132 */
 364               	/* stack size = 144 */
 365               	.L__stack_usage = 144
 366 0140 FC01      		movw r30,r24
 227:../../emulator/emulator.c **** 	u16 cur;
 367               		.loc 1 227 2 is_stmt 1 view .LVU53
 228:../../emulator/emulator.c **** 	u32 ptr = args[0];
 368               		.loc 1 228 2 view .LVU54
 369               		.loc 1 228 6 is_stmt 0 view .LVU55
 370 0142 8081      		ld r24,Z
 371 0144 9181      		ldd r25,Z+1
 372 0146 A281      		ldd r26,Z+2
 373 0148 B381      		ldd r27,Z+3
 374               	.LVL21:
 375               		.loc 1 228 6 view .LVU56
 376 014a CF57      		subi r28,lo8(-129)
 377 014c DF4F      		sbci r29,hi8(-129)
 378 014e 8883      		st Y,r24
 379 0150 9983      		std Y+1,r25
 380 0152 AA83      		std Y+2,r26
 381 0154 BB83      		std Y+3,r27
 382 0156 C158      		subi r28,lo8(129)
 383 0158 D040      		sbci r29,hi8(129)
 384               	.LVL22:
 229:../../emulator/emulator.c **** 	u32 len = args[1];
 385               		.loc 1 229 2 is_stmt 1 view .LVU57
 386               		.loc 1 229 6 is_stmt 0 view .LVU58
 387 015a 8480      		ldd r8,Z+4
 388 015c 9580      		ldd r9,Z+5
 389 015e A680      		ldd r10,Z+6
 390 0160 B780      		ldd r11,Z+7
 391               	.LVL23:
 230:../../emulator/emulator.c **** 	u8 buf[128];
 392               		.loc 1 230 2 is_stmt 1 view .LVU59
 231:../../emulator/emulator.c **** 
 232:../../emulator/emulator.c **** 	while(len)
 393               		.loc 1 232 2 view .LVU60
 394               	.L11:
 395               		.loc 1 232 8 view .LVU61
 396 0162 8114      		cp r8,__zero_reg__
 397 0164 9104      		cpc r9,__zero_reg__
 398 0166 A104      		cpc r10,__zero_reg__
 399 0168 B104      		cpc r11,__zero_reg__
 400 016a 01F4      		brne .L13
 233:../../emulator/emulator.c **** 	{
 234:../../emulator/emulator.c **** 		cur = len > sizeof(buf) ? sizeof(buf) : len;
 235:../../emulator/emulator.c **** 		memory_read(ptr, buf, cur);
 236:../../emulator/emulator.c **** 		serial_write(buf, cur);
 237:../../emulator/emulator.c **** 		len -= cur;
 238:../../emulator/emulator.c **** 		ptr += cur;
 239:../../emulator/emulator.c **** 	}
 240:../../emulator/emulator.c **** 
 241:../../emulator/emulator.c **** 	return 0;
 401               		.loc 1 241 2 view .LVU62
 242:../../emulator/emulator.c **** }
 402               		.loc 1 242 1 is_stmt 0 view .LVU63
 403 016c 60E0      		ldi r22,0
 404 016e 70E0      		ldi r23,0
 405 0170 CB01      		movw r24,r22
 406               	/* epilogue start */
 407 0172 CC57      		subi r28,124
 408 0174 DF4F      		sbci r29,-1
 409 0176 0FB6      		in __tmp_reg__,__SREG__
 410 0178 F894      		cli
 411 017a DEBF      		out __SP_H__,r29
 412 017c 0FBE      		out __SREG__,__tmp_reg__
 413 017e CDBF      		out __SP_L__,r28
 414 0180 DF91      		pop r29
 415 0182 CF91      		pop r28
 416 0184 1F91      		pop r17
 417 0186 0F91      		pop r16
 418 0188 FF90      		pop r15
 419 018a EF90      		pop r14
 420 018c DF90      		pop r13
 421 018e CF90      		pop r12
 422 0190 BF90      		pop r11
 423 0192 AF90      		pop r10
 424 0194 9F90      		pop r9
 425 0196 8F90      		pop r8
 426               	.LVL24:
 427               		.loc 1 242 1 view .LVU64
 428 0198 0895      		ret
 429               	.LVL25:
 430               	.L13:
 234:../../emulator/emulator.c **** 		memory_read(ptr, buf, cur);
 431               		.loc 1 234 3 is_stmt 1 view .LVU65
 234:../../emulator/emulator.c **** 		memory_read(ptr, buf, cur);
 432               		.loc 1 234 41 is_stmt 0 view .LVU66
 433 019a 7501      		movw r14,r10
 434 019c 6401      		movw r12,r8
 435 019e 91E8      		ldi r25,-127
 436 01a0 8916      		cp r8,r25
 437 01a2 9104      		cpc r9,__zero_reg__
 438 01a4 A104      		cpc r10,__zero_reg__
 439 01a6 B104      		cpc r11,__zero_reg__
 440 01a8 00F0      		brlo .L12
 234:../../emulator/emulator.c **** 		memory_read(ptr, buf, cur);
 441               		.loc 1 234 41 view .LVU67
 442 01aa 80E8      		ldi r24,lo8(-128)
 443 01ac C82E      		mov r12,r24
 444 01ae D12C      		mov r13,__zero_reg__
 445 01b0 E12C      		mov r14,__zero_reg__
 446 01b2 F12C      		mov r15,__zero_reg__
 447               	.L12:
 448               	.LVL26:
 235:../../emulator/emulator.c **** 		serial_write(buf, cur);
 449               		.loc 1 235 3 is_stmt 1 view .LVU68
 450 01b4 9701      		movw r18,r14
 451 01b6 8601      		movw r16,r12
 452 01b8 AE01      		movw r20,r28
 453 01ba 4F5F      		subi r20,-1
 454 01bc 5F4F      		sbci r21,-1
 455 01be CF57      		subi r28,lo8(-129)
 456 01c0 DF4F      		sbci r29,hi8(-129)
 457 01c2 6881      		ld r22,Y
 458 01c4 7981      		ldd r23,Y+1
 459 01c6 8A81      		ldd r24,Y+2
 460 01c8 9B81      		ldd r25,Y+3
 461 01ca C158      		subi r28,lo8(129)
 462 01cc D040      		sbci r29,hi8(129)
 463 01ce 0E94 0000 		call memory_read
 464               	.LVL27:
 236:../../emulator/emulator.c **** 		len -= cur;
 465               		.loc 1 236 3 view .LVU69
 466 01d2 B701      		movw r22,r14
 467 01d4 A601      		movw r20,r12
 468 01d6 CE01      		movw r24,r28
 469 01d8 0196      		adiw r24,1
 470 01da 0E94 0000 		call serial_write
 471               	.LVL28:
 237:../../emulator/emulator.c **** 		ptr += cur;
 472               		.loc 1 237 3 view .LVU70
 237:../../emulator/emulator.c **** 		ptr += cur;
 473               		.loc 1 237 7 is_stmt 0 view .LVU71
 474 01de 8C18      		sub r8,r12
 475 01e0 9D08      		sbc r9,r13
 476 01e2 AE08      		sbc r10,r14
 477 01e4 BF08      		sbc r11,r15
 478               	.LVL29:
 238:../../emulator/emulator.c **** 	}
 479               		.loc 1 238 3 is_stmt 1 view .LVU72
 238:../../emulator/emulator.c **** 	}
 480               		.loc 1 238 7 is_stmt 0 view .LVU73
 481 01e6 CF57      		subi r28,lo8(-129)
 482 01e8 DF4F      		sbci r29,hi8(-129)
 483 01ea 8881      		ld r24,Y
 484 01ec 9981      		ldd r25,Y+1
 485 01ee AA81      		ldd r26,Y+2
 486 01f0 BB81      		ldd r27,Y+3
 487 01f2 C158      		subi r28,lo8(129)
 488 01f4 D040      		sbci r29,hi8(129)
 489 01f6 8C0D      		add r24,r12
 490 01f8 9D1D      		adc r25,r13
 491 01fa AE1D      		adc r26,r14
 492 01fc BF1D      		adc r27,r15
 493 01fe CF57      		subi r28,lo8(-129)
 494 0200 DF4F      		sbci r29,hi8(-129)
 495 0202 8883      		st Y,r24
 496 0204 9983      		std Y+1,r25
 497 0206 AA83      		std Y+2,r26
 498 0208 BB83      		std Y+3,r27
 499 020a C158      		subi r28,lo8(129)
 500 020c D040      		sbci r29,hi8(129)
 501               	.LVL30:
 238:../../emulator/emulator.c **** 	}
 502               		.loc 1 238 7 view .LVU74
 503 020e 00C0      		rjmp .L11
 504               		.cfi_endproc
 505               	.LFE27:
 508               	syscall_rand:
 509               	.LVL31:
 510               	.LFB25:
 209:../../emulator/emulator.c **** 	return random_get();
 511               		.loc 1 209 1 is_stmt 1 view -0
 512               		.cfi_startproc
 513               	/* prologue: function */
 514               	/* frame size = 0 */
 515               	/* stack size = 0 */
 516               	.L__stack_usage = 0
 210:../../emulator/emulator.c **** 	(void)args;
 517               		.loc 1 210 2 view .LVU76
 210:../../emulator/emulator.c **** 	(void)args;
 518               		.loc 1 210 9 is_stmt 0 view .LVU77
 519 0210 0C94 0000 		jmp random_get
 520               	.LVL32:
 210:../../emulator/emulator.c **** 	(void)args;
 521               		.loc 1 210 9 view .LVU78
 522               		.cfi_endproc
 523               	.LFE25:
 526               	syscall_gfx_rect:
 527               	.LVL33:
 528               	.LFB28:
 243:../../emulator/emulator.c **** 
 244:../../emulator/emulator.c **** static u32 syscall_gfx_rect(u32 *args)
 245:../../emulator/emulator.c **** {
 529               		.loc 1 245 1 is_stmt 1 view -0
 530               		.cfi_startproc
 531               		.loc 1 245 1 is_stmt 0 view .LVU80
 532 0214 AF92      		push r10
 533               		.cfi_def_cfa_offset 3
 534               		.cfi_offset 10, -2
 535 0216 BF92      		push r11
 536               		.cfi_def_cfa_offset 4
 537               		.cfi_offset 11, -3
 538 0218 CF92      		push r12
 539               		.cfi_def_cfa_offset 5
 540               		.cfi_offset 12, -4
 541 021a DF92      		push r13
 542               		.cfi_def_cfa_offset 6
 543               		.cfi_offset 13, -5
 544 021c EF92      		push r14
 545               		.cfi_def_cfa_offset 7
 546               		.cfi_offset 14, -6
 547 021e FF92      		push r15
 548               		.cfi_def_cfa_offset 8
 549               		.cfi_offset 15, -7
 550 0220 0F93      		push r16
 551               		.cfi_def_cfa_offset 9
 552               		.cfi_offset 16, -8
 553 0222 1F93      		push r17
 554               		.cfi_def_cfa_offset 10
 555               		.cfi_offset 17, -9
 556 0224 CF93      		push r28
 557               		.cfi_def_cfa_offset 11
 558               		.cfi_offset 28, -10
 559 0226 DF93      		push r29
 560               		.cfi_def_cfa_offset 12
 561               		.cfi_offset 29, -11
 562 0228 CDB7      		in r28,__SP_L__
 563 022a DEB7      		in r29,__SP_H__
 564               		.cfi_def_cfa_register 28
 565 022c 2897      		sbiw r28,8
 566               		.cfi_def_cfa_offset 20
 567 022e 0FB6      		in __tmp_reg__,__SREG__
 568 0230 F894      		cli
 569 0232 DEBF      		out __SP_H__,r29
 570 0234 0FBE      		out __SREG__,__tmp_reg__
 571 0236 CDBF      		out __SP_L__,r28
 572               	/* prologue: function */
 573               	/* frame size = 8 */
 574               	/* stack size = 18 */
 575               	.L__stack_usage = 18
 576 0238 FC01      		movw r30,r24
 246:../../emulator/emulator.c **** 	gfx_rect(args[0], args[1], args[2], args[3], args[4]);
 577               		.loc 1 246 2 is_stmt 1 view .LVU81
 578 023a A484      		ldd r10,Z+12
 579 023c B584      		ldd r11,Z+13
 580 023e C684      		ldd r12,Z+14
 581 0240 D784      		ldd r13,Z+15
 582 0242 8085      		ldd r24,Z+8
 583 0244 9185      		ldd r25,Z+9
 584 0246 A285      		ldd r26,Z+10
 585 0248 B385      		ldd r27,Z+11
 586               	.LVL34:
 587               		.loc 1 246 2 is_stmt 0 view .LVU82
 588 024a 8983      		std Y+1,r24
 589 024c 9A83      		std Y+2,r25
 590 024e AB83      		std Y+3,r26
 591 0250 BC83      		std Y+4,r27
 592 0252 2481      		ldd r18,Z+4
 593 0254 3581      		ldd r19,Z+5
 594 0256 4681      		ldd r20,Z+6
 595 0258 5781      		ldd r21,Z+7
 596 025a 8081      		ld r24,Z
 597 025c 9181      		ldd r25,Z+1
 598 025e A281      		ldd r26,Z+2
 599 0260 B381      		ldd r27,Z+3
 600 0262 8D83      		std Y+5,r24
 601 0264 9E83      		std Y+6,r25
 602 0266 AF83      		std Y+7,r26
 603 0268 B887      		std Y+8,r27
 604 026a 8389      		ldd r24,Z+19
 605 026c 8F93      		push r24
 606 026e 8289      		ldd r24,Z+18
 607 0270 8F93      		push r24
 608 0272 8189      		ldd r24,Z+17
 609 0274 8F93      		push r24
 610 0276 8089      		ldd r24,Z+16
 611 0278 8F93      		push r24
 612 027a E980      		ldd r14,Y+1
 613 027c FA80      		ldd r15,Y+2
 614 027e 0B81      		ldd r16,Y+3
 615 0280 1C81      		ldd r17,Y+4
 616 0282 6D81      		ldd r22,Y+5
 617 0284 7E81      		ldd r23,Y+6
 618 0286 8F81      		ldd r24,Y+7
 619 0288 9885      		ldd r25,Y+8
 620 028a 0E94 0000 		call gfx_rect
 621               	.LVL35:
 247:../../emulator/emulator.c **** 	return 0;
 622               		.loc 1 247 2 is_stmt 1 view .LVU83
 623               		.loc 1 247 9 is_stmt 0 view .LVU84
 624 028e 0F90      		pop __tmp_reg__
 625 0290 0F90      		pop __tmp_reg__
 626 0292 0F90      		pop __tmp_reg__
 627 0294 0F90      		pop __tmp_reg__
 248:../../emulator/emulator.c **** }
 628               		.loc 1 248 1 view .LVU85
 629 0296 60E0      		ldi r22,0
 630 0298 70E0      		ldi r23,0
 631 029a CB01      		movw r24,r22
 632               	/* epilogue start */
 633 029c 2896      		adiw r28,8
 634 029e 0FB6      		in __tmp_reg__,__SREG__
 635 02a0 F894      		cli
 636 02a2 DEBF      		out __SP_H__,r29
 637 02a4 0FBE      		out __SREG__,__tmp_reg__
 638 02a6 CDBF      		out __SP_L__,r28
 639 02a8 DF91      		pop r29
 640 02aa CF91      		pop r28
 641 02ac 1F91      		pop r17
 642 02ae 0F91      		pop r16
 643 02b0 FF90      		pop r15
 644 02b2 EF90      		pop r14
 645 02b4 DF90      		pop r13
 646 02b6 CF90      		pop r12
 647 02b8 BF90      		pop r11
 648 02ba AF90      		pop r10
 649 02bc 0895      		ret
 650               		.cfi_endproc
 651               	.LFE28:
 653               	.global	emulator_call
 655               	emulator_call:
 656               	.LVL36:
 657               	.LFB31:
 249:../../emulator/emulator.c **** 
 250:../../emulator/emulator.c **** static u32 (*syscalls[])(u32 *) =
 251:../../emulator/emulator.c **** {
 252:../../emulator/emulator.c **** 	syscall_exit,
 253:../../emulator/emulator.c **** 	syscall_finish,
 254:../../emulator/emulator.c **** 	syscall_event_register,
 255:../../emulator/emulator.c **** 
 256:../../emulator/emulator.c **** 	syscall_gfx_rect,
 257:../../emulator/emulator.c **** 	syscall_gfx_image_rgba,
 258:../../emulator/emulator.c **** 	syscall_gfx_image_rgb,
 259:../../emulator/emulator.c **** 	syscall_gfx_image_rgb565,
 260:../../emulator/emulator.c **** 	syscall_gfx_image_grayscale,
 261:../../emulator/emulator.c **** 	syscall_gfx_image_1bit,
 262:../../emulator/emulator.c **** 
 263:../../emulator/emulator.c **** 	syscall_rand,
 264:../../emulator/emulator.c **** 	syscall_keyboard_is_key_pressed,
 265:../../emulator/emulator.c **** 	syscall_serial_write,
 266:../../emulator/emulator.c **** 	syscall_datetime_now,
 267:../../emulator/emulator.c **** 	syscall_millis,
 268:../../emulator/emulator.c **** };
 269:../../emulator/emulator.c **** 
 270:../../emulator/emulator.c **** static i32 syscall(u32 id, u32 *args)
 271:../../emulator/emulator.c **** {
 272:../../emulator/emulator.c **** 	if(id >= ARRLEN(syscalls))
 273:../../emulator/emulator.c **** 	{
 274:../../emulator/emulator.c **** 		return 1;
 275:../../emulator/emulator.c **** 	}
 276:../../emulator/emulator.c **** 
 277:../../emulator/emulator.c **** 	args[0] = syscalls[id](args);
 278:../../emulator/emulator.c **** 	return 0;
 279:../../emulator/emulator.c **** }
 280:../../emulator/emulator.c **** 
 281:../../emulator/emulator.c **** /* EMULATOR */
 282:../../emulator/emulator.c **** static bool emulator_next(Emulator *emu)
 283:../../emulator/emulator.c **** {
 284:../../emulator/emulator.c **** 	u32 instr, opcode;
 285:../../emulator/emulator.c **** 	instr = memory_lw(emu->PC);
 286:../../emulator/emulator.c **** 
 287:../../emulator/emulator.c **** 	/* r0 = Zero Register */
 288:../../emulator/emulator.c **** 	emu->Registers[0] = 0;
 289:../../emulator/emulator.c **** 
 290:../../emulator/emulator.c **** 	/* bits 7 .. 0 */
 291:../../emulator/emulator.c **** 	opcode = instr & 0x7F;
 292:../../emulator/emulator.c **** 	if((opcode & 0x03) != 0x03)
 293:../../emulator/emulator.c **** 	{
 294:../../emulator/emulator.c **** 		EMU_LOG(PSTR("INVALID"));
 295:../../emulator/emulator.c **** 		return true;
 296:../../emulator/emulator.c **** 	}
 297:../../emulator/emulator.c **** 
 298:../../emulator/emulator.c **** 	opcode >>= 2;
 299:../../emulator/emulator.c **** 	switch(opcode)
 300:../../emulator/emulator.c **** 	{
 301:../../emulator/emulator.c **** 		case OPCODE_ECALL:
 302:../../emulator/emulator.c **** 			if(syscall(emu->Registers[17], &emu->Registers[10]))
 303:../../emulator/emulator.c **** 			{
 304:../../emulator/emulator.c **** 				EMU_LOG(PSTR("SYSCALL ERROR"));
 305:../../emulator/emulator.c **** 				return true;
 306:../../emulator/emulator.c **** 			}
 307:../../emulator/emulator.c **** 			break;
 308:../../emulator/emulator.c **** 
 309:../../emulator/emulator.c **** 		case OPCODE_LOAD:
 310:../../emulator/emulator.c **** 		{
 311:../../emulator/emulator.c **** 			i32 offset;
 312:../../emulator/emulator.c **** 			u32 imm;
 313:../../emulator/emulator.c **** 			u8 rd, rs1, funct3;
 314:../../emulator/emulator.c **** 			rd = (instr >> 7) & 0x1F;
 315:../../emulator/emulator.c **** 			funct3 = (instr >> 12) & 0x07;
 316:../../emulator/emulator.c **** 			rs1 = (instr >> 15) & 0x1F;
 317:../../emulator/emulator.c **** 			imm = (instr >> 20);
 318:../../emulator/emulator.c **** 			offset = sext(12, imm);
 319:../../emulator/emulator.c **** 			switch(funct3)
 320:../../emulator/emulator.c **** 			{
 321:../../emulator/emulator.c **** 				case 0:
 322:../../emulator/emulator.c **** 					/* LB */
 323:../../emulator/emulator.c **** 					EMU_LOG(PSTR("lb r%"PRIu8", r%"PRIu8"%+"PRIi32), rd, rs1, offset);
 324:../../emulator/emulator.c **** 					emu->Registers[rd] = memory_lb(emu->Registers[rs1] + offset);
 325:../../emulator/emulator.c **** 					break;
 326:../../emulator/emulator.c **** 
 327:../../emulator/emulator.c **** 				case 1:
 328:../../emulator/emulator.c **** 					/* LH */
 329:../../emulator/emulator.c **** 					EMU_LOG(PSTR("lh r%"PRIu8", r%"PRIu8"%"PRIi32), rd, rs1, offset);
 330:../../emulator/emulator.c **** 					emu->Registers[rd] = memory_lh(emu->Registers[rs1] + offset);
 331:../../emulator/emulator.c **** 					break;
 332:../../emulator/emulator.c **** 
 333:../../emulator/emulator.c **** 				case 2:
 334:../../emulator/emulator.c **** 					/* LW */
 335:../../emulator/emulator.c **** 					EMU_LOG(PSTR("lw r%"PRIu8", r%"PRIu8"%"PRIi32), rd, rs1, offset);
 336:../../emulator/emulator.c **** 					emu->Registers[rd] = memory_lw(emu->Registers[rs1] + offset);
 337:../../emulator/emulator.c **** 					break;
 338:../../emulator/emulator.c **** 
 339:../../emulator/emulator.c **** 				case 4:
 340:../../emulator/emulator.c **** 					/* LBU */
 341:../../emulator/emulator.c **** 					EMU_LOG(PSTR("lbu r%"PRIu8", r%"PRIu8"%"PRIi32), rd, rs1, offset);
 342:../../emulator/emulator.c **** 					emu->Registers[rd] = memory_lbu(emu->Registers[rs1] + offset);
 343:../../emulator/emulator.c **** 					break;
 344:../../emulator/emulator.c **** 
 345:../../emulator/emulator.c **** 				case 5:
 346:../../emulator/emulator.c **** 					/* LHU */
 347:../../emulator/emulator.c **** 					EMU_LOG(PSTR("lhu r%"PRIu8", r%"PRIu8"%"PRIi32), rd, rs1, offset);
 348:../../emulator/emulator.c **** 					emu->Registers[rd] = memory_lhu(emu->Registers[rs1] + offset);
 349:../../emulator/emulator.c **** 					break;
 350:../../emulator/emulator.c **** 
 351:../../emulator/emulator.c **** 				default:
 352:../../emulator/emulator.c **** 					EMU_LOG(PSTR("INVALID"));
 353:../../emulator/emulator.c **** 					return true;
 354:../../emulator/emulator.c **** 			}
 355:../../emulator/emulator.c **** 			break;
 356:../../emulator/emulator.c **** 		}
 357:../../emulator/emulator.c **** 
 358:../../emulator/emulator.c **** 		case OPCODE_IMM:
 359:../../emulator/emulator.c **** 		{
 360:../../emulator/emulator.c **** 			u8 rd, rs1, funct3;
 361:../../emulator/emulator.c **** 			u32 imm;
 362:../../emulator/emulator.c **** 			rd = (instr >> 7) & 0x1F;
 363:../../emulator/emulator.c **** 			funct3 = (instr >> 12) & 0x07;
 364:../../emulator/emulator.c **** 			rs1 = (instr >> 15) & 0x1F;
 365:../../emulator/emulator.c **** 			imm = (instr >> 20);
 366:../../emulator/emulator.c **** 			switch(funct3)
 367:../../emulator/emulator.c **** 			{
 368:../../emulator/emulator.c **** 				case 0:
 369:../../emulator/emulator.c **** 					/* ADDI */
 370:../../emulator/emulator.c **** 					imm = sext(12, imm);
 371:../../emulator/emulator.c **** 					EMU_LOG(PSTR("addi r%"PRIu8", r%"PRIu8", %"PRIi32), rd, rs1, imm);
 372:../../emulator/emulator.c **** 					emu->Registers[rd] = emu->Registers[rs1] + imm;
 373:../../emulator/emulator.c **** 					break;
 374:../../emulator/emulator.c **** 
 375:../../emulator/emulator.c **** 				case 1:
 376:../../emulator/emulator.c **** 					/* SLLI */
 377:../../emulator/emulator.c **** 					imm &= 0x1F;
 378:../../emulator/emulator.c **** 					EMU_LOG(PSTR("slli r%"PRIu8", r%"PRIu8", %"PRIi32), rd, rs1, imm);
 379:../../emulator/emulator.c **** 					emu->Registers[rd] = emu->Registers[rs1] << imm;
 380:../../emulator/emulator.c **** 					break;
 381:../../emulator/emulator.c **** 
 382:../../emulator/emulator.c **** 				case 2:
 383:../../emulator/emulator.c **** 					/* SLTI */
 384:../../emulator/emulator.c **** 					imm = sext(12, imm);
 385:../../emulator/emulator.c **** 					EMU_LOG(PSTR("slti r%"PRIu8", r%"PRIu8", %"PRIi32), rd, rs1, imm);
 386:../../emulator/emulator.c **** 					emu->Registers[rd] = (i32)emu->Registers[rs1] < (i32)imm;
 387:../../emulator/emulator.c **** 					break;
 388:../../emulator/emulator.c **** 
 389:../../emulator/emulator.c **** 				case 3:
 390:../../emulator/emulator.c **** 					/* SLTIU */
 391:../../emulator/emulator.c **** 					EMU_LOG(PSTR("sltiu r%"PRIu8", r%"PRIu8", %"PRIi32), rd, rs1, imm);
 392:../../emulator/emulator.c **** 					emu->Registers[rd] = emu->Registers[rs1] < imm;
 393:../../emulator/emulator.c **** 					break;
 394:../../emulator/emulator.c **** 
 395:../../emulator/emulator.c **** 				case 4:
 396:../../emulator/emulator.c **** 					/* XORI */
 397:../../emulator/emulator.c **** 					imm = sext(12, imm);
 398:../../emulator/emulator.c **** 					EMU_LOG(PSTR("xori r%"PRIu8", r%"PRIu8", 0x%08"PRIx32), rd, rs1, imm);
 399:../../emulator/emulator.c **** 					emu->Registers[rd] = emu->Registers[rs1] ^ imm;
 400:../../emulator/emulator.c **** 					break;
 401:../../emulator/emulator.c **** 
 402:../../emulator/emulator.c **** 				case 5:
 403:../../emulator/emulator.c **** 					if(imm >> 5)
 404:../../emulator/emulator.c **** 					{
 405:../../emulator/emulator.c **** 						/* SRAI */
 406:../../emulator/emulator.c **** 						imm &= 0x1F;
 407:../../emulator/emulator.c **** 						EMU_LOG(PSTR("srai r%"PRIu8", r%"PRIu8", %"PRIi32), rd, rs1, imm);
 408:../../emulator/emulator.c **** 						emu->Registers[rd] = (i32)emu->Registers[rs1] >> imm;
 409:../../emulator/emulator.c **** 					}
 410:../../emulator/emulator.c **** 					else
 411:../../emulator/emulator.c **** 					{
 412:../../emulator/emulator.c **** 						/* SRLI */
 413:../../emulator/emulator.c **** 						imm &= 0x1F;
 414:../../emulator/emulator.c **** 						EMU_LOG(PSTR("srli r%"PRIu8", r%"PRIu8", %"PRIi32), rd, rs1, imm);
 415:../../emulator/emulator.c **** 						emu->Registers[rd] = emu->Registers[rs1] >> imm;
 416:../../emulator/emulator.c **** 					}
 417:../../emulator/emulator.c **** 					break;
 418:../../emulator/emulator.c **** 
 419:../../emulator/emulator.c **** 				case 6:
 420:../../emulator/emulator.c **** 					/* ORI */
 421:../../emulator/emulator.c **** 					imm = sext(12, imm);
 422:../../emulator/emulator.c **** 					EMU_LOG(PSTR("ori r%"PRIu8", r%"PRIu8", 0x%08"PRIx32), rd, rs1, imm);
 423:../../emulator/emulator.c **** 					emu->Registers[rd] = emu->Registers[rs1] | imm;
 424:../../emulator/emulator.c **** 					break;
 425:../../emulator/emulator.c **** 
 426:../../emulator/emulator.c **** 				case 7:
 427:../../emulator/emulator.c **** 					/* ANDI */
 428:../../emulator/emulator.c **** 					imm = sext(12, imm);
 429:../../emulator/emulator.c **** 					EMU_LOG(PSTR("andi r%"PRIu8", r%"PRIu8", 0x%08"PRIx32), rd, rs1, imm);
 430:../../emulator/emulator.c **** 					emu->Registers[rd] = emu->Registers[rs1] & imm;
 431:../../emulator/emulator.c **** 					break;
 432:../../emulator/emulator.c **** 			}
 433:../../emulator/emulator.c **** 			break;
 434:../../emulator/emulator.c **** 		}
 435:../../emulator/emulator.c **** 
 436:../../emulator/emulator.c **** 		case OPCODE_AUIPC:
 437:../../emulator/emulator.c **** 		{
 438:../../emulator/emulator.c **** 			u8 rd;
 439:../../emulator/emulator.c **** 			u32 imm;
 440:../../emulator/emulator.c **** 			rd = (instr >> 7) & 0x1F;
 441:../../emulator/emulator.c **** 			imm = (instr >> 12);
 442:../../emulator/emulator.c **** 			EMU_LOG(PSTR("auipc r%"PRIu8", 0x%08"PRIx32), rd, imm);
 443:../../emulator/emulator.c **** 			emu->Registers[rd] = emu->PC + (imm << 12);
 444:../../emulator/emulator.c **** 			break;
 445:../../emulator/emulator.c **** 		}
 446:../../emulator/emulator.c **** 
 447:../../emulator/emulator.c **** 		case OPCODE_STORE:
 448:../../emulator/emulator.c **** 		{
 449:../../emulator/emulator.c **** 			i32 offset;
 450:../../emulator/emulator.c **** 			u32 imm;
 451:../../emulator/emulator.c **** 			u8 rs1, rs2, funct3;
 452:../../emulator/emulator.c **** 			funct3 = (instr >> 12) & 0x07;
 453:../../emulator/emulator.c **** 			rs1 = (instr >> 15) & 0x1F;
 454:../../emulator/emulator.c **** 			rs2 = (instr >> 20) & 0x1F;
 455:../../emulator/emulator.c **** 			imm = ((instr & 0xF80) >> 7) | ((instr & 0xFE000000) >> 20);
 456:../../emulator/emulator.c **** 			offset = sext(12, imm);
 457:../../emulator/emulator.c **** 			switch(funct3)
 458:../../emulator/emulator.c **** 			{
 459:../../emulator/emulator.c **** 				case 0:
 460:../../emulator/emulator.c **** 					/* SB */
 461:../../emulator/emulator.c **** 					EMU_LOG(PSTR("sb r%"PRIu8"%"PRIi32", r%"PRIu8), rs1, offset, rs2);
 462:../../emulator/emulator.c **** 					memory_sb(emu->Registers[rs1] + offset, emu->Registers[rs2]);
 463:../../emulator/emulator.c **** 					break;
 464:../../emulator/emulator.c **** 
 465:../../emulator/emulator.c **** 				case 1:
 466:../../emulator/emulator.c **** 					/* SH */
 467:../../emulator/emulator.c **** 					EMU_LOG(PSTR("sh r%"PRIu8"%"PRIi32", r%"PRIu8), rs1, offset, rs2);
 468:../../emulator/emulator.c **** 					memory_sh(emu->Registers[rs1] + offset, emu->Registers[rs2]);
 469:../../emulator/emulator.c **** 					break;
 470:../../emulator/emulator.c **** 
 471:../../emulator/emulator.c **** 				case 2:
 472:../../emulator/emulator.c **** 					/* SW */
 473:../../emulator/emulator.c **** 					EMU_LOG(PSTR("sw r%"PRIu8"%"PRIi32", r%"PRIu8), rs1, offset, rs2);
 474:../../emulator/emulator.c **** 					memory_sw(emu->Registers[rs1] + offset, emu->Registers[rs2]);
 475:../../emulator/emulator.c **** 					break;
 476:../../emulator/emulator.c **** 
 477:../../emulator/emulator.c **** 				default:
 478:../../emulator/emulator.c **** 					EMU_LOG(PSTR("INVALID"));
 479:../../emulator/emulator.c **** 					return true;
 480:../../emulator/emulator.c **** 			}
 481:../../emulator/emulator.c **** 			break;
 482:../../emulator/emulator.c **** 		}
 483:../../emulator/emulator.c **** 
 484:../../emulator/emulator.c **** 		case OPCODE_REG:
 485:../../emulator/emulator.c **** 		{
 486:../../emulator/emulator.c **** 			u8 rd, rs1, rs2, funct3, funct7;
 487:../../emulator/emulator.c **** 			rd = (instr >> 7) & 0x1F;
 488:../../emulator/emulator.c **** 			funct3 = (instr >> 12) & 0x07;
 489:../../emulator/emulator.c **** 			rs1 = (instr >> 15) & 0x1F;
 490:../../emulator/emulator.c **** 			rs2 = (instr >> 20) & 0x1F;
 491:../../emulator/emulator.c **** 			funct7 = (instr >> 25);
 492:../../emulator/emulator.c **** 			if(funct7 == 1)
 493:../../emulator/emulator.c **** 			{
 494:../../emulator/emulator.c **** 				/* Multiplication Extension */
 495:../../emulator/emulator.c **** 				switch(funct3)
 496:../../emulator/emulator.c **** 				{
 497:../../emulator/emulator.c **** 					case 0:
 498:../../emulator/emulator.c **** 						/* MUL */
 499:../../emulator/emulator.c **** 						EMU_LOG(PSTR("mul r%"PRIu8", r%"PRIu8", r%"PRIu8), rd, rs1, rs2);
 500:../../emulator/emulator.c **** 						emu->Registers[rd] = (i32)emu->Registers[rs1] * (i32)emu->Registers[rs2];
 501:../../emulator/emulator.c **** 						break;
 502:../../emulator/emulator.c **** 
 503:../../emulator/emulator.c **** 					case 1:
 504:../../emulator/emulator.c **** 						/* MULH */
 505:../../emulator/emulator.c **** 						EMU_LOG(PSTR("mulh r%"PRIu8", r%"PRIu8", r%"PRIu8), rd, rs1, rs2);
 506:../../emulator/emulator.c **** 						emu->Registers[rd] = ((i64)emu->Registers[rs1] * (i64)emu->Registers[rs2]) >> 32;
 507:../../emulator/emulator.c **** 						break;
 508:../../emulator/emulator.c **** 
 509:../../emulator/emulator.c **** 					case 2:
 510:../../emulator/emulator.c **** 						/* MULHSU */
 511:../../emulator/emulator.c **** 						EMU_LOG(PSTR("mulhsu r%"PRIu8", r%"PRIu8", r%"PRIu8), rd, rs1, rs2);
 512:../../emulator/emulator.c **** 						emu->Registers[rd] = ((i64)emu->Registers[rs1] * (u64)emu->Registers[rs2]) >> 32;
 513:../../emulator/emulator.c **** 						break;
 514:../../emulator/emulator.c **** 
 515:../../emulator/emulator.c **** 					case 3:
 516:../../emulator/emulator.c **** 						/* MULHU */
 517:../../emulator/emulator.c **** 						EMU_LOG(PSTR("mulhu r%"PRIu8", r%"PRIu8", r%"PRIu8), rd, rs1, rs2);
 518:../../emulator/emulator.c **** 						emu->Registers[rd] = ((u64)emu->Registers[rs1] * (u64)emu->Registers[rs2]) >> 32;
 519:../../emulator/emulator.c **** 						break;
 520:../../emulator/emulator.c **** 
 521:../../emulator/emulator.c **** 					case 4:
 522:../../emulator/emulator.c **** 						/* DIV */
 523:../../emulator/emulator.c **** 						EMU_LOG(PSTR("div r%"PRIu8", r%"PRIu8", r%"PRIu8), rd, rs1, rs2);
 524:../../emulator/emulator.c **** 						emu->Registers[rd] = (i32)emu->Registers[rs1] / (i32)emu->Registers[rs2];
 525:../../emulator/emulator.c **** 						break;
 526:../../emulator/emulator.c **** 
 527:../../emulator/emulator.c **** 					case 5:
 528:../../emulator/emulator.c **** 						/* DIVU */
 529:../../emulator/emulator.c **** 						EMU_LOG(PSTR("divu r%"PRIu8", r%"PRIu8", r%"PRIu8), rd, rs1, rs2);
 530:../../emulator/emulator.c **** 						emu->Registers[rd] = emu->Registers[rs1] / emu->Registers[rs2];
 531:../../emulator/emulator.c **** 						break;
 532:../../emulator/emulator.c **** 
 533:../../emulator/emulator.c **** 					case 6:
 534:../../emulator/emulator.c **** 						/* REM */
 535:../../emulator/emulator.c **** 						EMU_LOG(PSTR("rem r%"PRIu8", r%"PRIu8", r%"PRIu8), rd, rs1, rs2);
 536:../../emulator/emulator.c **** 						emu->Registers[rd] = (i32)emu->Registers[rs1] % (i32)emu->Registers[rs2];
 537:../../emulator/emulator.c **** 						break;
 538:../../emulator/emulator.c **** 
 539:../../emulator/emulator.c **** 					case 7:
 540:../../emulator/emulator.c **** 						/* REMU */
 541:../../emulator/emulator.c **** 						EMU_LOG(PSTR("remu r%"PRIu8", r%"PRIu8", r%"PRIu8), rd, rs1, rs2);
 542:../../emulator/emulator.c **** 						emu->Registers[rd] = emu->Registers[rs1] % emu->Registers[rs2];
 543:../../emulator/emulator.c **** 						break;
 544:../../emulator/emulator.c **** 				}
 545:../../emulator/emulator.c **** 			}
 546:../../emulator/emulator.c **** 			else
 547:../../emulator/emulator.c **** 			{
 548:../../emulator/emulator.c **** 				switch(funct3)
 549:../../emulator/emulator.c **** 				{
 550:../../emulator/emulator.c **** 					case 0:
 551:../../emulator/emulator.c **** 						if(funct7)
 552:../../emulator/emulator.c **** 						{
 553:../../emulator/emulator.c **** 							/* SUB */
 554:../../emulator/emulator.c **** 							EMU_LOG(PSTR("sub r%"PRIu8", r%"PRIu8", r%"PRIu8), rd, rs1, rs2);
 555:../../emulator/emulator.c **** 							emu->Registers[rd] = emu->Registers[rs1] - emu->Registers[rs2];
 556:../../emulator/emulator.c **** 						}
 557:../../emulator/emulator.c **** 						else
 558:../../emulator/emulator.c **** 						{
 559:../../emulator/emulator.c **** 							/* ADD */
 560:../../emulator/emulator.c **** 							EMU_LOG(PSTR("add r%"PRIu8", r%"PRIu8", r%"PRIu8), rd, rs1, rs2);
 561:../../emulator/emulator.c **** 							emu->Registers[rd] = emu->Registers[rs1] + emu->Registers[rs2];
 562:../../emulator/emulator.c **** 						}
 563:../../emulator/emulator.c **** 						break;
 564:../../emulator/emulator.c **** 
 565:../../emulator/emulator.c **** 					case 1:
 566:../../emulator/emulator.c **** 						/* SLL */
 567:../../emulator/emulator.c **** 						EMU_LOG(PSTR("sll r%"PRIu8", r%"PRIu8", r%"PRIu8), rd, rs1, rs2);
 568:../../emulator/emulator.c **** 						emu->Registers[rd] = emu->Registers[rs1] << (emu->Registers[rs2] & 0x1F);
 569:../../emulator/emulator.c **** 						break;
 570:../../emulator/emulator.c **** 
 571:../../emulator/emulator.c **** 					case 2:
 572:../../emulator/emulator.c **** 						/* SLT */
 573:../../emulator/emulator.c **** 						EMU_LOG(PSTR("slt r%"PRIu8", r%"PRIu8", r%"PRIu8), rd, rs1, rs2);
 574:../../emulator/emulator.c **** 						emu->Registers[rd] = (i32)emu->Registers[rs1] < (i32)emu->Registers[rs2];
 575:../../emulator/emulator.c **** 						break;
 576:../../emulator/emulator.c **** 
 577:../../emulator/emulator.c **** 					case 3:
 578:../../emulator/emulator.c **** 						/* SLTU */
 579:../../emulator/emulator.c **** 						EMU_LOG(PSTR("sltu r%"PRIu8", r%"PRIu8", r%"PRIu8), rd, rs1, rs2);
 580:../../emulator/emulator.c **** 						emu->Registers[rd] = emu->Registers[rs1] < emu->Registers[rs2];
 581:../../emulator/emulator.c **** 						break;
 582:../../emulator/emulator.c **** 
 583:../../emulator/emulator.c **** 					case 4:
 584:../../emulator/emulator.c **** 						/* XOR */
 585:../../emulator/emulator.c **** 						EMU_LOG(PSTR("xor r%"PRIu8", r%"PRIu8", r%"PRIu8), rd, rs1, rs2);
 586:../../emulator/emulator.c **** 						emu->Registers[rd] = emu->Registers[rs1] ^ emu->Registers[rs2];
 587:../../emulator/emulator.c **** 						break;
 588:../../emulator/emulator.c **** 
 589:../../emulator/emulator.c **** 					case 5:
 590:../../emulator/emulator.c **** 						if(funct7)
 591:../../emulator/emulator.c **** 						{
 592:../../emulator/emulator.c **** 							/* SRA */
 593:../../emulator/emulator.c **** 							EMU_LOG(PSTR("srl r%"PRIu8", r%"PRIu8", r%"PRIu8), rd, rs1, rs2);
 594:../../emulator/emulator.c **** 							emu->Registers[rd] = (i32)emu->Registers[rs1] >> (emu->Registers[rs2] & 0x1F);
 595:../../emulator/emulator.c **** 						}
 596:../../emulator/emulator.c **** 						else
 597:../../emulator/emulator.c **** 						{
 598:../../emulator/emulator.c **** 							/* SRL */
 599:../../emulator/emulator.c **** 							EMU_LOG(PSTR("sra r%"PRIu8", r%"PRIu8", r%"PRIu8), rd, rs1, rs2);
 600:../../emulator/emulator.c **** 							emu->Registers[rd] = emu->Registers[rs1] >> (emu->Registers[rs2] & 0x1F);
 601:../../emulator/emulator.c **** 						}
 602:../../emulator/emulator.c **** 						break;
 603:../../emulator/emulator.c **** 
 604:../../emulator/emulator.c **** 					case 6:
 605:../../emulator/emulator.c **** 						/* OR */
 606:../../emulator/emulator.c **** 						EMU_LOG(PSTR("or r%"PRIu8", r%"PRIu8", r%"PRIu8), rd, rs1, rs2);
 607:../../emulator/emulator.c **** 						emu->Registers[rd] = emu->Registers[rs1] | emu->Registers[rs2];
 608:../../emulator/emulator.c **** 						break;
 609:../../emulator/emulator.c **** 
 610:../../emulator/emulator.c **** 					case 7:
 611:../../emulator/emulator.c **** 						/* AND */
 612:../../emulator/emulator.c **** 						EMU_LOG(PSTR("and r%"PRIu8", r%"PRIu8", r%"PRIu8), rd, rs1, rs2);
 613:../../emulator/emulator.c **** 						emu->Registers[rd] = emu->Registers[rs1] & emu->Registers[rs2];
 614:../../emulator/emulator.c **** 						break;
 615:../../emulator/emulator.c **** 				}
 616:../../emulator/emulator.c **** 			}
 617:../../emulator/emulator.c **** 			break;
 618:../../emulator/emulator.c **** 		}
 619:../../emulator/emulator.c **** 
 620:../../emulator/emulator.c **** 		case OPCODE_LUI:
 621:../../emulator/emulator.c **** 		{
 622:../../emulator/emulator.c **** 			u8 rd;
 623:../../emulator/emulator.c **** 			u32 imm;
 624:../../emulator/emulator.c **** 			rd = (instr >> 7) & 0x1F;
 625:../../emulator/emulator.c **** 			imm = (instr >> 12);
 626:../../emulator/emulator.c **** 			EMU_LOG(PSTR("lui r%"PRIu8", 0x%08"PRIx32), rd, imm);
 627:../../emulator/emulator.c **** 			emu->Registers[rd] = (imm << 12);
 628:../../emulator/emulator.c **** 			break;
 629:../../emulator/emulator.c **** 		}
 630:../../emulator/emulator.c **** 
 631:../../emulator/emulator.c **** 		case OPCODE_BRANCH:
 632:../../emulator/emulator.c **** 		{
 633:../../emulator/emulator.c **** 			i32 offset;
 634:../../emulator/emulator.c **** 			u32 imm;
 635:../../emulator/emulator.c **** 			u8 rs1, rs2, funct3;
 636:../../emulator/emulator.c **** 			funct3 = (instr >> 12) & 0x07;
 637:../../emulator/emulator.c **** 			rs1 = (instr >> 15) & 0x1F;
 638:../../emulator/emulator.c **** 			rs2 = (instr >> 20) & 0x1F;
 639:../../emulator/emulator.c **** 			imm = ((instr & 0xF00) >> 7) |
 640:../../emulator/emulator.c **** 				((instr & 0x7E000000) >> 20) |
 641:../../emulator/emulator.c **** 				((instr & 0x80) << 4) |
 642:../../emulator/emulator.c **** 				((instr & 0x80000000) >> 20);
 643:../../emulator/emulator.c **** 
 644:../../emulator/emulator.c **** 			offset = sext(12, imm);
 645:../../emulator/emulator.c **** 			switch(funct3)
 646:../../emulator/emulator.c **** 			{
 647:../../emulator/emulator.c **** 				case 0:
 648:../../emulator/emulator.c **** 					/* BEQ */
 649:../../emulator/emulator.c **** 					EMU_LOG(PSTR("beq r%"PRIu8", r%"PRIu8", pc%+"PRIi32), rs1, rs2, offset);
 650:../../emulator/emulator.c **** 					if(emu->Registers[rs1] == emu->Registers[rs2])
 651:../../emulator/emulator.c **** 					{
 652:../../emulator/emulator.c **** 						emu->PC += offset;
 653:../../emulator/emulator.c **** 						return 0;
 654:../../emulator/emulator.c **** 					}
 655:../../emulator/emulator.c **** 					break;
 656:../../emulator/emulator.c **** 
 657:../../emulator/emulator.c **** 				case 1:
 658:../../emulator/emulator.c **** 					/* BNE */
 659:../../emulator/emulator.c **** 					EMU_LOG(PSTR("bne r%"PRIu8", r%"PRIu8", pc%+"PRIi32), rs1, rs2, offset);
 660:../../emulator/emulator.c **** 					if(emu->Registers[rs1] != emu->Registers[rs2])
 661:../../emulator/emulator.c **** 					{
 662:../../emulator/emulator.c **** 						emu->PC += offset;
 663:../../emulator/emulator.c **** 						return 0;
 664:../../emulator/emulator.c **** 					}
 665:../../emulator/emulator.c **** 					break;
 666:../../emulator/emulator.c **** 
 667:../../emulator/emulator.c **** 				case 4:
 668:../../emulator/emulator.c **** 					/* BLT */
 669:../../emulator/emulator.c **** 					EMU_LOG(PSTR("blt r%"PRIu8", r%"PRIu8", pc%+"PRIi32), rs1, rs2, offset);
 670:../../emulator/emulator.c **** 					if((i32)emu->Registers[rs1] < (i32)emu->Registers[rs2])
 671:../../emulator/emulator.c **** 					{
 672:../../emulator/emulator.c **** 						emu->PC += offset;
 673:../../emulator/emulator.c **** 						return 0;
 674:../../emulator/emulator.c **** 					}
 675:../../emulator/emulator.c **** 					break;
 676:../../emulator/emulator.c **** 
 677:../../emulator/emulator.c **** 				case 5:
 678:../../emulator/emulator.c **** 					/* BGE */
 679:../../emulator/emulator.c **** 					EMU_LOG(PSTR("bge r%"PRIu8", r%"PRIu8", pc%+"PRIi32), rs1, rs2, offset);
 680:../../emulator/emulator.c **** 					if((i32)emu->Registers[rs1] >= (i32)emu->Registers[rs2])
 681:../../emulator/emulator.c **** 					{
 682:../../emulator/emulator.c **** 						emu->PC += offset;
 683:../../emulator/emulator.c **** 						return 0;
 684:../../emulator/emulator.c **** 					}
 685:../../emulator/emulator.c **** 					break;
 686:../../emulator/emulator.c **** 
 687:../../emulator/emulator.c **** 				case 6:
 688:../../emulator/emulator.c **** 					/* BLTU */
 689:../../emulator/emulator.c **** 					EMU_LOG(PSTR("bltu r%"PRIu8", r%"PRIu8", pc%+"PRIi32), rs1, rs2, offset);
 690:../../emulator/emulator.c **** 					if(emu->Registers[rs1] < emu->Registers[rs2])
 691:../../emulator/emulator.c **** 					{
 692:../../emulator/emulator.c **** 						emu->PC += offset;
 693:../../emulator/emulator.c **** 						return 0;
 694:../../emulator/emulator.c **** 					}
 695:../../emulator/emulator.c **** 					break;
 696:../../emulator/emulator.c **** 
 697:../../emulator/emulator.c **** 				case 7:
 698:../../emulator/emulator.c **** 					/* BGEU */
 699:../../emulator/emulator.c **** 					EMU_LOG(PSTR("bgeu r%"PRIu8", r%"PRIu8", pc%+"PRIi32), rs1, rs2, offset);
 700:../../emulator/emulator.c **** 					if(emu->Registers[rs1] >= emu->Registers[rs2])
 701:../../emulator/emulator.c **** 					{
 702:../../emulator/emulator.c **** 						emu->PC += offset;
 703:../../emulator/emulator.c **** 						return 0;
 704:../../emulator/emulator.c **** 					}
 705:../../emulator/emulator.c **** 					break;
 706:../../emulator/emulator.c **** 
 707:../../emulator/emulator.c **** 				default:
 708:../../emulator/emulator.c **** 					EMU_LOG(PSTR("INVALID"));
 709:../../emulator/emulator.c **** 					return true;
 710:../../emulator/emulator.c **** 			}
 711:../../emulator/emulator.c **** 			break;
 712:../../emulator/emulator.c **** 		}
 713:../../emulator/emulator.c **** 
 714:../../emulator/emulator.c **** 		case OPCODE_JAL:
 715:../../emulator/emulator.c **** 		{
 716:../../emulator/emulator.c **** 			i32 offset;
 717:../../emulator/emulator.c **** 			u32 imm;
 718:../../emulator/emulator.c **** 			u8 rd;
 719:../../emulator/emulator.c **** 
 720:../../emulator/emulator.c **** 			rd = (instr >> 7) & 0x1F;
 721:../../emulator/emulator.c **** 
 722:../../emulator/emulator.c **** 			imm = ((instr & 0x80000000) >> 12) |
 723:../../emulator/emulator.c **** 					(instr & 0xFF000) |
 724:../../emulator/emulator.c **** 					((instr & 0x100000) >> 9) |
 725:../../emulator/emulator.c **** 					((instr & 0x7FE00000) >> 20);
 726:../../emulator/emulator.c **** 
 727:../../emulator/emulator.c **** 			offset = sext(20, imm);
 728:../../emulator/emulator.c **** 			EMU_LOG(PSTR("jal r%"PRIu8", pc%+"PRIi32), rd, offset);
 729:../../emulator/emulator.c **** 			emu->Registers[rd] = emu->PC + 4;
 730:../../emulator/emulator.c **** 			emu->PC += offset;
 731:../../emulator/emulator.c **** 			return 0;
 732:../../emulator/emulator.c **** 		}
 733:../../emulator/emulator.c **** 
 734:../../emulator/emulator.c **** 		case OPCODE_JALR:
 735:../../emulator/emulator.c **** 		{
 736:../../emulator/emulator.c **** 			u8 rd, rs1;
 737:../../emulator/emulator.c **** 			i32 offset;
 738:../../emulator/emulator.c **** 			u32 imm;
 739:../../emulator/emulator.c **** 			rd = (instr >> 7) & 0x1F;
 740:../../emulator/emulator.c **** 			rs1 = (instr >> 15) & 0x1F;
 741:../../emulator/emulator.c **** 			imm = (instr >> 20) & ~1;
 742:../../emulator/emulator.c **** 
 743:../../emulator/emulator.c **** 			offset = sext(12, imm);
 744:../../emulator/emulator.c **** 
 745:../../emulator/emulator.c **** 			EMU_LOG(PSTR("jalr r%"PRIu8", r%"PRIu8"%+"PRIi32),
 746:../../emulator/emulator.c **** 				rd, rs1, offset);
 747:../../emulator/emulator.c **** 
 748:../../emulator/emulator.c **** 			emu->Registers[rd] = emu->PC + 4;
 749:../../emulator/emulator.c **** 			emu->PC = emu->Registers[rs1] + offset;
 750:../../emulator/emulator.c **** 			return 0;
 751:../../emulator/emulator.c **** 		}
 752:../../emulator/emulator.c **** 
 753:../../emulator/emulator.c **** 		default:
 754:../../emulator/emulator.c **** 			EMU_LOG(PSTR("INVALID"));
 755:../../emulator/emulator.c **** 			return true;
 756:../../emulator/emulator.c **** 	}
 757:../../emulator/emulator.c **** 
 758:../../emulator/emulator.c **** 	emu->PC += 4;
 759:../../emulator/emulator.c **** 	return false;
 760:../../emulator/emulator.c **** }
 761:../../emulator/emulator.c **** 
 762:../../emulator/emulator.c **** void emulator_call(Emulator *emu, u32 addr, u32 *args, u8 num, u32 sp)
 763:../../emulator/emulator.c **** {
 658               		.loc 1 763 1 is_stmt 1 view -0
 659               		.cfi_startproc
 660               		.loc 1 763 1 is_stmt 0 view .LVU87
 661 02be 2F92      		push r2
 662               		.cfi_def_cfa_offset 3
 663               		.cfi_offset 2, -2
 664 02c0 3F92      		push r3
 665               		.cfi_def_cfa_offset 4
 666               		.cfi_offset 3, -3
 667 02c2 4F92      		push r4
 668               		.cfi_def_cfa_offset 5
 669               		.cfi_offset 4, -4
 670 02c4 5F92      		push r5
 671               		.cfi_def_cfa_offset 6
 672               		.cfi_offset 5, -5
 673 02c6 6F92      		push r6
 674               		.cfi_def_cfa_offset 7
 675               		.cfi_offset 6, -6
 676 02c8 7F92      		push r7
 677               		.cfi_def_cfa_offset 8
 678               		.cfi_offset 7, -7
 679 02ca 8F92      		push r8
 680               		.cfi_def_cfa_offset 9
 681               		.cfi_offset 8, -8
 682 02cc 9F92      		push r9
 683               		.cfi_def_cfa_offset 10
 684               		.cfi_offset 9, -9
 685 02ce AF92      		push r10
 686               		.cfi_def_cfa_offset 11
 687               		.cfi_offset 10, -10
 688 02d0 BF92      		push r11
 689               		.cfi_def_cfa_offset 12
 690               		.cfi_offset 11, -11
 691 02d2 CF92      		push r12
 692               		.cfi_def_cfa_offset 13
 693               		.cfi_offset 12, -12
 694 02d4 DF92      		push r13
 695               		.cfi_def_cfa_offset 14
 696               		.cfi_offset 13, -13
 697 02d6 EF92      		push r14
 698               		.cfi_def_cfa_offset 15
 699               		.cfi_offset 14, -14
 700 02d8 FF92      		push r15
 701               		.cfi_def_cfa_offset 16
 702               		.cfi_offset 15, -15
 703 02da 0F93      		push r16
 704               		.cfi_def_cfa_offset 17
 705               		.cfi_offset 16, -16
 706 02dc 1F93      		push r17
 707               		.cfi_def_cfa_offset 18
 708               		.cfi_offset 17, -17
 709 02de CF93      		push r28
 710               		.cfi_def_cfa_offset 19
 711               		.cfi_offset 28, -18
 712 02e0 DF93      		push r29
 713               		.cfi_def_cfa_offset 20
 714               		.cfi_offset 29, -19
 715 02e2 CDB7      		in r28,__SP_L__
 716 02e4 DEB7      		in r29,__SP_H__
 717               		.cfi_def_cfa_register 28
 718 02e6 2897      		sbiw r28,8
 719               		.cfi_def_cfa_offset 28
 720 02e8 0FB6      		in __tmp_reg__,__SREG__
 721 02ea F894      		cli
 722 02ec DEBF      		out __SP_H__,r29
 723 02ee 0FBE      		out __SREG__,__tmp_reg__
 724 02f0 CDBF      		out __SP_L__,r28
 725               	/* prologue: function */
 726               	/* frame size = 8 */
 727               	/* stack size = 26 */
 728               	.L__stack_usage = 26
 729 02f2 5C01      		movw r10,r24
 764:../../emulator/emulator.c **** 	/* Initialize Stack Pointer at end of memory */
 765:../../emulator/emulator.c **** 	emu->Registers[2] = sp - 4;
 730               		.loc 1 765 2 is_stmt 1 view .LVU88
 731               		.loc 1 765 25 is_stmt 0 view .LVU89
 732 02f4 14E0      		ldi r17,4
 733 02f6 C11A      		sub r12,r17
 734 02f8 D108      		sbc r13,__zero_reg__
 735 02fa E108      		sbc r14,__zero_reg__
 736 02fc F108      		sbc r15,__zero_reg__
 737               	.LVL37:
 738               		.loc 1 765 20 view .LVU90
 739 02fe DC01      		movw r26,r24
 740 0300 5496      		adiw r26,20
 741 0302 CD92      		st X+,r12
 742 0304 DD92      		st X+,r13
 743 0306 ED92      		st X+,r14
 744 0308 FC92      		st X,r15
 745 030a 5797      		sbiw r26,20+3
 766:../../emulator/emulator.c **** 
 767:../../emulator/emulator.c **** 	emu->PC = addr;
 746               		.loc 1 767 2 is_stmt 1 view .LVU91
 747               		.loc 1 767 10 is_stmt 0 view .LVU92
 748 030c FC01      		movw r30,r24
 749 030e 4087      		std Z+8,r20
 750 0310 5187      		std Z+9,r21
 751 0312 6287      		std Z+10,r22
 752 0314 7387      		std Z+11,r23
 768:../../emulator/emulator.c **** 	memcpy(&emu->Registers[10], args, num * sizeof(*emu->Registers));
 753               		.loc 1 768 2 is_stmt 1 view .LVU93
 754               		.loc 1 768 9 is_stmt 0 view .LVU94
 755 0316 4C01      		movw r8,r24
 756 0318 F4E3      		ldi r31,52
 757 031a 8F0E      		add r8,r31
 758 031c 911C      		adc r9,__zero_reg__
 759               		.loc 1 768 2 view .LVU95
 760 031e 14E0      		ldi r17,lo8(4)
 761 0320 019F      		mul r16,r17
 762 0322 A001      		movw r20,r0
 763 0324 1124      		clr __zero_reg__
 764               	.LVL38:
 765               		.loc 1 768 2 view .LVU96
 766 0326 622F      		mov r22,r18
 767 0328 732F      		mov r23,r19
 768 032a C401      		movw r24,r8
 769               	.LVL39:
 770               		.loc 1 768 2 view .LVU97
 771 032c 0E94 0000 		call memcpy
 772               	.LVL40:
 769:../../emulator/emulator.c **** 
 770:../../emulator/emulator.c **** 	u32 i = 0;
 773               		.loc 1 770 2 is_stmt 1 view .LVU98
 771:../../emulator/emulator.c **** 	_finished = false;
 774               		.loc 1 771 2 view .LVU99
 775               		.loc 1 771 12 is_stmt 0 view .LVU100
 776 0330 1092 0000 		sts _finished,__zero_reg__
 777               	.LBB85:
 778               	.LBB86:
 779               	.LBB87:
 780               	.LBB88:
 144:../../emulator/emulator.c **** 	return value;
 781               		.loc 1 144 2 view .LVU101
 782 0334 9E01      		movw r18,r28
 783 0336 2F5F      		subi r18,-1
 784 0338 3F4F      		sbci r19,-1
 785 033a 6901      		movw r12,r18
 786               	.LVL41:
 787               	.L83:
 144:../../emulator/emulator.c **** 	return value;
 788               		.loc 1 144 2 view .LVU102
 789               	.LBE88:
 790               	.LBE87:
 791               	.LBE86:
 792               	.LBE85:
 772:../../emulator/emulator.c **** 	for(;;)
 793               		.loc 1 772 2 is_stmt 1 view .LVU103
 773:../../emulator/emulator.c **** 	{
 774:../../emulator/emulator.c **** 		if(emulator_next(emu))
 794               		.loc 1 774 3 view .LVU104
 795               	.LBB199:
 796               	.LBI85:
 282:../../emulator/emulator.c **** {
 797               		.loc 1 282 13 view .LVU105
 798               	.LBB196:
 284:../../emulator/emulator.c **** 	instr = memory_lw(emu->PC);
 799               		.loc 1 284 2 view .LVU106
 285:../../emulator/emulator.c **** 
 800               		.loc 1 285 2 view .LVU107
 801               	.LBB90:
 802               	.LBI87:
 141:../../emulator/emulator.c **** {
 803               		.loc 1 141 12 view .LVU108
 804               	.LBB89:
 143:../../emulator/emulator.c **** 	memory_read(addr, &value, 4);
 805               		.loc 1 143 2 view .LVU109
 144:../../emulator/emulator.c **** 	return value;
 806               		.loc 1 144 2 view .LVU110
 807 033c D501      		movw r26,r10
 808 033e 1896      		adiw r26,8
 809 0340 8D91      		ld r24,X+
 810 0342 9D91      		ld r25,X+
 811 0344 0D90      		ld __tmp_reg__,X+
 812 0346 BC91      		ld r27,X
 813 0348 A02D      		mov r26,__tmp_reg__
 814 034a 8D83      		std Y+5,r24
 815 034c 9E83      		std Y+6,r25
 816 034e AF83      		std Y+7,r26
 817 0350 B887      		std Y+8,r27
 818 0352 04E0      		ldi r16,lo8(4)
 819 0354 10E0      		ldi r17,0
 820 0356 20E0      		ldi r18,0
 821 0358 30E0      		ldi r19,0
 822 035a A601      		movw r20,r12
 823 035c BC01      		movw r22,r24
 824 035e CD01      		movw r24,r26
 825 0360 0E94 0000 		call memory_read
 826               	.LVL42:
 145:../../emulator/emulator.c **** }
 827               		.loc 1 145 2 view .LVU111
 145:../../emulator/emulator.c **** }
 828               		.loc 1 145 9 is_stmt 0 view .LVU112
 829 0364 8981      		ldd r24,Y+1
 830 0366 9A81      		ldd r25,Y+2
 831 0368 AB81      		ldd r26,Y+3
 832 036a BC81      		ldd r27,Y+4
 833               	.LVL43:
 145:../../emulator/emulator.c **** }
 834               		.loc 1 145 9 view .LVU113
 835               	.LBE89:
 836               	.LBE90:
 288:../../emulator/emulator.c **** 
 837               		.loc 1 288 2 is_stmt 1 view .LVU114
 288:../../emulator/emulator.c **** 
 838               		.loc 1 288 20 is_stmt 0 view .LVU115
 839 036c F501      		movw r30,r10
 840 036e 1486      		std Z+12,__zero_reg__
 841 0370 1586      		std Z+13,__zero_reg__
 842 0372 1686      		std Z+14,__zero_reg__
 843 0374 1786      		std Z+15,__zero_reg__
 291:../../emulator/emulator.c **** 	if((opcode & 0x03) != 0x03)
 844               		.loc 1 291 2 is_stmt 1 view .LVU116
 845               	.LVL44:
 292:../../emulator/emulator.c **** 	{
 846               		.loc 1 292 2 view .LVU117
 292:../../emulator/emulator.c **** 	{
 847               		.loc 1 292 13 is_stmt 0 view .LVU118
 848 0376 8C01      		movw r16,r24
 849 0378 9D01      		movw r18,r26
 850 037a 0370      		andi r16,3
 851 037c 1127      		clr r17
 852 037e 2227      		clr r18
 853 0380 3327      		clr r19
 854 0382 A601      		movw r20,r12
 292:../../emulator/emulator.c **** 	{
 855               		.loc 1 292 4 view .LVU119
 856 0384 0330      		cpi r16,3
 857 0386 1105      		cpc r17,__zero_reg__
 858 0388 2105      		cpc r18,__zero_reg__
 859 038a 3105      		cpc r19,__zero_reg__
 860 038c 01F0      		breq .+2
 861 038e 00C0      		rjmp .L16
 298:../../emulator/emulator.c **** 	switch(opcode)
 862               		.loc 1 298 2 is_stmt 1 view .LVU120
 863               	.LVL45:
 299:../../emulator/emulator.c **** 	{
 864               		.loc 1 299 2 view .LVU121
 298:../../emulator/emulator.c **** 	switch(opcode)
 865               		.loc 1 298 9 is_stmt 0 view .LVU122
 866 0390 8C01      		movw r16,r24
 867 0392 9D01      		movw r18,r26
 868 0394 62E0      		ldi r22,2
 869               		1:
 870 0396 3695      		lsr r19
 871 0398 2795      		ror r18
 872 039a 1795      		ror r17
 873 039c 0795      		ror r16
 874 039e 6A95      		dec r22
 875 03a0 01F4      		brne 1b
 876 03a2 0F71      		andi r16,31
 877 03a4 1127      		clr r17
 878 03a6 2227      		clr r18
 879 03a8 3327      		clr r19
 880               	.LVL46:
 299:../../emulator/emulator.c **** 	{
 881               		.loc 1 299 2 view .LVU123
 882 03aa 0D31      		cpi r16,29
 883 03ac 1105      		cpc r17,__zero_reg__
 884 03ae 2105      		cpc r18,__zero_reg__
 885 03b0 3105      		cpc r19,__zero_reg__
 886 03b2 00F0      		brlo .+2
 887 03b4 00C0      		rjmp .L16
 888 03b6 F801      		movw r30,r16
 889 03b8 E050      		subi r30,lo8(-(gs(.L20)))
 890 03ba F040      		sbci r31,hi8(-(gs(.L20)))
 891 03bc 0C94 0000 		jmp __tablejump2__
 892               		.section	.jumptables.gcc.emulator_call,"a",@progbits
 893               		.p2align	1
 894               	.L20:
 895 0000 0000      		.word gs(.L29)
 896 0002 0000      		.word gs(.L16)
 897 0004 0000      		.word gs(.L16)
 898 0006 0000      		.word gs(.L16)
 899 0008 0000      		.word gs(.L28)
 900 000a 0000      		.word gs(.L27)
 901 000c 0000      		.word gs(.L16)
 902 000e 0000      		.word gs(.L16)
 903 0010 0000      		.word gs(.L26)
 904 0012 0000      		.word gs(.L16)
 905 0014 0000      		.word gs(.L16)
 906 0016 0000      		.word gs(.L16)
 907 0018 0000      		.word gs(.L25)
 908 001a 0000      		.word gs(.L24)
 909 001c 0000      		.word gs(.L16)
 910 001e 0000      		.word gs(.L16)
 911 0020 0000      		.word gs(.L16)
 912 0022 0000      		.word gs(.L16)
 913 0024 0000      		.word gs(.L16)
 914 0026 0000      		.word gs(.L16)
 915 0028 0000      		.word gs(.L16)
 916 002a 0000      		.word gs(.L16)
 917 002c 0000      		.word gs(.L16)
 918 002e 0000      		.word gs(.L16)
 919 0030 0000      		.word gs(.L23)
 920 0032 0000      		.word gs(.L22)
 921 0034 0000      		.word gs(.L16)
 922 0036 0000      		.word gs(.L21)
 923 0038 0000      		.word gs(.L19)
 924               		.text
 925               	.L19:
 302:../../emulator/emulator.c **** 			{
 926               		.loc 1 302 4 is_stmt 1 view .LVU124
 302:../../emulator/emulator.c **** 			{
 927               		.loc 1 302 7 is_stmt 0 view .LVU125
 928 03c0 F501      		movw r30,r10
 929 03c2 E05B      		subi r30,-80
 930 03c4 FF4F      		sbci r31,-1
 931 03c6 8081      		ld r24,Z
 932 03c8 9181      		ldd r25,Z+1
 933 03ca A281      		ldd r26,Z+2
 934 03cc B381      		ldd r27,Z+3
 935               	.LVL47:
 936               	.LBB91:
 937               	.LBI91:
 270:../../emulator/emulator.c **** {
 938               		.loc 1 270 12 is_stmt 1 view .LVU126
 939               	.LBB92:
 272:../../emulator/emulator.c **** 	{
 940               		.loc 1 272 2 view .LVU127
 272:../../emulator/emulator.c **** 	{
 941               		.loc 1 272 4 is_stmt 0 view .LVU128
 942 03ce 8E30      		cpi r24,14
 943 03d0 9105      		cpc r25,__zero_reg__
 944 03d2 A105      		cpc r26,__zero_reg__
 945 03d4 B105      		cpc r27,__zero_reg__
 946 03d6 00F0      		brlo .+2
 947 03d8 00C0      		rjmp .L16
 277:../../emulator/emulator.c **** 	return 0;
 948               		.loc 1 277 2 is_stmt 1 view .LVU129
 277:../../emulator/emulator.c **** 	return 0;
 949               		.loc 1 277 20 is_stmt 0 view .LVU130
 950 03da 880F      		lsl r24
 951 03dc 991F      		rol r25
 952               	.LVL48:
 277:../../emulator/emulator.c **** 	return 0;
 953               		.loc 1 277 20 view .LVU131
 954 03de FC01      		movw r30,r24
 955               	.LVL49:
 277:../../emulator/emulator.c **** 	return 0;
 956               		.loc 1 277 20 view .LVU132
 957 03e0 E050      		subi r30,lo8(-(syscalls))
 958 03e2 F040      		sbci r31,hi8(-(syscalls))
 277:../../emulator/emulator.c **** 	return 0;
 959               		.loc 1 277 12 view .LVU133
 960 03e4 0190      		ld __tmp_reg__,Z+
 961 03e6 F081      		ld r31,Z
 962 03e8 E02D      		mov r30,__tmp_reg__
 963 03ea C401      		movw r24,r8
 964 03ec 0995      		icall
 965               	.LVL50:
 277:../../emulator/emulator.c **** 	return 0;
 966               		.loc 1 277 12 view .LVU134
 967 03ee D501      		movw r26,r10
 968 03f0 D496      		adiw r26,52
 969 03f2 6D93      		st X+,r22
 970 03f4 7D93      		st X+,r23
 971 03f6 8D93      		st X+,r24
 972 03f8 9C93      		st X,r25
 973 03fa D797      		sbiw r26,52+3
 278:../../emulator/emulator.c **** }
 974               		.loc 1 278 2 is_stmt 1 view .LVU135
 975               	.LVL51:
 976               	.L31:
 278:../../emulator/emulator.c **** }
 977               		.loc 1 278 2 is_stmt 0 view .LVU136
 978               	.LBE92:
 979               	.LBE91:
 758:../../emulator/emulator.c **** 	return false;
 980               		.loc 1 758 2 is_stmt 1 view .LVU137
 758:../../emulator/emulator.c **** 	return false;
 981               		.loc 1 758 10 is_stmt 0 view .LVU138
 982 03fc F501      		movw r30,r10
 983 03fe 8085      		ldd r24,Z+8
 984 0400 9185      		ldd r25,Z+9
 985 0402 A285      		ldd r26,Z+10
 986 0404 B385      		ldd r27,Z+11
 987 0406 0496      		adiw r24,4
 988 0408 A11D      		adc r26,__zero_reg__
 989 040a B11D      		adc r27,__zero_reg__
 759:../../emulator/emulator.c **** }
 990               		.loc 1 759 2 is_stmt 1 view .LVU139
 991               	.LVL52:
 759:../../emulator/emulator.c **** }
 992               		.loc 1 759 2 is_stmt 0 view .LVU140
 993 040c 00C0      		rjmp .L82
 994               	.LVL53:
 995               	.L29:
 996               	.LBB93:
 311:../../emulator/emulator.c **** 			u32 imm;
 997               		.loc 1 311 4 is_stmt 1 view .LVU141
 312:../../emulator/emulator.c **** 			u8 rd, rs1, funct3;
 998               		.loc 1 312 4 view .LVU142
 313:../../emulator/emulator.c **** 			rd = (instr >> 7) & 0x1F;
 999               		.loc 1 313 4 view .LVU143
 314:../../emulator/emulator.c **** 			funct3 = (instr >> 12) & 0x07;
 1000               		.loc 1 314 4 view .LVU144
 314:../../emulator/emulator.c **** 			funct3 = (instr >> 12) & 0x07;
 1001               		.loc 1 314 16 is_stmt 0 view .LVU145
 1002 040e 8C01      		movw r16,r24
 1003 0410 9D01      		movw r18,r26
 1004               	.LVL54:
 314:../../emulator/emulator.c **** 			funct3 = (instr >> 12) & 0x07;
 1005               		.loc 1 314 16 view .LVU146
 1006 0412 E7E0      		ldi r30,7
 1007               		1:
 1008 0414 3695      		lsr r19
 1009 0416 2795      		ror r18
 1010 0418 1795      		ror r17
 1011 041a 0795      		ror r16
 1012 041c EA95      		dec r30
 1013 041e 01F4      		brne 1b
 314:../../emulator/emulator.c **** 			funct3 = (instr >> 12) & 0x07;
 1014               		.loc 1 314 7 view .LVU147
 1015 0420 E02F      		mov r30,r16
 1016 0422 EF71      		andi r30,lo8(31)
 1017 0424 6E2E      		mov r6,r30
 1018               	.LVL55:
 315:../../emulator/emulator.c **** 			rs1 = (instr >> 15) & 0x1F;
 1019               		.loc 1 315 4 is_stmt 1 view .LVU148
 315:../../emulator/emulator.c **** 			rs1 = (instr >> 15) & 0x1F;
 1020               		.loc 1 315 20 is_stmt 0 view .LVU149
 1021 0426 8C01      		movw r16,r24
 1022 0428 9D01      		movw r18,r26
 1023 042a FCE0      		ldi r31,12
 1024               		1:
 1025 042c 3695      		lsr r19
 1026 042e 2795      		ror r18
 1027 0430 1795      		ror r17
 1028 0432 0795      		ror r16
 1029 0434 FA95      		dec r31
 1030 0436 01F4      		brne 1b
 315:../../emulator/emulator.c **** 			rs1 = (instr >> 15) & 0x1F;
 1031               		.loc 1 315 11 view .LVU150
 1032 0438 602F      		mov r22,r16
 1033 043a 6770      		andi r22,lo8(7)
 1034               	.LVL56:
 316:../../emulator/emulator.c **** 			imm = (instr >> 20);
 1035               		.loc 1 316 4 is_stmt 1 view .LVU151
 316:../../emulator/emulator.c **** 			imm = (instr >> 20);
 1036               		.loc 1 316 17 is_stmt 0 view .LVU152
 1037 043c 8C01      		movw r16,r24
 1038 043e 9D01      		movw r18,r26
 1039 0440 7FE0      		ldi r23,15
 1040               		1:
 1041 0442 3695      		lsr r19
 1042 0444 2795      		ror r18
 1043 0446 1795      		ror r17
 1044 0448 0795      		ror r16
 1045 044a 7A95      		dec r23
 1046 044c 01F4      		brne 1b
 316:../../emulator/emulator.c **** 			imm = (instr >> 20);
 1047               		.loc 1 316 8 view .LVU153
 1048 044e 0F71      		andi r16,lo8(31)
 1049               	.LVL57:
 317:../../emulator/emulator.c **** 			offset = sext(12, imm);
 1050               		.loc 1 317 4 is_stmt 1 view .LVU154
 318:../../emulator/emulator.c **** 			switch(funct3)
 1051               		.loc 1 318 4 view .LVU155
 1052               	.LBB94:
 1053               	.LBI94:
  64:../../emulator/emulator.c **** {
 1054               		.loc 1 64 19 view .LVU156
 1055               	.LBB95:
  66:../../emulator/emulator.c **** 	return (value ^ m) - m;
 1056               		.loc 1 66 2 view .LVU157
  67:../../emulator/emulator.c **** }
 1057               		.loc 1 67 2 view .LVU158
 1058               	.LBE95:
 1059               	.LBE94:
 317:../../emulator/emulator.c **** 			offset = sext(12, imm);
 1060               		.loc 1 317 8 is_stmt 0 view .LVU159
 1061 0450 E4E1      		ldi r30,20
 1062               		1:
 1063 0452 B695      		lsr r27
 1064 0454 A795      		ror r26
 1065 0456 9795      		ror r25
 1066 0458 8795      		ror r24
 1067 045a EA95      		dec r30
 1068 045c 01F4      		brne 1b
 1069               	.LVL58:
 1070               	.LBB97:
 1071               	.LBB96:
  67:../../emulator/emulator.c **** }
 1072               		.loc 1 67 16 view .LVU160
 1073 045e F8E0      		ldi r31,8
 1074 0460 9F27      		eor r25,r31
 1075               	.LVL59:
  67:../../emulator/emulator.c **** }
 1076               		.loc 1 67 21 view .LVU161
 1077 0462 9850      		subi r25,8
 1078 0464 A109      		sbc r26,__zero_reg__
 1079 0466 B109      		sbc r27,__zero_reg__
 1080               	.LVL60:
  67:../../emulator/emulator.c **** }
 1081               		.loc 1 67 21 view .LVU162
 1082               	.LBE96:
 1083               	.LBE97:
 319:../../emulator/emulator.c **** 			{
 1084               		.loc 1 319 4 is_stmt 1 view .LVU163
 1085 0468 6230      		cpi r22,lo8(2)
 1086 046a 01F4      		brne .+2
 1087 046c 00C0      		rjmp .L32
 1088 046e 00F4      		brsh .L33
 1089 0470 E02F      		mov r30,r16
 1090 0472 F0E0      		ldi r31,0
 1091 0474 712C      		mov r7,__zero_reg__
 1092 0476 6111      		cpse r22,__zero_reg__
 1093 0478 00C0      		rjmp .L84
 323:../../emulator/emulator.c **** 					emu->Registers[rd] = memory_lb(emu->Registers[rs1] + offset);
 1094               		.loc 1 323 71 view .LVU164
 324:../../emulator/emulator.c **** 					break;
 1095               		.loc 1 324 6 view .LVU165
 1096               	.LVL61:
 1097               	.LBB98:
 1098               	.LBI98:
 127:../../emulator/emulator.c **** {
 1099               		.loc 1 127 12 view .LVU166
 1100               	.LBB99:
 129:../../emulator/emulator.c **** 	memory_read(addr, &value8, 1);
 1101               		.loc 1 129 2 view .LVU167
 130:../../emulator/emulator.c **** 	return (i32)value8;
 1102               		.loc 1 130 2 view .LVU168
 1103               	.LBE99:
 1104               	.LBE98:
 324:../../emulator/emulator.c **** 					break;
 1105               		.loc 1 324 51 is_stmt 0 view .LVU169
 1106 047a 3396      		adiw r30,3
 1107 047c EE0F      		lsl r30
 1108 047e FF1F      		rol r31
 1109 0480 EE0F      		lsl r30
 1110 0482 FF1F      		rol r31
 1111 0484 EA0D      		add r30,r10
 1112 0486 FB1D      		adc r31,r11
 324:../../emulator/emulator.c **** 					break;
 1113               		.loc 1 324 27 view .LVU170
 1114 0488 0081      		ld r16,Z
 1115 048a 1181      		ldd r17,Z+1
 1116 048c 2281      		ldd r18,Z+2
 1117 048e 3381      		ldd r19,Z+3
 1118 0490 1C01      		movw r2,r24
 1119 0492 2D01      		movw r4,r26
 1120 0494 200E      		add r2,r16
 1121 0496 311E      		adc r3,r17
 1122 0498 421E      		adc r4,r18
 1123 049a 531E      		adc r5,r19
 1124 049c 2D82      		std Y+5,r2
 1125 049e 3E82      		std Y+6,r3
 1126 04a0 4F82      		std Y+7,r4
 1127 04a2 5886      		std Y+8,r5
 1128               	.LBB101:
 1129               	.LBB100:
 130:../../emulator/emulator.c **** 	return (i32)value8;
 1130               		.loc 1 130 2 view .LVU171
 1131 04a4 01E0      		ldi r16,lo8(1)
 1132 04a6 10E0      		ldi r17,0
 1133 04a8 20E0      		ldi r18,0
 1134 04aa 30E0      		ldi r19,0
 1135 04ac C201      		movw r24,r4
 1136 04ae B101      		movw r22,r2
 1137               	.LVL62:
 130:../../emulator/emulator.c **** 	return (i32)value8;
 1138               		.loc 1 130 2 view .LVU172
 1139 04b0 0E94 0000 		call memory_read
 1140               	.LVL63:
 131:../../emulator/emulator.c **** }
 1141               		.loc 1 131 2 is_stmt 1 view .LVU173
 131:../../emulator/emulator.c **** }
 1142               		.loc 1 131 9 is_stmt 0 view .LVU174
 1143 04b4 8981      		ldd r24,Y+1
 1144 04b6 082E      		mov __tmp_reg__,r24
 1145 04b8 000C      		lsl r0
 1146 04ba 990B      		sbc r25,r25
 1147 04bc AA0B      		sbc r26,r26
 1148 04be BB0B      		sbc r27,r27
 1149               	.LVL64:
 1150               	.L86:
 131:../../emulator/emulator.c **** }
 1151               		.loc 1 131 9 view .LVU175
 1152               	.LBE100:
 1153               	.LBE101:
 330:../../emulator/emulator.c **** 					break;
 1154               		.loc 1 330 25 view .LVU176
 1155 04c0 F301      		movw r30,r6
 1156               	.L88:
 1157 04c2 3396      		adiw r30,3
 1158 04c4 EE0F      		lsl r30
 1159 04c6 FF1F      		rol r31
 1160 04c8 EE0F      		lsl r30
 1161 04ca FF1F      		rol r31
 1162 04cc EA0D      		add r30,r10
 1163 04ce FB1D      		adc r31,r11
 1164               	.LVL65:
 1165               	.L87:
 330:../../emulator/emulator.c **** 					break;
 1166               		.loc 1 330 25 view .LVU177
 1167 04d0 8083      		st Z,r24
 1168 04d2 9183      		std Z+1,r25
 1169 04d4 A283      		std Z+2,r26
 1170 04d6 B383      		std Z+3,r27
 331:../../emulator/emulator.c **** 
 1171               		.loc 1 331 6 is_stmt 1 view .LVU178
 1172 04d8 00C0      		rjmp .L31
 1173               	.LVL66:
 1174               	.L33:
 331:../../emulator/emulator.c **** 
 1175               		.loc 1 331 6 is_stmt 0 view .LVU179
 1176 04da 6430      		cpi r22,lo8(4)
 1177 04dc 01F4      		brne .+2
 1178 04de 00C0      		rjmp .L36
 1179 04e0 6530      		cpi r22,lo8(5)
 1180 04e2 01F4      		brne .+2
 1181 04e4 00C0      		rjmp .L37
 1182               	.LVL67:
 1183               	.L16:
 1184               	/* epilogue start */
 331:../../emulator/emulator.c **** 
 1185               		.loc 1 331 6 view .LVU180
 1186               	.LBE93:
 1187               	.LBE196:
 1188               	.LBE199:
 775:../../emulator/emulator.c **** 		{
 776:../../emulator/emulator.c **** 			return;
 777:../../emulator/emulator.c **** 		}
 778:../../emulator/emulator.c **** 
 779:../../emulator/emulator.c **** 		++i;
 780:../../emulator/emulator.c **** 		if(_finished)
 781:../../emulator/emulator.c **** 		{
 782:../../emulator/emulator.c **** 			EMU_LOG(PSTR("%"PRIu32" Cycles"), i);
 783:../../emulator/emulator.c **** 			return;
 784:../../emulator/emulator.c **** 		}
 785:../../emulator/emulator.c **** 	}
 786:../../emulator/emulator.c **** }
 1189               		.loc 1 786 1 view .LVU181
 1190 04e6 2896      		adiw r28,8
 1191 04e8 0FB6      		in __tmp_reg__,__SREG__
 1192 04ea F894      		cli
 1193 04ec DEBF      		out __SP_H__,r29
 1194 04ee 0FBE      		out __SREG__,__tmp_reg__
 1195 04f0 CDBF      		out __SP_L__,r28
 1196 04f2 DF91      		pop r29
 1197 04f4 CF91      		pop r28
 1198 04f6 1F91      		pop r17
 1199 04f8 0F91      		pop r16
 1200 04fa FF90      		pop r15
 1201 04fc EF90      		pop r14
 1202 04fe DF90      		pop r13
 1203 0500 CF90      		pop r12
 1204 0502 BF90      		pop r11
 1205 0504 AF90      		pop r10
 1206               	.LVL68:
 1207               		.loc 1 786 1 view .LVU182
 1208 0506 9F90      		pop r9
 1209 0508 8F90      		pop r8
 1210               	.LVL69:
 1211               		.loc 1 786 1 view .LVU183
 1212 050a 7F90      		pop r7
 1213 050c 6F90      		pop r6
 1214 050e 5F90      		pop r5
 1215 0510 4F90      		pop r4
 1216 0512 3F90      		pop r3
 1217 0514 2F90      		pop r2
 1218 0516 0895      		ret
 1219               	.LVL70:
 1220               	.L84:
 1221               	.LBB200:
 1222               	.LBB197:
 1223               	.LBB118:
 329:../../emulator/emulator.c **** 					emu->Registers[rd] = memory_lh(emu->Registers[rs1] + offset);
 1224               		.loc 1 329 70 is_stmt 1 view .LVU184
 330:../../emulator/emulator.c **** 					break;
 1225               		.loc 1 330 6 view .LVU185
 1226               	.LBB102:
 1227               	.LBI102:
 134:../../emulator/emulator.c **** {
 1228               		.loc 1 134 12 view .LVU186
 1229               	.LBB103:
 136:../../emulator/emulator.c **** 	memory_read(addr, &value16, 2);
 1230               		.loc 1 136 2 view .LVU187
 137:../../emulator/emulator.c **** 	return (i32)value16;
 1231               		.loc 1 137 2 view .LVU188
 1232               	.LBE103:
 1233               	.LBE102:
 330:../../emulator/emulator.c **** 					break;
 1234               		.loc 1 330 51 is_stmt 0 view .LVU189
 1235 0518 3396      		adiw r30,3
 1236 051a EE0F      		lsl r30
 1237 051c FF1F      		rol r31
 1238 051e EE0F      		lsl r30
 1239 0520 FF1F      		rol r31
 1240               	.LVL71:
 330:../../emulator/emulator.c **** 					break;
 1241               		.loc 1 330 51 view .LVU190
 1242 0522 EA0D      		add r30,r10
 1243 0524 FB1D      		adc r31,r11
 330:../../emulator/emulator.c **** 					break;
 1244               		.loc 1 330 27 view .LVU191
 1245 0526 0081      		ld r16,Z
 1246 0528 1181      		ldd r17,Z+1
 1247 052a 2281      		ldd r18,Z+2
 1248 052c 3381      		ldd r19,Z+3
 1249 052e 1C01      		movw r2,r24
 1250 0530 2D01      		movw r4,r26
 1251 0532 200E      		add r2,r16
 1252 0534 311E      		adc r3,r17
 1253 0536 421E      		adc r4,r18
 1254 0538 531E      		adc r5,r19
 1255 053a 2D82      		std Y+5,r2
 1256 053c 3E82      		std Y+6,r3
 1257 053e 4F82      		std Y+7,r4
 1258 0540 5886      		std Y+8,r5
 1259               	.LBB105:
 1260               	.LBB104:
 137:../../emulator/emulator.c **** 	return (i32)value16;
 1261               		.loc 1 137 2 view .LVU192
 1262 0542 02E0      		ldi r16,lo8(2)
 1263 0544 10E0      		ldi r17,0
 1264 0546 20E0      		ldi r18,0
 1265 0548 30E0      		ldi r19,0
 1266 054a C201      		movw r24,r4
 1267 054c B101      		movw r22,r2
 1268 054e 0E94 0000 		call memory_read
 1269               	.LVL72:
 138:../../emulator/emulator.c **** }
 1270               		.loc 1 138 2 is_stmt 1 view .LVU193
 138:../../emulator/emulator.c **** }
 1271               		.loc 1 138 9 is_stmt 0 view .LVU194
 1272 0552 8981      		ldd r24,Y+1
 1273 0554 9A81      		ldd r25,Y+2
 1274 0556 092E      		mov __tmp_reg__,r25
 1275 0558 000C      		lsl r0
 1276 055a AA0B      		sbc r26,r26
 1277 055c BB0B      		sbc r27,r27
 1278 055e 00C0      		rjmp .L86
 1279               	.LVL73:
 1280               	.L32:
 138:../../emulator/emulator.c **** }
 1281               		.loc 1 138 9 view .LVU195
 1282               	.LBE104:
 1283               	.LBE105:
 335:../../emulator/emulator.c **** 					emu->Registers[rd] = memory_lw(emu->Registers[rs1] + offset);
 1284               		.loc 1 335 70 is_stmt 1 view .LVU196
 336:../../emulator/emulator.c **** 					break;
 1285               		.loc 1 336 6 view .LVU197
 1286               	.LBB106:
 1287               	.LBI106:
 141:../../emulator/emulator.c **** {
 1288               		.loc 1 141 12 view .LVU198
 1289               	.LBB107:
 143:../../emulator/emulator.c **** 	memory_read(addr, &value, 4);
 1290               		.loc 1 143 2 view .LVU199
 144:../../emulator/emulator.c **** 	return value;
 1291               		.loc 1 144 2 view .LVU200
 1292               	.LBE107:
 1293               	.LBE106:
 336:../../emulator/emulator.c **** 					break;
 1294               		.loc 1 336 51 is_stmt 0 view .LVU201
 1295 0560 E02F      		mov r30,r16
 1296 0562 F0E0      		ldi r31,0
 1297 0564 3396      		adiw r30,3
 1298 0566 EE0F      		lsl r30
 1299 0568 FF1F      		rol r31
 1300 056a EE0F      		lsl r30
 1301 056c FF1F      		rol r31
 1302 056e EA0D      		add r30,r10
 1303 0570 FB1D      		adc r31,r11
 336:../../emulator/emulator.c **** 					break;
 1304               		.loc 1 336 27 view .LVU202
 1305 0572 0081      		ld r16,Z
 1306 0574 1181      		ldd r17,Z+1
 1307 0576 2281      		ldd r18,Z+2
 1308 0578 3381      		ldd r19,Z+3
 1309 057a 1C01      		movw r2,r24
 1310 057c 2D01      		movw r4,r26
 1311 057e 200E      		add r2,r16
 1312 0580 311E      		adc r3,r17
 1313 0582 421E      		adc r4,r18
 1314 0584 531E      		adc r5,r19
 1315 0586 2D82      		std Y+5,r2
 1316 0588 3E82      		std Y+6,r3
 1317 058a 4F82      		std Y+7,r4
 1318 058c 5886      		std Y+8,r5
 1319               	.LBB109:
 1320               	.LBB108:
 144:../../emulator/emulator.c **** 	return value;
 1321               		.loc 1 144 2 view .LVU203
 1322 058e 04E0      		ldi r16,lo8(4)
 1323 0590 10E0      		ldi r17,0
 1324 0592 20E0      		ldi r18,0
 1325 0594 30E0      		ldi r19,0
 1326 0596 C201      		movw r24,r4
 1327 0598 B101      		movw r22,r2
 1328               	.LVL74:
 144:../../emulator/emulator.c **** 	return value;
 1329               		.loc 1 144 2 view .LVU204
 1330 059a 0E94 0000 		call memory_read
 1331               	.LVL75:
 145:../../emulator/emulator.c **** }
 1332               		.loc 1 145 2 is_stmt 1 view .LVU205
 145:../../emulator/emulator.c **** }
 1333               		.loc 1 145 9 is_stmt 0 view .LVU206
 1334 059e 8981      		ldd r24,Y+1
 1335 05a0 9A81      		ldd r25,Y+2
 1336 05a2 AB81      		ldd r26,Y+3
 1337 05a4 BC81      		ldd r27,Y+4
 1338               	.LVL76:
 1339               	.L100:
 145:../../emulator/emulator.c **** }
 1340               		.loc 1 145 9 view .LVU207
 1341               	.LBE108:
 1342               	.LBE109:
 342:../../emulator/emulator.c **** 					break;
 1343               		.loc 1 342 20 view .LVU208
 1344 05a6 E62D      		mov r30,r6
 1345 05a8 F0E0      		ldi r31,0
 1346 05aa 00C0      		rjmp .L88
 1347               	.LVL77:
 1348               	.L36:
 341:../../emulator/emulator.c **** 					emu->Registers[rd] = memory_lbu(emu->Registers[rs1] + offset);
 1349               		.loc 1 341 71 is_stmt 1 view .LVU209
 342:../../emulator/emulator.c **** 					break;
 1350               		.loc 1 342 6 view .LVU210
 1351               	.LBB110:
 1352               	.LBI110:
 148:../../emulator/emulator.c **** {
 1353               		.loc 1 148 12 view .LVU211
 1354               	.LBB111:
 150:../../emulator/emulator.c **** 	memory_read(addr, &value8, 1);
 1355               		.loc 1 150 2 view .LVU212
 151:../../emulator/emulator.c **** 	return value8;
 1356               		.loc 1 151 2 view .LVU213
 1357               	.LBE111:
 1358               	.LBE110:
 342:../../emulator/emulator.c **** 					break;
 1359               		.loc 1 342 52 is_stmt 0 view .LVU214
 1360 05ac E02F      		mov r30,r16
 1361 05ae F0E0      		ldi r31,0
 1362 05b0 3396      		adiw r30,3
 1363 05b2 EE0F      		lsl r30
 1364 05b4 FF1F      		rol r31
 1365 05b6 EE0F      		lsl r30
 1366 05b8 FF1F      		rol r31
 1367 05ba EA0D      		add r30,r10
 1368 05bc FB1D      		adc r31,r11
 342:../../emulator/emulator.c **** 					break;
 1369               		.loc 1 342 27 view .LVU215
 1370 05be 0081      		ld r16,Z
 1371 05c0 1181      		ldd r17,Z+1
 1372 05c2 2281      		ldd r18,Z+2
 1373 05c4 3381      		ldd r19,Z+3
 1374 05c6 1C01      		movw r2,r24
 1375 05c8 2D01      		movw r4,r26
 1376 05ca 200E      		add r2,r16
 1377 05cc 311E      		adc r3,r17
 1378 05ce 421E      		adc r4,r18
 1379 05d0 531E      		adc r5,r19
 1380 05d2 2D82      		std Y+5,r2
 1381 05d4 3E82      		std Y+6,r3
 1382 05d6 4F82      		std Y+7,r4
 1383 05d8 5886      		std Y+8,r5
 1384               	.LBB113:
 1385               	.LBB112:
 151:../../emulator/emulator.c **** 	return value8;
 1386               		.loc 1 151 2 view .LVU216
 1387 05da 01E0      		ldi r16,lo8(1)
 1388 05dc 10E0      		ldi r17,0
 1389 05de 20E0      		ldi r18,0
 1390 05e0 30E0      		ldi r19,0
 1391 05e2 C201      		movw r24,r4
 1392 05e4 B101      		movw r22,r2
 1393               	.LVL78:
 151:../../emulator/emulator.c **** 	return value8;
 1394               		.loc 1 151 2 view .LVU217
 1395 05e6 0E94 0000 		call memory_read
 1396               	.LVL79:
 152:../../emulator/emulator.c **** }
 1397               		.loc 1 152 2 is_stmt 1 view .LVU218
 152:../../emulator/emulator.c **** }
 1398               		.loc 1 152 9 is_stmt 0 view .LVU219
 1399 05ea 8981      		ldd r24,Y+1
 1400 05ec 90E0      		ldi r25,0
 1401               	.LVL80:
 1402               	.L101:
 152:../../emulator/emulator.c **** }
 1403               		.loc 1 152 9 view .LVU220
 1404 05ee A0E0      		ldi r26,0
 1405 05f0 B0E0      		ldi r27,0
 1406 05f2 00C0      		rjmp .L100
 1407               	.LVL81:
 1408               	.L37:
 152:../../emulator/emulator.c **** }
 1409               		.loc 1 152 9 view .LVU221
 1410               	.LBE112:
 1411               	.LBE113:
 347:../../emulator/emulator.c **** 					emu->Registers[rd] = memory_lhu(emu->Registers[rs1] + offset);
 1412               		.loc 1 347 71 is_stmt 1 view .LVU222
 348:../../emulator/emulator.c **** 					break;
 1413               		.loc 1 348 6 view .LVU223
 1414               	.LBB114:
 1415               	.LBI114:
 155:../../emulator/emulator.c **** {
 1416               		.loc 1 155 12 view .LVU224
 1417               	.LBB115:
 157:../../emulator/emulator.c **** 	memory_read(addr, &value16, 2);
 1418               		.loc 1 157 2 view .LVU225
 158:../../emulator/emulator.c **** 	return value16;
 1419               		.loc 1 158 2 view .LVU226
 1420               	.LBE115:
 1421               	.LBE114:
 348:../../emulator/emulator.c **** 					break;
 1422               		.loc 1 348 52 is_stmt 0 view .LVU227
 1423 05f4 E02F      		mov r30,r16
 1424 05f6 F0E0      		ldi r31,0
 1425 05f8 3396      		adiw r30,3
 1426 05fa EE0F      		lsl r30
 1427 05fc FF1F      		rol r31
 1428 05fe EE0F      		lsl r30
 1429 0600 FF1F      		rol r31
 1430 0602 EA0D      		add r30,r10
 1431 0604 FB1D      		adc r31,r11
 348:../../emulator/emulator.c **** 					break;
 1432               		.loc 1 348 27 view .LVU228
 1433 0606 0081      		ld r16,Z
 1434 0608 1181      		ldd r17,Z+1
 1435 060a 2281      		ldd r18,Z+2
 1436 060c 3381      		ldd r19,Z+3
 1437 060e 1C01      		movw r2,r24
 1438 0610 2D01      		movw r4,r26
 1439 0612 200E      		add r2,r16
 1440 0614 311E      		adc r3,r17
 1441 0616 421E      		adc r4,r18
 1442 0618 531E      		adc r5,r19
 1443 061a 2D82      		std Y+5,r2
 1444 061c 3E82      		std Y+6,r3
 1445 061e 4F82      		std Y+7,r4
 1446 0620 5886      		std Y+8,r5
 1447               	.LBB117:
 1448               	.LBB116:
 158:../../emulator/emulator.c **** 	return value16;
 1449               		.loc 1 158 2 view .LVU229
 1450 0622 02E0      		ldi r16,lo8(2)
 1451 0624 10E0      		ldi r17,0
 1452 0626 20E0      		ldi r18,0
 1453 0628 30E0      		ldi r19,0
 1454 062a C201      		movw r24,r4
 1455 062c B101      		movw r22,r2
 1456               	.LVL82:
 158:../../emulator/emulator.c **** 	return value16;
 1457               		.loc 1 158 2 view .LVU230
 1458 062e 0E94 0000 		call memory_read
 1459               	.LVL83:
 159:../../emulator/emulator.c **** }
 1460               		.loc 1 159 2 is_stmt 1 view .LVU231
 159:../../emulator/emulator.c **** }
 1461               		.loc 1 159 9 is_stmt 0 view .LVU232
 1462 0632 8981      		ldd r24,Y+1
 1463 0634 9A81      		ldd r25,Y+2
 1464 0636 00C0      		rjmp .L101
 1465               	.LVL84:
 1466               	.L28:
 159:../../emulator/emulator.c **** }
 1467               		.loc 1 159 9 view .LVU233
 1468               	.LBE116:
 1469               	.LBE117:
 1470               	.LBE118:
 1471               	.LBB119:
 360:../../emulator/emulator.c **** 			u32 imm;
 1472               		.loc 1 360 4 is_stmt 1 view .LVU234
 361:../../emulator/emulator.c **** 			rd = (instr >> 7) & 0x1F;
 1473               		.loc 1 361 4 view .LVU235
 362:../../emulator/emulator.c **** 			funct3 = (instr >> 12) & 0x07;
 1474               		.loc 1 362 4 view .LVU236
 363:../../emulator/emulator.c **** 			rs1 = (instr >> 15) & 0x1F;
 1475               		.loc 1 363 4 view .LVU237
 364:../../emulator/emulator.c **** 			imm = (instr >> 20);
 1476               		.loc 1 364 4 view .LVU238
 365:../../emulator/emulator.c **** 			switch(funct3)
 1477               		.loc 1 365 4 view .LVU239
 365:../../emulator/emulator.c **** 			switch(funct3)
 1478               		.loc 1 365 8 is_stmt 0 view .LVU240
 1479 0638 AC01      		movw r20,r24
 1480 063a BD01      		movw r22,r26
 1481 063c 14E1      		ldi r17,20
 1482               		1:
 1483 063e 7695      		lsr r23
 1484 0640 6795      		ror r22
 1485 0642 5795      		ror r21
 1486 0644 4795      		ror r20
 1487 0646 1A95      		dec r17
 1488 0648 01F4      		brne 1b
 1489               	.LVL85:
 366:../../emulator/emulator.c **** 			{
 1490               		.loc 1 366 4 is_stmt 1 view .LVU241
 364:../../emulator/emulator.c **** 			imm = (instr >> 20);
 1491               		.loc 1 364 17 is_stmt 0 view .LVU242
 1492 064a 8C01      		movw r16,r24
 1493 064c 9D01      		movw r18,r26
 1494               	.LVL86:
 364:../../emulator/emulator.c **** 			imm = (instr >> 20);
 1495               		.loc 1 364 17 view .LVU243
 1496 064e EFE0      		ldi r30,15
 1497               		1:
 1498 0650 3695      		lsr r19
 1499 0652 2795      		ror r18
 1500 0654 1795      		ror r17
 1501 0656 0795      		ror r16
 1502 0658 EA95      		dec r30
 1503 065a 01F4      		brne 1b
 364:../../emulator/emulator.c **** 			imm = (instr >> 20);
 1504               		.loc 1 364 8 view .LVU244
 1505 065c 0F71      		andi r16,lo8(31)
 372:../../emulator/emulator.c **** 					break;
 1506               		.loc 1 372 41 view .LVU245
 1507 065e E02F      		mov r30,r16
 1508 0660 F0E0      		ldi r31,0
 1509               	.LBE119:
 1510               	.LBB140:
 324:../../emulator/emulator.c **** 					break;
 1511               		.loc 1 324 51 view .LVU246
 1512 0662 3396      		adiw r30,3
 1513 0664 EE0F      		lsl r30
 1514 0666 FF1F      		rol r31
 1515 0668 EE0F      		lsl r30
 1516 066a FF1F      		rol r31
 1517 066c EA0D      		add r30,r10
 1518 066e FB1D      		adc r31,r11
 1519 0670 4080      		ld r4,Z
 1520 0672 5180      		ldd r5,Z+1
 1521 0674 6280      		ldd r6,Z+2
 1522 0676 7380      		ldd r7,Z+3
 1523               	.LBE140:
 1524               	.LBB141:
 362:../../emulator/emulator.c **** 			funct3 = (instr >> 12) & 0x07;
 1525               		.loc 1 362 16 view .LVU247
 1526 0678 8C01      		movw r16,r24
 1527 067a 9D01      		movw r18,r26
 1528 067c E7E0      		ldi r30,7
 1529               		1:
 1530 067e 3695      		lsr r19
 1531 0680 2795      		ror r18
 1532 0682 1795      		ror r17
 1533 0684 0795      		ror r16
 1534 0686 EA95      		dec r30
 1535 0688 01F4      		brne 1b
 362:../../emulator/emulator.c **** 			funct3 = (instr >> 12) & 0x07;
 1536               		.loc 1 362 7 view .LVU248
 1537 068a 0F71      		andi r16,lo8(31)
 372:../../emulator/emulator.c **** 					break;
 1538               		.loc 1 372 20 view .LVU249
 1539 068c E02E      		mov r14,r16
 1540 068e F12C      		mov r15,__zero_reg__
 363:../../emulator/emulator.c **** 			rs1 = (instr >> 15) & 0x1F;
 1541               		.loc 1 363 20 view .LVU250
 1542 0690 8C01      		movw r16,r24
 1543 0692 9D01      		movw r18,r26
 1544 0694 FCE0      		ldi r31,12
 1545               		1:
 1546 0696 3695      		lsr r19
 1547 0698 2795      		ror r18
 1548 069a 1795      		ror r17
 1549 069c 0795      		ror r16
 1550 069e FA95      		dec r31
 1551 06a0 01F4      		brne 1b
 363:../../emulator/emulator.c **** 			rs1 = (instr >> 15) & 0x1F;
 1552               		.loc 1 363 11 view .LVU251
 1553 06a2 E02F      		mov r30,r16
 1554 06a4 E770      		andi r30,lo8(7)
 1555 06a6 E150      		subi r30,lo8(-(-1))
 1556 06a8 9701      		movw r18,r14
 1557 06aa 2D5F      		subi r18,-3
 1558 06ac 3F4F      		sbci r19,-1
 1559 06ae E730      		cpi r30,lo8(7)
 1560 06b0 00F4      		brsh .L38
 1561 06b2 F0E0      		ldi r31,0
 1562 06b4 E050      		subi r30,lo8(-(gs(.L40)))
 1563 06b6 F040      		sbci r31,hi8(-(gs(.L40)))
 1564 06b8 0C94 0000 		jmp __tablejump2__
 1565               		.section	.jumptables.gcc.emulator_call,"a",@progbits
 1566               		.p2align	1
 1567               	.L40:
 1568 003a 0000      		.word gs(.L46)
 1569 003c 0000      		.word gs(.L45)
 1570 003e 0000      		.word gs(.L44)
 1571 0040 0000      		.word gs(.L43)
 1572 0042 0000      		.word gs(.L42)
 1573 0044 0000      		.word gs(.L41)
 1574 0046 0000      		.word gs(.L39)
 1575               		.text
 1576               	.L38:
 370:../../emulator/emulator.c **** 					EMU_LOG(PSTR("addi r%"PRIu8", r%"PRIu8", %"PRIi32), rd, rs1, imm);
 1577               		.loc 1 370 6 is_stmt 1 view .LVU252
 1578               	.LVL87:
 1579               	.LBB120:
 1580               	.LBI120:
  64:../../emulator/emulator.c **** {
 1581               		.loc 1 64 19 view .LVU253
 1582               	.LBB121:
  66:../../emulator/emulator.c **** 	return (value ^ m) - m;
 1583               		.loc 1 66 2 view .LVU254
  67:../../emulator/emulator.c **** }
 1584               		.loc 1 67 2 view .LVU255
  67:../../emulator/emulator.c **** }
 1585               		.loc 1 67 2 is_stmt 0 view .LVU256
 1586               	.LBE121:
 1587               	.LBE120:
 371:../../emulator/emulator.c **** 					emu->Registers[rd] = emu->Registers[rs1] + imm;
 1588               		.loc 1 371 71 is_stmt 1 view .LVU257
 372:../../emulator/emulator.c **** 					break;
 1589               		.loc 1 372 6 view .LVU258
 372:../../emulator/emulator.c **** 					break;
 1590               		.loc 1 372 25 is_stmt 0 view .LVU259
 1591 06bc F901      		movw r30,r18
 1592 06be EE0F      		lsl r30
 1593 06c0 FF1F      		rol r31
 1594 06c2 EE0F      		lsl r30
 1595 06c4 FF1F      		rol r31
 1596 06c6 EA0D      		add r30,r10
 1597 06c8 FB1D      		adc r31,r11
 1598               	.LBB123:
 1599               	.LBB122:
  67:../../emulator/emulator.c **** }
 1600               		.loc 1 67 16 view .LVU260
 1601 06ca 08E0      		ldi r16,8
 1602 06cc 5027      		eor r21,r16
 1603               	.LVL88:
  67:../../emulator/emulator.c **** }
 1604               		.loc 1 67 21 view .LVU261
 1605 06ce 5850      		subi r21,8
 1606 06d0 6109      		sbc r22,__zero_reg__
 1607 06d2 7109      		sbc r23,__zero_reg__
 1608               	.LVL89:
  67:../../emulator/emulator.c **** }
 1609               		.loc 1 67 21 view .LVU262
 1610               	.LBE122:
 1611               	.LBE123:
 372:../../emulator/emulator.c **** 					break;
 1612               		.loc 1 372 47 view .LVU263
 1613 06d4 440D      		add r20,r4
 1614 06d6 551D      		adc r21,r5
 1615 06d8 661D      		adc r22,r6
 1616 06da 771D      		adc r23,r7
 1617               	.LVL90:
 1618               	.L89:
 399:../../emulator/emulator.c **** 					break;
 1619               		.loc 1 399 25 view .LVU264
 1620 06dc 4083      		st Z,r20
 1621 06de 5183      		std Z+1,r21
 1622 06e0 6283      		std Z+2,r22
 1623 06e2 7383      		std Z+3,r23
 400:../../emulator/emulator.c **** 
 1624               		.loc 1 400 6 is_stmt 1 view .LVU265
 1625 06e4 00C0      		rjmp .L31
 1626               	.LVL91:
 1627               	.L46:
 377:../../emulator/emulator.c **** 					EMU_LOG(PSTR("slli r%"PRIu8", r%"PRIu8", %"PRIi32), rd, rs1, imm);
 1628               		.loc 1 377 6 view .LVU266
 378:../../emulator/emulator.c **** 					emu->Registers[rd] = emu->Registers[rs1] << imm;
 1629               		.loc 1 378 71 view .LVU267
 379:../../emulator/emulator.c **** 					break;
 1630               		.loc 1 379 6 view .LVU268
 379:../../emulator/emulator.c **** 					break;
 1631               		.loc 1 379 25 is_stmt 0 view .LVU269
 1632 06e6 F901      		movw r30,r18
 1633 06e8 EE0F      		lsl r30
 1634 06ea FF1F      		rol r31
 1635 06ec EE0F      		lsl r30
 1636 06ee FF1F      		rol r31
 1637 06f0 EA0D      		add r30,r10
 1638 06f2 FB1D      		adc r31,r11
 377:../../emulator/emulator.c **** 					EMU_LOG(PSTR("slli r%"PRIu8", r%"PRIu8", %"PRIi32), rd, rs1, imm);
 1639               		.loc 1 377 10 view .LVU270
 1640 06f4 4F71      		andi r20,31
 1641 06f6 5527      		clr r21
 1642 06f8 6627      		clr r22
 1643 06fa 7727      		clr r23
 1644               	.LVL92:
 379:../../emulator/emulator.c **** 					break;
 1645               		.loc 1 379 47 view .LVU271
 1646 06fc 00C0      		rjmp 2f
 1647               		1:
 1648 06fe 440C      		lsl r4
 1649 0700 551C      		rol r5
 1650 0702 661C      		rol r6
 1651 0704 771C      		rol r7
 1652               		2:
 1653 0706 4A95      		dec r20
 1654 0708 02F4      		brpl 1b
 1655               	.LVL93:
 1656               	.L90:
 408:../../emulator/emulator.c **** 					}
 1657               		.loc 1 408 26 view .LVU272
 1658 070a 4082      		st Z,r4
 1659 070c 5182      		std Z+1,r5
 1660 070e 6282      		std Z+2,r6
 1661 0710 7382      		std Z+3,r7
 1662 0712 00C0      		rjmp .L31
 1663               	.LVL94:
 1664               	.L45:
 384:../../emulator/emulator.c **** 					EMU_LOG(PSTR("slti r%"PRIu8", r%"PRIu8", %"PRIi32), rd, rs1, imm);
 1665               		.loc 1 384 6 is_stmt 1 view .LVU273
 1666               	.LBB124:
 1667               	.LBI124:
  64:../../emulator/emulator.c **** {
 1668               		.loc 1 64 19 view .LVU274
 1669               	.LBB125:
  66:../../emulator/emulator.c **** 	return (value ^ m) - m;
 1670               		.loc 1 66 2 view .LVU275
  67:../../emulator/emulator.c **** }
 1671               		.loc 1 67 2 view .LVU276
  67:../../emulator/emulator.c **** }
 1672               		.loc 1 67 2 is_stmt 0 view .LVU277
 1673               	.LBE125:
 1674               	.LBE124:
 385:../../emulator/emulator.c **** 					emu->Registers[rd] = (i32)emu->Registers[rs1] < (i32)imm;
 1675               		.loc 1 385 71 is_stmt 1 view .LVU278
 386:../../emulator/emulator.c **** 					break;
 1676               		.loc 1 386 6 view .LVU279
 386:../../emulator/emulator.c **** 					break;
 1677               		.loc 1 386 25 is_stmt 0 view .LVU280
 1678 0714 F901      		movw r30,r18
 1679 0716 EE0F      		lsl r30
 1680 0718 FF1F      		rol r31
 1681 071a EE0F      		lsl r30
 1682 071c FF1F      		rol r31
 1683 071e EA0D      		add r30,r10
 1684 0720 FB1D      		adc r31,r11
 1685               	.LBB127:
 1686               	.LBB126:
  67:../../emulator/emulator.c **** }
 1687               		.loc 1 67 16 view .LVU281
 1688 0722 18E0      		ldi r17,8
 1689 0724 5127      		eor r21,r17
 1690               	.LVL95:
  67:../../emulator/emulator.c **** }
 1691               		.loc 1 67 21 view .LVU282
 1692 0726 5850      		subi r21,8
 1693 0728 6109      		sbc r22,__zero_reg__
 1694 072a 7109      		sbc r23,__zero_reg__
 1695               	.LVL96:
  67:../../emulator/emulator.c **** }
 1696               		.loc 1 67 21 view .LVU283
 1697               	.LBE126:
 1698               	.LBE127:
 386:../../emulator/emulator.c **** 					break;
 1699               		.loc 1 386 52 view .LVU284
 1700 072c 81E0      		ldi r24,lo8(1)
 1701 072e 90E0      		ldi r25,0
 1702 0730 A0E0      		ldi r26,0
 1703 0732 B0E0      		ldi r27,0
 1704               	.LVL97:
 386:../../emulator/emulator.c **** 					break;
 1705               		.loc 1 386 52 view .LVU285
 1706 0734 4416      		cp r4,r20
 1707 0736 5506      		cpc r5,r21
 1708 0738 6606      		cpc r6,r22
 1709 073a 7706      		cpc r7,r23
 1710               	.LVL98:
 1711               	.L103:
 386:../../emulator/emulator.c **** 					break;
 1712               		.loc 1 386 52 view .LVU286
 1713               	.LBE141:
 1714               	.LBB142:
 574:../../emulator/emulator.c **** 						break;
 1715               		.loc 1 574 53 view .LVU287
 1716 073c 04F4      		brge .+2
 1717 073e 00C0      		rjmp .L87
 1718 0740 00C0      		rjmp .L102
 1719               	.LVL99:
 1720               	.L44:
 574:../../emulator/emulator.c **** 						break;
 1721               		.loc 1 574 53 view .LVU288
 1722               	.LBE142:
 1723               	.LBB143:
 391:../../emulator/emulator.c **** 					emu->Registers[rd] = emu->Registers[rs1] < imm;
 1724               		.loc 1 391 72 is_stmt 1 view .LVU289
 392:../../emulator/emulator.c **** 					break;
 1725               		.loc 1 392 6 view .LVU290
 392:../../emulator/emulator.c **** 					break;
 1726               		.loc 1 392 25 is_stmt 0 view .LVU291
 1727 0742 F901      		movw r30,r18
 1728 0744 EE0F      		lsl r30
 1729 0746 FF1F      		rol r31
 1730 0748 EE0F      		lsl r30
 1731 074a FF1F      		rol r31
 1732 074c EA0D      		add r30,r10
 1733 074e FB1D      		adc r31,r11
 392:../../emulator/emulator.c **** 					break;
 1734               		.loc 1 392 47 view .LVU292
 1735 0750 81E0      		ldi r24,lo8(1)
 1736 0752 90E0      		ldi r25,0
 1737 0754 A0E0      		ldi r26,0
 1738 0756 B0E0      		ldi r27,0
 1739               	.LVL100:
 392:../../emulator/emulator.c **** 					break;
 1740               		.loc 1 392 47 view .LVU293
 1741 0758 4416      		cp r4,r20
 1742 075a 5506      		cpc r5,r21
 1743 075c 6606      		cpc r6,r22
 1744 075e 7706      		cpc r7,r23
 1745 0760 00F4      		brsh .+2
 1746 0762 00C0      		rjmp .L87
 1747               	.LVL101:
 1748               	.L102:
 392:../../emulator/emulator.c **** 					break;
 1749               		.loc 1 392 47 view .LVU294
 1750               	.LBE143:
 1751               	.LBB144:
 580:../../emulator/emulator.c **** 						break;
 1752               		.loc 1 580 48 view .LVU295
 1753 0764 80E0      		ldi r24,0
 1754 0766 90E0      		ldi r25,0
 1755 0768 DC01      		movw r26,r24
 1756 076a 00C0      		rjmp .L87
 1757               	.LVL102:
 1758               	.L43:
 580:../../emulator/emulator.c **** 						break;
 1759               		.loc 1 580 48 view .LVU296
 1760               	.LBE144:
 1761               	.LBB145:
 397:../../emulator/emulator.c **** 					EMU_LOG(PSTR("xori r%"PRIu8", r%"PRIu8", 0x%08"PRIx32), rd, rs1, imm);
 1762               		.loc 1 397 6 is_stmt 1 view .LVU297
 1763               	.LBB128:
 1764               	.LBI128:
  64:../../emulator/emulator.c **** {
 1765               		.loc 1 64 19 view .LVU298
 1766               	.LBB129:
  66:../../emulator/emulator.c **** 	return (value ^ m) - m;
 1767               		.loc 1 66 2 view .LVU299
  67:../../emulator/emulator.c **** }
 1768               		.loc 1 67 2 view .LVU300
  67:../../emulator/emulator.c **** }
 1769               		.loc 1 67 2 is_stmt 0 view .LVU301
 1770               	.LBE129:
 1771               	.LBE128:
 398:../../emulator/emulator.c **** 					emu->Registers[rd] = emu->Registers[rs1] ^ imm;
 1772               		.loc 1 398 75 is_stmt 1 view .LVU302
 399:../../emulator/emulator.c **** 					break;
 1773               		.loc 1 399 6 view .LVU303
 399:../../emulator/emulator.c **** 					break;
 1774               		.loc 1 399 25 is_stmt 0 view .LVU304
 1775 076c F901      		movw r30,r18
 1776 076e EE0F      		lsl r30
 1777 0770 FF1F      		rol r31
 1778 0772 EE0F      		lsl r30
 1779 0774 FF1F      		rol r31
 1780               	.LVL103:
 399:../../emulator/emulator.c **** 					break;
 1781               		.loc 1 399 25 view .LVU305
 1782 0776 EA0D      		add r30,r10
 1783 0778 FB1D      		adc r31,r11
 1784               	.LBB131:
 1785               	.LBB130:
  67:../../emulator/emulator.c **** }
 1786               		.loc 1 67 16 view .LVU306
 1787 077a 28E0      		ldi r18,8
 1788 077c 5227      		eor r21,r18
 1789               	.LVL104:
  67:../../emulator/emulator.c **** }
 1790               		.loc 1 67 21 view .LVU307
 1791 077e 5850      		subi r21,8
 1792 0780 6109      		sbc r22,__zero_reg__
 1793 0782 7109      		sbc r23,__zero_reg__
 1794               	.LVL105:
  67:../../emulator/emulator.c **** }
 1795               		.loc 1 67 21 view .LVU308
 1796               	.LBE130:
 1797               	.LBE131:
 399:../../emulator/emulator.c **** 					break;
 1798               		.loc 1 399 47 view .LVU309
 1799 0784 4425      		eor r20,r4
 1800 0786 5525      		eor r21,r5
 1801 0788 6625      		eor r22,r6
 1802 078a 7725      		eor r23,r7
 1803               	.LVL106:
 399:../../emulator/emulator.c **** 					break;
 1804               		.loc 1 399 47 view .LVU310
 1805 078c 00C0      		rjmp .L89
 1806               	.LVL107:
 1807               	.L42:
 403:../../emulator/emulator.c **** 					{
 1808               		.loc 1 403 6 is_stmt 1 view .LVU311
 403:../../emulator/emulator.c **** 					{
 1809               		.loc 1 403 13 is_stmt 0 view .LVU312
 1810 078e 19E1      		ldi r17,25
 1811               		1:
 1812 0790 B695      		lsr r27
 1813 0792 A795      		ror r26
 1814 0794 9795      		ror r25
 1815 0796 8795      		ror r24
 1816 0798 1A95      		dec r17
 1817 079a 01F4      		brne 1b
 1818               	.LVL108:
 408:../../emulator/emulator.c **** 					}
 1819               		.loc 1 408 26 view .LVU313
 1820 079c F901      		movw r30,r18
 1821 079e EE0F      		lsl r30
 1822 07a0 FF1F      		rol r31
 1823 07a2 EE0F      		lsl r30
 1824 07a4 FF1F      		rol r31
 1825 07a6 EA0D      		add r30,r10
 1826 07a8 FB1D      		adc r31,r11
 403:../../emulator/emulator.c **** 					{
 1827               		.loc 1 403 8 view .LVU314
 1828 07aa 892B      		or r24,r25
 1829 07ac 8A2B      		or r24,r26
 1830 07ae 8B2B      		or r24,r27
 1831 07b0 01F0      		breq .L49
 406:../../emulator/emulator.c **** 						EMU_LOG(PSTR("srai r%"PRIu8", r%"PRIu8", %"PRIi32), rd, rs1, imm);
 1832               		.loc 1 406 7 is_stmt 1 view .LVU315
 1833               	.LVL109:
 407:../../emulator/emulator.c **** 						emu->Registers[rd] = (i32)emu->Registers[rs1] >> imm;
 1834               		.loc 1 407 72 view .LVU316
 408:../../emulator/emulator.c **** 					}
 1835               		.loc 1 408 7 view .LVU317
 406:../../emulator/emulator.c **** 						EMU_LOG(PSTR("srai r%"PRIu8", r%"PRIu8", %"PRIi32), rd, rs1, imm);
 1836               		.loc 1 406 11 is_stmt 0 view .LVU318
 1837 07b2 4F71      		andi r20,31
 1838 07b4 5527      		clr r21
 1839 07b6 6627      		clr r22
 1840 07b8 7727      		clr r23
 1841               	.LVL110:
 408:../../emulator/emulator.c **** 					}
 1842               		.loc 1 408 53 view .LVU319
 1843 07ba 00C0      		rjmp 2f
 1844               		1:
 1845 07bc 7594      		asr r7
 1846 07be 6794      		ror r6
 1847 07c0 5794      		ror r5
 1848 07c2 4794      		ror r4
 1849               		2:
 1850 07c4 4A95      		dec r20
 1851 07c6 02F4      		brpl 1b
 1852 07c8 00C0      		rjmp .L90
 1853               	.L49:
 413:../../emulator/emulator.c **** 						EMU_LOG(PSTR("srli r%"PRIu8", r%"PRIu8", %"PRIi32), rd, rs1, imm);
 1854               		.loc 1 413 7 is_stmt 1 view .LVU320
 1855               	.LVL111:
 414:../../emulator/emulator.c **** 						emu->Registers[rd] = emu->Registers[rs1] >> imm;
 1856               		.loc 1 414 72 view .LVU321
 415:../../emulator/emulator.c **** 					}
 1857               		.loc 1 415 7 view .LVU322
 415:../../emulator/emulator.c **** 					}
 1858               		.loc 1 415 48 is_stmt 0 view .LVU323
 1859 07ca 00C0      		rjmp 2f
 1860               		1:
 1861 07cc 7694      		lsr r7
 1862 07ce 6794      		ror r6
 1863 07d0 5794      		ror r5
 1864 07d2 4794      		ror r4
 1865               		2:
 1866 07d4 4A95      		dec r20
 1867 07d6 02F4      		brpl 1b
 1868 07d8 00C0      		rjmp .L90
 1869               	.LVL112:
 1870               	.L41:
 421:../../emulator/emulator.c **** 					EMU_LOG(PSTR("ori r%"PRIu8", r%"PRIu8", 0x%08"PRIx32), rd, rs1, imm);
 1871               		.loc 1 421 6 is_stmt 1 view .LVU324
 1872               	.LBB132:
 1873               	.LBI132:
  64:../../emulator/emulator.c **** {
 1874               		.loc 1 64 19 view .LVU325
 1875               	.LBB133:
  66:../../emulator/emulator.c **** 	return (value ^ m) - m;
 1876               		.loc 1 66 2 view .LVU326
  67:../../emulator/emulator.c **** }
 1877               		.loc 1 67 2 view .LVU327
  67:../../emulator/emulator.c **** }
 1878               		.loc 1 67 2 is_stmt 0 view .LVU328
 1879               	.LBE133:
 1880               	.LBE132:
 422:../../emulator/emulator.c **** 					emu->Registers[rd] = emu->Registers[rs1] | imm;
 1881               		.loc 1 422 74 is_stmt 1 view .LVU329
 423:../../emulator/emulator.c **** 					break;
 1882               		.loc 1 423 6 view .LVU330
 423:../../emulator/emulator.c **** 					break;
 1883               		.loc 1 423 25 is_stmt 0 view .LVU331
 1884 07da F901      		movw r30,r18
 1885 07dc EE0F      		lsl r30
 1886 07de FF1F      		rol r31
 1887 07e0 EE0F      		lsl r30
 1888 07e2 FF1F      		rol r31
 1889 07e4 EA0D      		add r30,r10
 1890 07e6 FB1D      		adc r31,r11
 1891               	.LBB135:
 1892               	.LBB134:
  67:../../emulator/emulator.c **** }
 1893               		.loc 1 67 16 view .LVU332
 1894 07e8 38E0      		ldi r19,8
 1895 07ea 5327      		eor r21,r19
 1896               	.LVL113:
  67:../../emulator/emulator.c **** }
 1897               		.loc 1 67 21 view .LVU333
 1898 07ec 5850      		subi r21,8
 1899 07ee 6109      		sbc r22,__zero_reg__
 1900 07f0 7109      		sbc r23,__zero_reg__
 1901               	.LVL114:
  67:../../emulator/emulator.c **** }
 1902               		.loc 1 67 21 view .LVU334
 1903               	.LBE134:
 1904               	.LBE135:
 423:../../emulator/emulator.c **** 					break;
 1905               		.loc 1 423 47 view .LVU335
 1906 07f2 4429      		or r20,r4
 1907 07f4 5529      		or r21,r5
 1908 07f6 6629      		or r22,r6
 1909 07f8 7729      		or r23,r7
 1910               	.LVL115:
 423:../../emulator/emulator.c **** 					break;
 1911               		.loc 1 423 47 view .LVU336
 1912 07fa 00C0      		rjmp .L89
 1913               	.LVL116:
 1914               	.L39:
 428:../../emulator/emulator.c **** 					EMU_LOG(PSTR("andi r%"PRIu8", r%"PRIu8", 0x%08"PRIx32), rd, rs1, imm);
 1915               		.loc 1 428 6 is_stmt 1 view .LVU337
 1916               	.LBB136:
 1917               	.LBI136:
  64:../../emulator/emulator.c **** {
 1918               		.loc 1 64 19 view .LVU338
 1919               	.LBB137:
  66:../../emulator/emulator.c **** 	return (value ^ m) - m;
 1920               		.loc 1 66 2 view .LVU339
  67:../../emulator/emulator.c **** }
 1921               		.loc 1 67 2 view .LVU340
  67:../../emulator/emulator.c **** }
 1922               		.loc 1 67 2 is_stmt 0 view .LVU341
 1923               	.LBE137:
 1924               	.LBE136:
 429:../../emulator/emulator.c **** 					emu->Registers[rd] = emu->Registers[rs1] & imm;
 1925               		.loc 1 429 75 is_stmt 1 view .LVU342
 430:../../emulator/emulator.c **** 					break;
 1926               		.loc 1 430 6 view .LVU343
 430:../../emulator/emulator.c **** 					break;
 1927               		.loc 1 430 25 is_stmt 0 view .LVU344
 1928 07fc F901      		movw r30,r18
 1929 07fe EE0F      		lsl r30
 1930 0800 FF1F      		rol r31
 1931 0802 EE0F      		lsl r30
 1932 0804 FF1F      		rol r31
 1933 0806 EA0D      		add r30,r10
 1934 0808 FB1D      		adc r31,r11
 1935               	.LBB139:
 1936               	.LBB138:
  67:../../emulator/emulator.c **** }
 1937               		.loc 1 67 16 view .LVU345
 1938 080a 88E0      		ldi r24,8
 1939 080c 5827      		eor r21,r24
 1940               	.LVL117:
  67:../../emulator/emulator.c **** }
 1941               		.loc 1 67 21 view .LVU346
 1942 080e 5850      		subi r21,8
 1943 0810 6109      		sbc r22,__zero_reg__
 1944 0812 7109      		sbc r23,__zero_reg__
 1945               	.LVL118:
  67:../../emulator/emulator.c **** }
 1946               		.loc 1 67 21 view .LVU347
 1947               	.LBE138:
 1948               	.LBE139:
 430:../../emulator/emulator.c **** 					break;
 1949               		.loc 1 430 47 view .LVU348
 1950 0814 4421      		and r20,r4
 1951 0816 5521      		and r21,r5
 1952 0818 6621      		and r22,r6
 1953 081a 7721      		and r23,r7
 1954               	.LVL119:
 430:../../emulator/emulator.c **** 					break;
 1955               		.loc 1 430 47 view .LVU349
 1956 081c 00C0      		rjmp .L89
 1957               	.LVL120:
 1958               	.L27:
 430:../../emulator/emulator.c **** 					break;
 1959               		.loc 1 430 47 view .LVU350
 1960               	.LBE145:
 1961               	.LBB146:
 438:../../emulator/emulator.c **** 			u32 imm;
 1962               		.loc 1 438 4 is_stmt 1 view .LVU351
 439:../../emulator/emulator.c **** 			rd = (instr >> 7) & 0x1F;
 1963               		.loc 1 439 4 view .LVU352
 440:../../emulator/emulator.c **** 			imm = (instr >> 12);
 1964               		.loc 1 440 4 view .LVU353
 441:../../emulator/emulator.c **** 			EMU_LOG(PSTR("auipc r%"PRIu8", 0x%08"PRIx32), rd, imm);
 1965               		.loc 1 441 4 view .LVU354
 442:../../emulator/emulator.c **** 			emu->Registers[rd] = emu->PC + (imm << 12);
 1966               		.loc 1 442 58 view .LVU355
 443:../../emulator/emulator.c **** 			break;
 1967               		.loc 1 443 4 view .LVU356
 440:../../emulator/emulator.c **** 			imm = (instr >> 12);
 1968               		.loc 1 440 16 is_stmt 0 view .LVU357
 1969 081e AC01      		movw r20,r24
 1970 0820 BD01      		movw r22,r26
 1971 0822 07E0      		ldi r16,7
 1972               		1:
 1973 0824 7695      		lsr r23
 1974 0826 6795      		ror r22
 1975 0828 5795      		ror r21
 1976 082a 4795      		ror r20
 1977 082c 0A95      		dec r16
 1978 082e 01F4      		brne 1b
 1979               	.LVL121:
 440:../../emulator/emulator.c **** 			imm = (instr >> 12);
 1980               		.loc 1 440 7 view .LVU358
 1981 0830 4F71      		andi r20,lo8(31)
 443:../../emulator/emulator.c **** 			break;
 1982               		.loc 1 443 18 view .LVU359
 1983 0832 E42F      		mov r30,r20
 1984 0834 F0E0      		ldi r31,0
 443:../../emulator/emulator.c **** 			break;
 1985               		.loc 1 443 23 view .LVU360
 1986 0836 3396      		adiw r30,3
 1987 0838 EE0F      		lsl r30
 1988 083a FF1F      		rol r31
 1989 083c EE0F      		lsl r30
 1990 083e FF1F      		rol r31
 1991 0840 9F01      		movw r18,r30
 1992 0842 2A0D      		add r18,r10
 1993 0844 3B1D      		adc r19,r11
 443:../../emulator/emulator.c **** 			break;
 1994               		.loc 1 443 40 view .LVU361
 1995 0846 AC01      		movw r20,r24
 1996 0848 BD01      		movw r22,r26
 1997 084a 4427      		clr r20
 1998 084c 507F      		andi r21,240
 443:../../emulator/emulator.c **** 			break;
 1999               		.loc 1 443 33 view .LVU362
 2000 084e F501      		movw r30,r10
 2001 0850 8085      		ldd r24,Z+8
 2002 0852 9185      		ldd r25,Z+9
 2003 0854 A285      		ldd r26,Z+10
 2004 0856 B385      		ldd r27,Z+11
 2005               	.LVL122:
 443:../../emulator/emulator.c **** 			break;
 2006               		.loc 1 443 33 view .LVU363
 2007 0858 840F      		add r24,r20
 2008 085a 951F      		adc r25,r21
 2009 085c A61F      		adc r26,r22
 2010 085e B71F      		adc r27,r23
 443:../../emulator/emulator.c **** 			break;
 2011               		.loc 1 443 23 view .LVU364
 2012 0860 F901      		movw r30,r18
 2013 0862 00C0      		rjmp .L87
 2014               	.LVL123:
 2015               	.L26:
 443:../../emulator/emulator.c **** 			break;
 2016               		.loc 1 443 23 view .LVU365
 2017               	.LBE146:
 2018               	.LBB147:
 449:../../emulator/emulator.c **** 			u32 imm;
 2019               		.loc 1 449 4 is_stmt 1 view .LVU366
 450:../../emulator/emulator.c **** 			u8 rs1, rs2, funct3;
 2020               		.loc 1 450 4 view .LVU367
 451:../../emulator/emulator.c **** 			funct3 = (instr >> 12) & 0x07;
 2021               		.loc 1 451 4 view .LVU368
 452:../../emulator/emulator.c **** 			rs1 = (instr >> 15) & 0x1F;
 2022               		.loc 1 452 4 view .LVU369
 452:../../emulator/emulator.c **** 			rs1 = (instr >> 15) & 0x1F;
 2023               		.loc 1 452 20 is_stmt 0 view .LVU370
 2024 0864 8C01      		movw r16,r24
 2025 0866 9D01      		movw r18,r26
 2026               	.LVL124:
 452:../../emulator/emulator.c **** 			rs1 = (instr >> 15) & 0x1F;
 2027               		.loc 1 452 20 view .LVU371
 2028 0868 6CE0      		ldi r22,12
 2029               		1:
 2030 086a 3695      		lsr r19
 2031 086c 2795      		ror r18
 2032 086e 1795      		ror r17
 2033 0870 0795      		ror r16
 2034 0872 6A95      		dec r22
 2035 0874 01F4      		brne 1b
 452:../../emulator/emulator.c **** 			rs1 = (instr >> 15) & 0x1F;
 2036               		.loc 1 452 11 view .LVU372
 2037 0876 702F      		mov r23,r16
 2038 0878 7770      		andi r23,lo8(7)
 2039               	.LVL125:
 453:../../emulator/emulator.c **** 			rs2 = (instr >> 20) & 0x1F;
 2040               		.loc 1 453 4 is_stmt 1 view .LVU373
 453:../../emulator/emulator.c **** 			rs2 = (instr >> 20) & 0x1F;
 2041               		.loc 1 453 17 is_stmt 0 view .LVU374
 2042 087a 8C01      		movw r16,r24
 2043 087c 9D01      		movw r18,r26
 2044 087e EFE0      		ldi r30,15
 2045               		1:
 2046 0880 3695      		lsr r19
 2047 0882 2795      		ror r18
 2048 0884 1795      		ror r17
 2049 0886 0795      		ror r16
 2050 0888 EA95      		dec r30
 2051 088a 01F4      		brne 1b
 453:../../emulator/emulator.c **** 			rs2 = (instr >> 20) & 0x1F;
 2052               		.loc 1 453 8 view .LVU375
 2053 088c 602F      		mov r22,r16
 2054 088e 6F71      		andi r22,lo8(31)
 2055               	.LVL126:
 454:../../emulator/emulator.c **** 			imm = ((instr & 0xF80) >> 7) | ((instr & 0xFE000000) >> 20);
 2056               		.loc 1 454 4 is_stmt 1 view .LVU376
 454:../../emulator/emulator.c **** 			imm = ((instr & 0xF80) >> 7) | ((instr & 0xFE000000) >> 20);
 2057               		.loc 1 454 17 is_stmt 0 view .LVU377
 2058 0890 2C01      		movw r4,r24
 2059 0892 3D01      		movw r6,r26
 2060 0894 F4E1      		ldi r31,20
 2061               		1:
 2062 0896 7694      		lsr r7
 2063 0898 6794      		ror r6
 2064 089a 5794      		ror r5
 2065 089c 4794      		ror r4
 2066 089e FA95      		dec r31
 2067 08a0 01F4      		brne 1b
 454:../../emulator/emulator.c **** 			imm = ((instr & 0xF80) >> 7) | ((instr & 0xFE000000) >> 20);
 2068               		.loc 1 454 8 view .LVU378
 2069 08a2 E42D      		mov r30,r4
 2070 08a4 EF71      		andi r30,lo8(31)
 2071               	.LVL127:
 455:../../emulator/emulator.c **** 			offset = sext(12, imm);
 2072               		.loc 1 455 4 is_stmt 1 view .LVU379
 456:../../emulator/emulator.c **** 			switch(funct3)
 2073               		.loc 1 456 4 view .LVU380
 2074               	.LBB148:
 2075               	.LBI148:
  64:../../emulator/emulator.c **** {
 2076               		.loc 1 64 19 view .LVU381
 2077               	.LBB149:
  66:../../emulator/emulator.c **** 	return (value ^ m) - m;
 2078               		.loc 1 66 2 view .LVU382
  67:../../emulator/emulator.c **** }
 2079               		.loc 1 67 2 view .LVU383
 2080               	.LBE149:
 2081               	.LBE148:
 455:../../emulator/emulator.c **** 			offset = sext(12, imm);
 2082               		.loc 1 455 27 is_stmt 0 view .LVU384
 2083 08a6 17E0      		ldi r17,7
 2084               		1:
 2085 08a8 B695      		lsr r27
 2086 08aa A795      		ror r26
 2087 08ac 9795      		ror r25
 2088 08ae 8795      		ror r24
 2089 08b0 1A95      		dec r17
 2090 08b2 01F4      		brne 1b
 2091               	.LVL128:
 455:../../emulator/emulator.c **** 			offset = sext(12, imm);
 2092               		.loc 1 455 27 view .LVU385
 2093 08b4 8F71      		andi r24,31
 2094 08b6 9927      		clr r25
 2095 08b8 AA27      		clr r26
 2096 08ba BB27      		clr r27
 455:../../emulator/emulator.c **** 			offset = sext(12, imm);
 2097               		.loc 1 455 57 view .LVU386
 2098 08bc F0EE      		ldi r31,224
 2099 08be 4F22      		and r4,r31
 2100 08c0 FFE0      		ldi r31,15
 2101 08c2 5F22      		and r5,r31
 2102 08c4 6624      		clr r6
 2103 08c6 7724      		clr r7
 2104               	.LVL129:
 455:../../emulator/emulator.c **** 			offset = sext(12, imm);
 2105               		.loc 1 455 8 view .LVU387
 2106 08c8 8C01      		movw r16,r24
 2107 08ca 9D01      		movw r18,r26
 2108 08cc 0429      		or r16,r4
 2109 08ce 1529      		or r17,r5
 2110 08d0 2629      		or r18,r6
 2111 08d2 3729      		or r19,r7
 2112               	.LVL130:
 2113               	.LBB151:
 2114               	.LBB150:
  67:../../emulator/emulator.c **** }
 2115               		.loc 1 67 16 view .LVU388
 2116 08d4 88E0      		ldi r24,8
 2117 08d6 1827      		eor r17,r24
 2118               	.LVL131:
  67:../../emulator/emulator.c **** }
 2119               		.loc 1 67 21 view .LVU389
 2120 08d8 1850      		subi r17,8
 2121 08da 2109      		sbc r18,__zero_reg__
 2122 08dc 3109      		sbc r19,__zero_reg__
 2123               	.LVL132:
  67:../../emulator/emulator.c **** }
 2124               		.loc 1 67 21 view .LVU390
 2125               	.LBE150:
 2126               	.LBE151:
 457:../../emulator/emulator.c **** 			{
 2127               		.loc 1 457 4 is_stmt 1 view .LVU391
 2128 08de 7130      		cpi r23,lo8(1)
 2129 08e0 01F0      		breq .L50
 2130 08e2 7230      		cpi r23,lo8(2)
 2131 08e4 01F4      		brne .+2
 2132 08e6 00C0      		rjmp .L51
 2133 08e8 7111      		cpse r23,__zero_reg__
 2134 08ea 00C0      		rjmp .L16
 461:../../emulator/emulator.c **** 					memory_sb(emu->Registers[rs1] + offset, emu->Registers[rs2]);
 2135               		.loc 1 461 71 view .LVU392
 462:../../emulator/emulator.c **** 					break;
 2136               		.loc 1 462 6 view .LVU393
 462:../../emulator/emulator.c **** 					break;
 2137               		.loc 1 462 30 is_stmt 0 view .LVU394
 2138 08ec A62F      		mov r26,r22
 2139 08ee B0E0      		ldi r27,0
 2140 08f0 1396      		adiw r26,3
 2141 08f2 AA0F      		lsl r26
 2142 08f4 BB1F      		rol r27
 2143 08f6 AA0F      		lsl r26
 2144 08f8 BB1F      		rol r27
 2145 08fa AA0D      		add r26,r10
 2146 08fc BB1D      		adc r27,r11
 462:../../emulator/emulator.c **** 					break;
 2147               		.loc 1 462 6 view .LVU395
 2148 08fe 8D91      		ld r24,X+
 2149 0900 9D91      		ld r25,X+
 2150 0902 0D90      		ld __tmp_reg__,X+
 2151 0904 BC91      		ld r27,X
 2152 0906 A02D      		mov r26,__tmp_reg__
 2153 0908 1801      		movw r2,r16
 2154 090a 2901      		movw r4,r18
 2155 090c 280E      		add r2,r24
 2156 090e 391E      		adc r3,r25
 2157 0910 4A1E      		adc r4,r26
 2158 0912 5B1E      		adc r5,r27
 2159 0914 2D82      		std Y+5,r2
 2160 0916 3E82      		std Y+6,r3
 2161 0918 4F82      		std Y+7,r4
 2162 091a 5886      		std Y+8,r5
 2163               	.LVL133:
 2164               	.LBB152:
 2165               	.LBI152:
 109:../../emulator/emulator.c **** {
 2166               		.loc 1 109 13 is_stmt 1 view .LVU396
 2167               	.LBB153:
 111:../../emulator/emulator.c **** 	memory_write(addr, &value8, 1);
 2168               		.loc 1 111 2 view .LVU397
 2169               	.LBE153:
 2170               	.LBE152:
 462:../../emulator/emulator.c **** 					break;
 2171               		.loc 1 462 6 is_stmt 0 view .LVU398
 2172 091c F0E0      		ldi r31,0
 2173 091e 3396      		adiw r30,3
 2174               	.LVL134:
 462:../../emulator/emulator.c **** 					break;
 2175               		.loc 1 462 6 view .LVU399
 2176 0920 EE0F      		lsl r30
 2177 0922 FF1F      		rol r31
 2178 0924 EE0F      		lsl r30
 2179 0926 FF1F      		rol r31
 2180 0928 EA0D      		add r30,r10
 2181 092a FB1D      		adc r31,r11
 2182               	.LBB155:
 2183               	.LBB154:
 111:../../emulator/emulator.c **** 	memory_write(addr, &value8, 1);
 2184               		.loc 1 111 14 view .LVU400
 2185 092c 8081      		ld r24,Z
 2186 092e 8983      		std Y+1,r24
 2187               	.LVL135:
 112:../../emulator/emulator.c **** }
 2188               		.loc 1 112 2 is_stmt 1 view .LVU401
 2189 0930 01E0      		ldi r16,lo8(1)
 2190 0932 10E0      		ldi r17,0
 2191 0934 20E0      		ldi r18,0
 2192 0936 30E0      		ldi r19,0
 2193               	.LVL136:
 2194               	.L93:
 112:../../emulator/emulator.c **** }
 2195               		.loc 1 112 2 is_stmt 0 view .LVU402
 2196               	.LBE154:
 2197               	.LBE155:
 2198               	.LBB156:
 2199               	.LBB157:
 123:../../emulator/emulator.c **** }
 2200               		.loc 1 123 2 view .LVU403
 2201 0938 C201      		movw r24,r4
 2202 093a B101      		movw r22,r2
 2203               	.LVL137:
 123:../../emulator/emulator.c **** }
 2204               		.loc 1 123 2 view .LVU404
 2205 093c 00C0      		rjmp .L94
 2206               	.LVL138:
 2207               	.L50:
 123:../../emulator/emulator.c **** }
 2208               		.loc 1 123 2 view .LVU405
 2209               	.LBE157:
 2210               	.LBE156:
 467:../../emulator/emulator.c **** 					memory_sh(emu->Registers[rs1] + offset, emu->Registers[rs2]);
 2211               		.loc 1 467 71 is_stmt 1 view .LVU406
 468:../../emulator/emulator.c **** 					break;
 2212               		.loc 1 468 6 view .LVU407
 468:../../emulator/emulator.c **** 					break;
 2213               		.loc 1 468 30 is_stmt 0 view .LVU408
 2214 093e A62F      		mov r26,r22
 2215 0940 B0E0      		ldi r27,0
 2216 0942 1396      		adiw r26,3
 2217 0944 AA0F      		lsl r26
 2218 0946 BB1F      		rol r27
 2219 0948 AA0F      		lsl r26
 2220 094a BB1F      		rol r27
 2221               	.LVL139:
 468:../../emulator/emulator.c **** 					break;
 2222               		.loc 1 468 30 view .LVU409
 2223 094c AA0D      		add r26,r10
 2224 094e BB1D      		adc r27,r11
 468:../../emulator/emulator.c **** 					break;
 2225               		.loc 1 468 6 view .LVU410
 2226 0950 8D91      		ld r24,X+
 2227 0952 9D91      		ld r25,X+
 2228 0954 0D90      		ld __tmp_reg__,X+
 2229 0956 BC91      		ld r27,X
 2230 0958 A02D      		mov r26,__tmp_reg__
 2231 095a 2801      		movw r4,r16
 2232 095c 3901      		movw r6,r18
 2233 095e 480E      		add r4,r24
 2234 0960 591E      		adc r5,r25
 2235 0962 6A1E      		adc r6,r26
 2236 0964 7B1E      		adc r7,r27
 2237 0966 4D82      		std Y+5,r4
 2238 0968 5E82      		std Y+6,r5
 2239 096a 6F82      		std Y+7,r6
 2240 096c 7886      		std Y+8,r7
 2241               	.LVL140:
 2242               	.LBB160:
 2243               	.LBI160:
 115:../../emulator/emulator.c **** {
 2244               		.loc 1 115 13 is_stmt 1 view .LVU411
 2245               	.LBB161:
 117:../../emulator/emulator.c **** 	memory_write(addr, &value16, 2);
 2246               		.loc 1 117 2 view .LVU412
 2247               	.LBE161:
 2248               	.LBE160:
 468:../../emulator/emulator.c **** 					break;
 2249               		.loc 1 468 6 is_stmt 0 view .LVU413
 2250 096e F0E0      		ldi r31,0
 2251 0970 3396      		adiw r30,3
 2252               	.LVL141:
 468:../../emulator/emulator.c **** 					break;
 2253               		.loc 1 468 6 view .LVU414
 2254 0972 EE0F      		lsl r30
 2255 0974 FF1F      		rol r31
 2256 0976 EE0F      		lsl r30
 2257 0978 FF1F      		rol r31
 2258               	.LVL142:
 468:../../emulator/emulator.c **** 					break;
 2259               		.loc 1 468 6 view .LVU415
 2260 097a EA0D      		add r30,r10
 2261 097c FB1D      		adc r31,r11
 2262               	.LBB163:
 2263               	.LBB162:
 117:../../emulator/emulator.c **** 	memory_write(addr, &value16, 2);
 2264               		.loc 1 117 16 view .LVU416
 2265 097e 8081      		ld r24,Z
 2266 0980 9181      		ldd r25,Z+1
 2267 0982 9A83      		std Y+2,r25
 2268 0984 8983      		std Y+1,r24
 2269               	.LVL143:
 118:../../emulator/emulator.c **** }
 2270               		.loc 1 118 2 is_stmt 1 view .LVU417
 2271 0986 02E0      		ldi r16,lo8(2)
 2272 0988 10E0      		ldi r17,0
 2273 098a 20E0      		ldi r18,0
 2274 098c 30E0      		ldi r19,0
 2275               	.LVL144:
 118:../../emulator/emulator.c **** }
 2276               		.loc 1 118 2 is_stmt 0 view .LVU418
 2277 098e C301      		movw r24,r6
 2278 0990 B201      		movw r22,r4
 2279               	.LVL145:
 2280               	.L94:
 118:../../emulator/emulator.c **** }
 2281               		.loc 1 118 2 view .LVU419
 2282               	.LBE162:
 2283               	.LBE163:
 2284               	.LBB164:
 2285               	.LBB158:
 123:../../emulator/emulator.c **** }
 2286               		.loc 1 123 2 view .LVU420
 2287 0992 0E94 0000 		call memory_write
 2288               	.LVL146:
 2289               	.LBE158:
 2290               	.LBE164:
 475:../../emulator/emulator.c **** 
 2291               		.loc 1 475 6 is_stmt 1 view .LVU421
 2292 0996 00C0      		rjmp .L31
 2293               	.LVL147:
 2294               	.L51:
 473:../../emulator/emulator.c **** 					memory_sw(emu->Registers[rs1] + offset, emu->Registers[rs2]);
 2295               		.loc 1 473 71 view .LVU422
 474:../../emulator/emulator.c **** 					break;
 2296               		.loc 1 474 6 view .LVU423
 474:../../emulator/emulator.c **** 					break;
 2297               		.loc 1 474 30 is_stmt 0 view .LVU424
 2298 0998 A62F      		mov r26,r22
 2299 099a B0E0      		ldi r27,0
 2300 099c 1396      		adiw r26,3
 2301 099e AA0F      		lsl r26
 2302 09a0 BB1F      		rol r27
 2303 09a2 AA0F      		lsl r26
 2304 09a4 BB1F      		rol r27
 2305 09a6 AA0D      		add r26,r10
 2306 09a8 BB1D      		adc r27,r11
 474:../../emulator/emulator.c **** 					break;
 2307               		.loc 1 474 6 view .LVU425
 2308 09aa 8D91      		ld r24,X+
 2309 09ac 9D91      		ld r25,X+
 2310 09ae 0D90      		ld __tmp_reg__,X+
 2311 09b0 BC91      		ld r27,X
 2312 09b2 A02D      		mov r26,__tmp_reg__
 2313 09b4 1801      		movw r2,r16
 2314 09b6 2901      		movw r4,r18
 2315 09b8 280E      		add r2,r24
 2316 09ba 391E      		adc r3,r25
 2317 09bc 4A1E      		adc r4,r26
 2318 09be 5B1E      		adc r5,r27
 2319 09c0 2D82      		std Y+5,r2
 2320 09c2 3E82      		std Y+6,r3
 2321 09c4 4F82      		std Y+7,r4
 2322 09c6 5886      		std Y+8,r5
 2323               	.LVL148:
 474:../../emulator/emulator.c **** 					break;
 2324               		.loc 1 474 6 view .LVU426
 2325 09c8 F0E0      		ldi r31,0
 2326 09ca 3396      		adiw r30,3
 2327               	.LVL149:
 474:../../emulator/emulator.c **** 					break;
 2328               		.loc 1 474 6 view .LVU427
 2329 09cc EE0F      		lsl r30
 2330 09ce FF1F      		rol r31
 2331 09d0 EE0F      		lsl r30
 2332 09d2 FF1F      		rol r31
 2333 09d4 EA0D      		add r30,r10
 2334 09d6 FB1D      		adc r31,r11
 2335 09d8 8081      		ld r24,Z
 2336 09da 9181      		ldd r25,Z+1
 2337 09dc A281      		ldd r26,Z+2
 2338 09de B381      		ldd r27,Z+3
 2339 09e0 8983      		std Y+1,r24
 2340 09e2 9A83      		std Y+2,r25
 2341 09e4 AB83      		std Y+3,r26
 2342 09e6 BC83      		std Y+4,r27
 2343               	.LVL150:
 2344               	.LBB165:
 2345               	.LBI156:
 121:../../emulator/emulator.c **** {
 2346               		.loc 1 121 13 is_stmt 1 view .LVU428
 2347               	.LBB159:
 123:../../emulator/emulator.c **** }
 2348               		.loc 1 123 2 view .LVU429
 2349 09e8 04E0      		ldi r16,lo8(4)
 2350 09ea 10E0      		ldi r17,0
 2351 09ec 20E0      		ldi r18,0
 2352 09ee 30E0      		ldi r19,0
 2353               	.LVL151:
 123:../../emulator/emulator.c **** }
 2354               		.loc 1 123 2 is_stmt 0 view .LVU430
 2355 09f0 00C0      		rjmp .L93
 2356               	.LVL152:
 2357               	.L25:
 123:../../emulator/emulator.c **** }
 2358               		.loc 1 123 2 view .LVU431
 2359               	.LBE159:
 2360               	.LBE165:
 2361               	.LBE147:
 2362               	.LBB166:
 486:../../emulator/emulator.c **** 			rd = (instr >> 7) & 0x1F;
 2363               		.loc 1 486 4 is_stmt 1 view .LVU432
 487:../../emulator/emulator.c **** 			funct3 = (instr >> 12) & 0x07;
 2364               		.loc 1 487 4 view .LVU433
 488:../../emulator/emulator.c **** 			rs1 = (instr >> 15) & 0x1F;
 2365               		.loc 1 488 4 view .LVU434
 488:../../emulator/emulator.c **** 			rs1 = (instr >> 15) & 0x1F;
 2366               		.loc 1 488 20 is_stmt 0 view .LVU435
 2367 09f2 AC01      		movw r20,r24
 2368 09f4 BD01      		movw r22,r26
 2369 09f6 1CE0      		ldi r17,12
 2370               		1:
 2371 09f8 7695      		lsr r23
 2372 09fa 6795      		ror r22
 2373 09fc 5795      		ror r21
 2374 09fe 4795      		ror r20
 2375 0a00 1A95      		dec r17
 2376 0a02 01F4      		brne 1b
 488:../../emulator/emulator.c **** 			rs1 = (instr >> 15) & 0x1F;
 2377               		.loc 1 488 11 view .LVU436
 2378 0a04 042F      		mov r16,r20
 2379               	.LVL153:
 488:../../emulator/emulator.c **** 			rs1 = (instr >> 15) & 0x1F;
 2380               		.loc 1 488 11 view .LVU437
 2381 0a06 0770      		andi r16,lo8(7)
 2382 0a08 302E      		mov r3,r16
 2383               	.LVL154:
 489:../../emulator/emulator.c **** 			rs2 = (instr >> 20) & 0x1F;
 2384               		.loc 1 489 4 is_stmt 1 view .LVU438
 490:../../emulator/emulator.c **** 			funct7 = (instr >> 25);
 2385               		.loc 1 490 4 view .LVU439
 491:../../emulator/emulator.c **** 			if(funct7 == 1)
 2386               		.loc 1 491 4 view .LVU440
 491:../../emulator/emulator.c **** 			if(funct7 == 1)
 2387               		.loc 1 491 20 is_stmt 0 view .LVU441
 2388 0a0a 9C01      		movw r18,r24
 2389 0a0c AD01      		movw r20,r26
 2390 0a0e 09E1      		ldi r16,25
 2391               		1:
 2392 0a10 5695      		lsr r21
 2393 0a12 4795      		ror r20
 2394 0a14 3795      		ror r19
 2395 0a16 2795      		ror r18
 2396 0a18 0A95      		dec r16
 2397 0a1a 01F4      		brne 1b
 2398               	.LVL155:
 492:../../emulator/emulator.c **** 			{
 2399               		.loc 1 492 4 is_stmt 1 view .LVU442
 489:../../emulator/emulator.c **** 			rs2 = (instr >> 20) & 0x1F;
 2400               		.loc 1 489 17 is_stmt 0 view .LVU443
 2401 0a1c AC01      		movw r20,r24
 2402 0a1e BD01      		movw r22,r26
 2403 0a20 3FE0      		ldi r19,15
 2404               		1:
 2405 0a22 7695      		lsr r23
 2406 0a24 6795      		ror r22
 2407 0a26 5795      		ror r21
 2408 0a28 4795      		ror r20
 2409 0a2a 3A95      		dec r19
 2410 0a2c 01F4      		brne 1b
 489:../../emulator/emulator.c **** 			rs2 = (instr >> 20) & 0x1F;
 2411               		.loc 1 489 8 view .LVU444
 2412 0a2e 4F71      		andi r20,lo8(31)
 500:../../emulator/emulator.c **** 						break;
 2413               		.loc 1 500 47 view .LVU445
 2414 0a30 50E0      		ldi r21,0
 2415               	.LBE166:
 2416               	.LBB167:
 324:../../emulator/emulator.c **** 					break;
 2417               		.loc 1 324 51 view .LVU446
 2418 0a32 4D5F      		subi r20,-3
 2419 0a34 5F4F      		sbci r21,-1
 2420 0a36 440F      		lsl r20
 2421 0a38 551F      		rol r21
 2422 0a3a 440F      		lsl r20
 2423 0a3c 551F      		rol r21
 2424 0a3e 4A0D      		add r20,r10
 2425 0a40 5B1D      		adc r21,r11
 2426 0a42 FA01      		movw r30,r20
 2427 0a44 4080      		ld r4,Z
 2428 0a46 5180      		ldd r5,Z+1
 2429 0a48 6280      		ldd r6,Z+2
 2430 0a4a 7380      		ldd r7,Z+3
 2431 0a4c 4D82      		std Y+5,r4
 2432 0a4e 5E82      		std Y+6,r5
 2433 0a50 6F82      		std Y+7,r6
 2434 0a52 7886      		std Y+8,r7
 2435               	.LBE167:
 2436               	.LBB168:
 490:../../emulator/emulator.c **** 			funct7 = (instr >> 25);
 2437               		.loc 1 490 17 view .LVU447
 2438 0a54 AC01      		movw r20,r24
 2439 0a56 BD01      		movw r22,r26
 2440 0a58 E4E1      		ldi r30,20
 2441               		1:
 2442 0a5a 7695      		lsr r23
 2443 0a5c 6795      		ror r22
 2444 0a5e 5795      		ror r21
 2445 0a60 4795      		ror r20
 2446 0a62 EA95      		dec r30
 2447 0a64 01F4      		brne 1b
 490:../../emulator/emulator.c **** 			funct7 = (instr >> 25);
 2448               		.loc 1 490 8 view .LVU448
 2449 0a66 4F71      		andi r20,lo8(31)
 500:../../emulator/emulator.c **** 						break;
 2450               		.loc 1 500 74 view .LVU449
 2451 0a68 50E0      		ldi r21,0
 2452               	.LBE168:
 2453               	.LBB169:
 462:../../emulator/emulator.c **** 					break;
 2454               		.loc 1 462 6 view .LVU450
 2455 0a6a 4D5F      		subi r20,-3
 2456 0a6c 5F4F      		sbci r21,-1
 2457 0a6e 440F      		lsl r20
 2458 0a70 551F      		rol r21
 2459 0a72 440F      		lsl r20
 2460 0a74 551F      		rol r21
 2461 0a76 4A0D      		add r20,r10
 2462 0a78 5B1D      		adc r21,r11
 2463 0a7a FA01      		movw r30,r20
 2464 0a7c 4080      		ld r4,Z
 2465 0a7e 5180      		ldd r5,Z+1
 2466 0a80 6280      		ldd r6,Z+2
 2467 0a82 7380      		ldd r7,Z+3
 2468               	.LBE169:
 2469               	.LBB170:
 487:../../emulator/emulator.c **** 			funct3 = (instr >> 12) & 0x07;
 2470               		.loc 1 487 16 view .LVU451
 2471 0a84 17E0      		ldi r17,7
 2472               		1:
 2473 0a86 B695      		lsr r27
 2474 0a88 A795      		ror r26
 2475 0a8a 9795      		ror r25
 2476 0a8c 8795      		ror r24
 2477 0a8e 1A95      		dec r17
 2478 0a90 01F4      		brne 1b
 2479               	.LVL156:
 487:../../emulator/emulator.c **** 			funct3 = (instr >> 12) & 0x07;
 2480               		.loc 1 487 7 view .LVU452
 2481 0a92 8F71      		andi r24,lo8(31)
 500:../../emulator/emulator.c **** 						break;
 2482               		.loc 1 500 21 view .LVU453
 2483 0a94 90E0      		ldi r25,0
 2484 0a96 EFEF      		ldi r30,lo8(-1)
 2485 0a98 E30D      		add r30,r3
 2486 0a9a 8C01      		movw r16,r24
 2487 0a9c 0D5F      		subi r16,-3
 2488 0a9e 1F4F      		sbci r17,-1
 2489 0aa0 7801      		movw r14,r16
 492:../../emulator/emulator.c **** 			{
 2490               		.loc 1 492 6 view .LVU454
 2491 0aa2 2130      		cpi r18,lo8(1)
 2492 0aa4 01F0      		breq .+2
 2493 0aa6 00C0      		rjmp .L52
 495:../../emulator/emulator.c **** 				{
 2494               		.loc 1 495 5 is_stmt 1 view .LVU455
 2495 0aa8 E730      		cpi r30,lo8(7)
 2496 0aaa 00F4      		brsh .L53
 2497 0aac F0E0      		ldi r31,0
 2498 0aae E050      		subi r30,lo8(-(gs(.L55)))
 2499 0ab0 F040      		sbci r31,hi8(-(gs(.L55)))
 542:../../emulator/emulator.c **** 						break;
 2500               		.loc 1 542 26 is_stmt 0 view .LVU456
 2501 0ab2 EE0C      		lsl r14
 2502 0ab4 FF1C      		rol r15
 2503 0ab6 EE0C      		lsl r14
 2504 0ab8 FF1C      		rol r15
 2505 0aba EA0C      		add r14,r10
 2506 0abc FB1C      		adc r15,r11
 542:../../emulator/emulator.c **** 						break;
 2507               		.loc 1 542 48 view .LVU457
 2508 0abe 6D81      		ldd r22,Y+5
 2509 0ac0 7E81      		ldd r23,Y+6
 2510 0ac2 8F81      		ldd r24,Y+7
 2511 0ac4 9885      		ldd r25,Y+8
 2512 0ac6 A301      		movw r20,r6
 2513 0ac8 9201      		movw r18,r4
 2514 0aca 0C94 0000 		jmp __tablejump2__
 2515               		.section	.jumptables.gcc.emulator_call,"a",@progbits
 2516               		.p2align	1
 2517               	.L55:
 2518 0048 0000      		.word gs(.L61)
 2519 004a 0000      		.word gs(.L60)
 2520 004c 0000      		.word gs(.L59)
 2521 004e 0000      		.word gs(.L58)
 2522 0050 0000      		.word gs(.L57)
 2523 0052 0000      		.word gs(.L56)
 2524 0054 0000      		.word gs(.L54)
 2525               		.text
 2526               	.L53:
 499:../../emulator/emulator.c **** 						emu->Registers[rd] = (i32)emu->Registers[rs1] * (i32)emu->Registers[rs2];
 2527               		.loc 1 499 71 is_stmt 1 view .LVU458
 500:../../emulator/emulator.c **** 						break;
 2528               		.loc 1 500 7 view .LVU459
 500:../../emulator/emulator.c **** 						break;
 2529               		.loc 1 500 26 is_stmt 0 view .LVU460
 2530 0ace F801      		movw r30,r16
 2531 0ad0 EE0F      		lsl r30
 2532 0ad2 FF1F      		rol r31
 2533 0ad4 EE0F      		lsl r30
 2534 0ad6 FF1F      		rol r31
 2535 0ad8 EA0D      		add r30,r10
 2536 0ada FB1D      		adc r31,r11
 500:../../emulator/emulator.c **** 						break;
 2537               		.loc 1 500 53 view .LVU461
 2538 0adc 2D81      		ldd r18,Y+5
 2539 0ade 3E81      		ldd r19,Y+6
 2540 0ae0 4F81      		ldd r20,Y+7
 2541 0ae2 5885      		ldd r21,Y+8
 2542 0ae4 C301      		movw r24,r6
 2543 0ae6 B201      		movw r22,r4
 2544 0ae8 0E94 0000 		call __mulsi3
 2545               	.L92:
 536:../../emulator/emulator.c **** 						break;
 2546               		.loc 1 536 53 view .LVU462
 2547 0aec 6083      		st Z,r22
 2548 0aee 7183      		std Z+1,r23
 2549 0af0 8283      		std Z+2,r24
 2550 0af2 9383      		std Z+3,r25
 537:../../emulator/emulator.c **** 
 2551               		.loc 1 537 7 is_stmt 1 view .LVU463
 2552 0af4 00C0      		rjmp .L31
 2553               	.L61:
 505:../../emulator/emulator.c **** 						emu->Registers[rd] = ((i64)emu->Registers[rs1] * (i64)emu->Registers[rs2]) >> 32;
 2554               		.loc 1 505 72 view .LVU464
 506:../../emulator/emulator.c **** 						break;
 2555               		.loc 1 506 7 view .LVU465
 506:../../emulator/emulator.c **** 						break;
 2556               		.loc 1 506 54 is_stmt 0 view .LVU466
 2557 0af6 0E94 0000 		call __umulsidi3
 506:../../emulator/emulator.c **** 						break;
 2558               		.loc 1 506 82 view .LVU467
 2559 0afa 00E2      		ldi r16,lo8(32)
 2560 0afc 0E94 0000 		call __ashrdi3
 2561               	.L91:
 518:../../emulator/emulator.c **** 						break;
 2562               		.loc 1 518 26 view .LVU468
 2563 0b00 D701      		movw r26,r14
 2564 0b02 2C93      		st X,r18
 2565 0b04 1196      		adiw r26,1
 2566 0b06 3C93      		st X,r19
 2567 0b08 1197      		sbiw r26,1
 2568 0b0a 1296      		adiw r26,2
 2569 0b0c 4C93      		st X,r20
 2570 0b0e 1297      		sbiw r26,2
 2571 0b10 1396      		adiw r26,3
 2572 0b12 5C93      		st X,r21
 519:../../emulator/emulator.c **** 
 2573               		.loc 1 519 7 is_stmt 1 view .LVU469
 2574 0b14 00C0      		rjmp .L31
 2575               	.L60:
 511:../../emulator/emulator.c **** 						emu->Registers[rd] = ((i64)emu->Registers[rs1] * (u64)emu->Registers[rs2]) >> 32;
 2576               		.loc 1 511 74 view .LVU470
 512:../../emulator/emulator.c **** 						break;
 2577               		.loc 1 512 7 view .LVU471
 512:../../emulator/emulator.c **** 						break;
 2578               		.loc 1 512 54 is_stmt 0 view .LVU472
 2579 0b16 0E94 0000 		call __umulsidi3
 512:../../emulator/emulator.c **** 						break;
 2580               		.loc 1 512 82 view .LVU473
 2581 0b1a 00E2      		ldi r16,lo8(32)
 2582 0b1c 0E94 0000 		call __lshrdi3
 512:../../emulator/emulator.c **** 						break;
 2583               		.loc 1 512 26 view .LVU474
 2584 0b20 F701      		movw r30,r14
 2585 0b22 2083      		st Z,r18
 2586 0b24 3183      		std Z+1,r19
 2587 0b26 4283      		std Z+2,r20
 2588 0b28 5383      		std Z+3,r21
 513:../../emulator/emulator.c **** 
 2589               		.loc 1 513 7 is_stmt 1 view .LVU475
 2590 0b2a 00C0      		rjmp .L31
 2591               	.L59:
 517:../../emulator/emulator.c **** 						emu->Registers[rd] = ((u64)emu->Registers[rs1] * (u64)emu->Registers[rs2]) >> 32;
 2592               		.loc 1 517 73 view .LVU476
 518:../../emulator/emulator.c **** 						break;
 2593               		.loc 1 518 7 view .LVU477
 518:../../emulator/emulator.c **** 						break;
 2594               		.loc 1 518 54 is_stmt 0 view .LVU478
 2595 0b2c 0E94 0000 		call __umulsidi3
 518:../../emulator/emulator.c **** 						break;
 2596               		.loc 1 518 82 view .LVU479
 2597 0b30 00E2      		ldi r16,lo8(32)
 2598 0b32 0E94 0000 		call __lshrdi3
 2599 0b36 00C0      		rjmp .L91
 2600               	.L58:
 523:../../emulator/emulator.c **** 						emu->Registers[rd] = (i32)emu->Registers[rs1] / (i32)emu->Registers[rs2];
 2601               		.loc 1 523 71 is_stmt 1 view .LVU480
 524:../../emulator/emulator.c **** 						break;
 2602               		.loc 1 524 7 view .LVU481
 524:../../emulator/emulator.c **** 						break;
 2603               		.loc 1 524 53 is_stmt 0 view .LVU482
 2604 0b38 0E94 0000 		call __divmodsi4
 524:../../emulator/emulator.c **** 						break;
 2605               		.loc 1 524 26 view .LVU483
 2606 0b3c F701      		movw r30,r14
 2607 0b3e 2083      		st Z,r18
 2608 0b40 3183      		std Z+1,r19
 2609 0b42 4283      		std Z+2,r20
 2610 0b44 5383      		std Z+3,r21
 525:../../emulator/emulator.c **** 
 2611               		.loc 1 525 7 is_stmt 1 view .LVU484
 2612 0b46 00C0      		rjmp .L31
 2613               	.L57:
 529:../../emulator/emulator.c **** 						emu->Registers[rd] = emu->Registers[rs1] / emu->Registers[rs2];
 2614               		.loc 1 529 72 view .LVU485
 530:../../emulator/emulator.c **** 						break;
 2615               		.loc 1 530 7 view .LVU486
 530:../../emulator/emulator.c **** 						break;
 2616               		.loc 1 530 48 is_stmt 0 view .LVU487
 2617 0b48 0E94 0000 		call __udivmodsi4
 530:../../emulator/emulator.c **** 						break;
 2618               		.loc 1 530 26 view .LVU488
 2619 0b4c D701      		movw r26,r14
 2620 0b4e 2D93      		st X+,r18
 2621 0b50 3D93      		st X+,r19
 2622 0b52 4D93      		st X+,r20
 2623 0b54 5C93      		st X,r21
 2624 0b56 1397      		sbiw r26,3
 531:../../emulator/emulator.c **** 
 2625               		.loc 1 531 7 is_stmt 1 view .LVU489
 2626 0b58 00C0      		rjmp .L31
 2627               	.L56:
 535:../../emulator/emulator.c **** 						emu->Registers[rd] = (i32)emu->Registers[rs1] % (i32)emu->Registers[rs2];
 2628               		.loc 1 535 71 view .LVU490
 536:../../emulator/emulator.c **** 						break;
 2629               		.loc 1 536 7 view .LVU491
 536:../../emulator/emulator.c **** 						break;
 2630               		.loc 1 536 53 is_stmt 0 view .LVU492
 2631 0b5a 0E94 0000 		call __divmodsi4
 2632 0b5e F701      		movw r30,r14
 2633 0b60 00C0      		rjmp .L92
 2634               	.L54:
 541:../../emulator/emulator.c **** 						emu->Registers[rd] = emu->Registers[rs1] % emu->Registers[rs2];
 2635               		.loc 1 541 72 is_stmt 1 view .LVU493
 542:../../emulator/emulator.c **** 						break;
 2636               		.loc 1 542 7 view .LVU494
 542:../../emulator/emulator.c **** 						break;
 2637               		.loc 1 542 48 is_stmt 0 view .LVU495
 2638 0b62 0E94 0000 		call __udivmodsi4
 2639 0b66 D701      		movw r26,r14
 2640 0b68 6D93      		st X+,r22
 2641 0b6a 7D93      		st X+,r23
 2642 0b6c 8D93      		st X+,r24
 2643 0b6e 9C93      		st X,r25
 2644 0b70 1397      		sbiw r26,3
 543:../../emulator/emulator.c **** 				}
 2645               		.loc 1 543 7 is_stmt 1 view .LVU496
 2646 0b72 00C0      		rjmp .L31
 2647               	.L52:
 548:../../emulator/emulator.c **** 				{
 2648               		.loc 1 548 5 view .LVU497
 2649 0b74 E730      		cpi r30,lo8(7)
 2650 0b76 00F4      		brsh .L62
 2651 0b78 F0E0      		ldi r31,0
 2652 0b7a E050      		subi r30,lo8(-(gs(.L64)))
 2653 0b7c F040      		sbci r31,hi8(-(gs(.L64)))
 2654 0b7e 0C94 0000 		jmp __tablejump2__
 2655               		.section	.jumptables.gcc.emulator_call,"a",@progbits
 2656               		.p2align	1
 2657               	.L64:
 2658 0056 0000      		.word gs(.L70)
 2659 0058 0000      		.word gs(.L69)
 2660 005a 0000      		.word gs(.L68)
 2661 005c 0000      		.word gs(.L67)
 2662 005e 0000      		.word gs(.L66)
 2663 0060 0000      		.word gs(.L65)
 2664 0062 0000      		.word gs(.L63)
 2665               		.text
 2666               	.L62:
 551:../../emulator/emulator.c **** 						{
 2667               		.loc 1 551 7 view .LVU498
 555:../../emulator/emulator.c **** 						}
 2668               		.loc 1 555 27 is_stmt 0 view .LVU499
 2669 0b82 F801      		movw r30,r16
 2670 0b84 EE0F      		lsl r30
 2671 0b86 FF1F      		rol r31
 2672 0b88 EE0F      		lsl r30
 2673 0b8a FF1F      		rol r31
 2674 0b8c EA0D      		add r30,r10
 2675 0b8e FB1D      		adc r31,r11
 555:../../emulator/emulator.c **** 						}
 2676               		.loc 1 555 49 view .LVU500
 2677 0b90 8D81      		ldd r24,Y+5
 2678 0b92 9E81      		ldd r25,Y+6
 2679 0b94 AF81      		ldd r26,Y+7
 2680 0b96 B885      		ldd r27,Y+8
 551:../../emulator/emulator.c **** 						{
 2681               		.loc 1 551 9 view .LVU501
 2682 0b98 2223      		tst r18
 2683 0b9a 01F0      		breq .L71
 554:../../emulator/emulator.c **** 							emu->Registers[rd] = emu->Registers[rs1] - emu->Registers[rs2];
 2684               		.loc 1 554 72 is_stmt 1 view .LVU502
 555:../../emulator/emulator.c **** 						}
 2685               		.loc 1 555 8 view .LVU503
 555:../../emulator/emulator.c **** 						}
 2686               		.loc 1 555 49 is_stmt 0 view .LVU504
 2687 0b9c 8419      		sub r24,r4
 2688 0b9e 9509      		sbc r25,r5
 2689 0ba0 A609      		sbc r26,r6
 2690 0ba2 B709      		sbc r27,r7
 2691 0ba4 00C0      		rjmp .L87
 2692               	.L71:
 560:../../emulator/emulator.c **** 							emu->Registers[rd] = emu->Registers[rs1] + emu->Registers[rs2];
 2693               		.loc 1 560 72 is_stmt 1 view .LVU505
 561:../../emulator/emulator.c **** 						}
 2694               		.loc 1 561 8 view .LVU506
 561:../../emulator/emulator.c **** 						}
 2695               		.loc 1 561 49 is_stmt 0 view .LVU507
 2696 0ba6 840D      		add r24,r4
 2697 0ba8 951D      		adc r25,r5
 2698 0baa A61D      		adc r26,r6
 2699 0bac B71D      		adc r27,r7
 2700 0bae 00C0      		rjmp .L87
 2701               	.L70:
 567:../../emulator/emulator.c **** 						emu->Registers[rd] = emu->Registers[rs1] << (emu->Registers[rs2] & 0x1F);
 2702               		.loc 1 567 71 is_stmt 1 view .LVU508
 568:../../emulator/emulator.c **** 						break;
 2703               		.loc 1 568 7 view .LVU509
 568:../../emulator/emulator.c **** 						break;
 2704               		.loc 1 568 26 is_stmt 0 view .LVU510
 2705 0bb0 F801      		movw r30,r16
 2706 0bb2 EE0F      		lsl r30
 2707 0bb4 FF1F      		rol r31
 2708 0bb6 EE0F      		lsl r30
 2709 0bb8 FF1F      		rol r31
 2710 0bba EA0D      		add r30,r10
 2711 0bbc FB1D      		adc r31,r11
 568:../../emulator/emulator.c **** 						break;
 2712               		.loc 1 568 72 view .LVU511
 2713 0bbe BFE1      		ldi r27,31
 2714 0bc0 4B22      		and r4,r27
 2715 0bc2 5524      		clr r5
 568:../../emulator/emulator.c **** 						break;
 2716               		.loc 1 568 48 view .LVU512
 2717 0bc4 8D81      		ldd r24,Y+5
 2718 0bc6 9E81      		ldd r25,Y+6
 2719 0bc8 AF81      		ldd r26,Y+7
 2720 0bca B885      		ldd r27,Y+8
 2721 0bcc 00C0      		rjmp 2f
 2722               		1:
 2723 0bce 880F      		lsl r24
 2724 0bd0 991F      		rol r25
 2725 0bd2 AA1F      		rol r26
 2726 0bd4 BB1F      		rol r27
 2727               		2:
 2728 0bd6 4A94      		dec r4
 2729 0bd8 02F4      		brpl 1b
 2730 0bda 00C0      		rjmp .L87
 2731               	.L69:
 573:../../emulator/emulator.c **** 						emu->Registers[rd] = (i32)emu->Registers[rs1] < (i32)emu->Registers[rs2];
 2732               		.loc 1 573 71 is_stmt 1 view .LVU513
 574:../../emulator/emulator.c **** 						break;
 2733               		.loc 1 574 7 view .LVU514
 574:../../emulator/emulator.c **** 						break;
 2734               		.loc 1 574 26 is_stmt 0 view .LVU515
 2735 0bdc F801      		movw r30,r16
 2736 0bde EE0F      		lsl r30
 2737 0be0 FF1F      		rol r31
 2738 0be2 EE0F      		lsl r30
 2739 0be4 FF1F      		rol r31
 2740 0be6 EA0D      		add r30,r10
 2741 0be8 FB1D      		adc r31,r11
 574:../../emulator/emulator.c **** 						break;
 2742               		.loc 1 574 53 view .LVU516
 2743 0bea 81E0      		ldi r24,lo8(1)
 2744 0bec 90E0      		ldi r25,0
 2745 0bee A0E0      		ldi r26,0
 2746 0bf0 B0E0      		ldi r27,0
 2747 0bf2 ED80      		ldd r14,Y+5
 2748 0bf4 FE80      		ldd r15,Y+6
 2749 0bf6 0F81      		ldd r16,Y+7
 2750 0bf8 1885      		ldd r17,Y+8
 2751 0bfa E414      		cp r14,r4
 2752 0bfc F504      		cpc r15,r5
 2753 0bfe 0605      		cpc r16,r6
 2754 0c00 1705      		cpc r17,r7
 2755 0c02 00C0      		rjmp .L103
 2756               	.L68:
 579:../../emulator/emulator.c **** 						emu->Registers[rd] = emu->Registers[rs1] < emu->Registers[rs2];
 2757               		.loc 1 579 72 is_stmt 1 view .LVU517
 580:../../emulator/emulator.c **** 						break;
 2758               		.loc 1 580 7 view .LVU518
 580:../../emulator/emulator.c **** 						break;
 2759               		.loc 1 580 26 is_stmt 0 view .LVU519
 2760 0c04 F801      		movw r30,r16
 2761 0c06 EE0F      		lsl r30
 2762 0c08 FF1F      		rol r31
 2763 0c0a EE0F      		lsl r30
 2764 0c0c FF1F      		rol r31
 2765 0c0e EA0D      		add r30,r10
 2766 0c10 FB1D      		adc r31,r11
 580:../../emulator/emulator.c **** 						break;
 2767               		.loc 1 580 48 view .LVU520
 2768 0c12 81E0      		ldi r24,lo8(1)
 2769 0c14 90E0      		ldi r25,0
 2770 0c16 A0E0      		ldi r26,0
 2771 0c18 B0E0      		ldi r27,0
 2772 0c1a 0D81      		ldd r16,Y+5
 2773 0c1c 1E81      		ldd r17,Y+6
 2774 0c1e 2F81      		ldd r18,Y+7
 2775 0c20 3885      		ldd r19,Y+8
 2776 0c22 0415      		cp r16,r4
 2777 0c24 1505      		cpc r17,r5
 2778 0c26 2605      		cpc r18,r6
 2779 0c28 3705      		cpc r19,r7
 2780 0c2a 00F4      		brsh .+2
 2781 0c2c 00C0      		rjmp .L87
 2782 0c2e 00C0      		rjmp .L102
 2783               	.L67:
 585:../../emulator/emulator.c **** 						emu->Registers[rd] = emu->Registers[rs1] ^ emu->Registers[rs2];
 2784               		.loc 1 585 71 is_stmt 1 view .LVU521
 586:../../emulator/emulator.c **** 						break;
 2785               		.loc 1 586 7 view .LVU522
 586:../../emulator/emulator.c **** 						break;
 2786               		.loc 1 586 26 is_stmt 0 view .LVU523
 2787 0c30 F801      		movw r30,r16
 2788 0c32 EE0F      		lsl r30
 2789 0c34 FF1F      		rol r31
 2790 0c36 EE0F      		lsl r30
 2791 0c38 FF1F      		rol r31
 2792 0c3a EA0D      		add r30,r10
 2793 0c3c FB1D      		adc r31,r11
 586:../../emulator/emulator.c **** 						break;
 2794               		.loc 1 586 48 view .LVU524
 2795 0c3e 8D81      		ldd r24,Y+5
 2796 0c40 9E81      		ldd r25,Y+6
 2797 0c42 AF81      		ldd r26,Y+7
 2798 0c44 B885      		ldd r27,Y+8
 2799 0c46 8425      		eor r24,r4
 2800 0c48 9525      		eor r25,r5
 2801 0c4a A625      		eor r26,r6
 2802 0c4c B725      		eor r27,r7
 2803 0c4e 00C0      		rjmp .L87
 2804               	.L66:
 590:../../emulator/emulator.c **** 						{
 2805               		.loc 1 590 7 is_stmt 1 view .LVU525
 594:../../emulator/emulator.c **** 						}
 2806               		.loc 1 594 78 is_stmt 0 view .LVU526
 2807 0c50 1FE1      		ldi r17,31
 2808 0c52 4122      		and r4,r17
 2809 0c54 5524      		clr r5
 594:../../emulator/emulator.c **** 						}
 2810               		.loc 1 594 27 view .LVU527
 2811 0c56 F701      		movw r30,r14
 2812 0c58 EE0F      		lsl r30
 2813 0c5a FF1F      		rol r31
 2814 0c5c EE0F      		lsl r30
 2815 0c5e FF1F      		rol r31
 2816 0c60 EA0D      		add r30,r10
 2817 0c62 FB1D      		adc r31,r11
 594:../../emulator/emulator.c **** 						}
 2818               		.loc 1 594 54 view .LVU528
 2819 0c64 8D81      		ldd r24,Y+5
 2820 0c66 9E81      		ldd r25,Y+6
 2821 0c68 AF81      		ldd r26,Y+7
 2822 0c6a B885      		ldd r27,Y+8
 590:../../emulator/emulator.c **** 						{
 2823               		.loc 1 590 9 view .LVU529
 2824 0c6c 2223      		tst r18
 2825 0c6e 01F0      		breq .L74
 593:../../emulator/emulator.c **** 							emu->Registers[rd] = (i32)emu->Registers[rs1] >> (emu->Registers[rs2] & 0x1F);
 2826               		.loc 1 593 72 is_stmt 1 view .LVU530
 594:../../emulator/emulator.c **** 						}
 2827               		.loc 1 594 8 view .LVU531
 594:../../emulator/emulator.c **** 						}
 2828               		.loc 1 594 54 is_stmt 0 view .LVU532
 2829 0c70 00C0      		rjmp 2f
 2830               		1:
 2831 0c72 B595      		asr r27
 2832 0c74 A795      		ror r26
 2833 0c76 9795      		ror r25
 2834 0c78 8795      		ror r24
 2835               		2:
 2836 0c7a 4A94      		dec r4
 2837 0c7c 02F4      		brpl 1b
 2838 0c7e 00C0      		rjmp .L87
 2839               	.L74:
 599:../../emulator/emulator.c **** 							emu->Registers[rd] = emu->Registers[rs1] >> (emu->Registers[rs2] & 0x1F);
 2840               		.loc 1 599 72 is_stmt 1 view .LVU533
 600:../../emulator/emulator.c **** 						}
 2841               		.loc 1 600 8 view .LVU534
 600:../../emulator/emulator.c **** 						}
 2842               		.loc 1 600 49 is_stmt 0 view .LVU535
 2843 0c80 00C0      		rjmp 2f
 2844               		1:
 2845 0c82 B695      		lsr r27
 2846 0c84 A795      		ror r26
 2847 0c86 9795      		ror r25
 2848 0c88 8795      		ror r24
 2849               		2:
 2850 0c8a 4A94      		dec r4
 2851 0c8c 02F4      		brpl 1b
 2852 0c8e 00C0      		rjmp .L87
 2853               	.L65:
 606:../../emulator/emulator.c **** 						emu->Registers[rd] = emu->Registers[rs1] | emu->Registers[rs2];
 2854               		.loc 1 606 70 is_stmt 1 view .LVU536
 607:../../emulator/emulator.c **** 						break;
 2855               		.loc 1 607 7 view .LVU537
 607:../../emulator/emulator.c **** 						break;
 2856               		.loc 1 607 26 is_stmt 0 view .LVU538
 2857 0c90 F801      		movw r30,r16
 2858 0c92 EE0F      		lsl r30
 2859 0c94 FF1F      		rol r31
 2860 0c96 EE0F      		lsl r30
 2861 0c98 FF1F      		rol r31
 2862 0c9a EA0D      		add r30,r10
 2863 0c9c FB1D      		adc r31,r11
 607:../../emulator/emulator.c **** 						break;
 2864               		.loc 1 607 48 view .LVU539
 2865 0c9e 8D81      		ldd r24,Y+5
 2866 0ca0 9E81      		ldd r25,Y+6
 2867 0ca2 AF81      		ldd r26,Y+7
 2868 0ca4 B885      		ldd r27,Y+8
 2869 0ca6 8429      		or r24,r4
 2870 0ca8 9529      		or r25,r5
 2871 0caa A629      		or r26,r6
 2872 0cac B729      		or r27,r7
 2873 0cae 00C0      		rjmp .L87
 2874               	.L63:
 612:../../emulator/emulator.c **** 						emu->Registers[rd] = emu->Registers[rs1] & emu->Registers[rs2];
 2875               		.loc 1 612 71 is_stmt 1 view .LVU540
 613:../../emulator/emulator.c **** 						break;
 2876               		.loc 1 613 7 view .LVU541
 613:../../emulator/emulator.c **** 						break;
 2877               		.loc 1 613 26 is_stmt 0 view .LVU542
 2878 0cb0 F801      		movw r30,r16
 2879 0cb2 EE0F      		lsl r30
 2880 0cb4 FF1F      		rol r31
 2881 0cb6 EE0F      		lsl r30
 2882 0cb8 FF1F      		rol r31
 2883 0cba EA0D      		add r30,r10
 2884 0cbc FB1D      		adc r31,r11
 613:../../emulator/emulator.c **** 						break;
 2885               		.loc 1 613 48 view .LVU543
 2886 0cbe 8D81      		ldd r24,Y+5
 2887 0cc0 9E81      		ldd r25,Y+6
 2888 0cc2 AF81      		ldd r26,Y+7
 2889 0cc4 B885      		ldd r27,Y+8
 2890 0cc6 8421      		and r24,r4
 2891 0cc8 9521      		and r25,r5
 2892 0cca A621      		and r26,r6
 2893 0ccc B721      		and r27,r7
 2894 0cce 00C0      		rjmp .L87
 2895               	.LVL157:
 2896               	.L24:
 613:../../emulator/emulator.c **** 						break;
 2897               		.loc 1 613 48 view .LVU544
 2898               	.LBE170:
 2899               	.LBB171:
 622:../../emulator/emulator.c **** 			u32 imm;
 2900               		.loc 1 622 4 is_stmt 1 view .LVU545
 623:../../emulator/emulator.c **** 			rd = (instr >> 7) & 0x1F;
 2901               		.loc 1 623 4 view .LVU546
 624:../../emulator/emulator.c **** 			imm = (instr >> 12);
 2902               		.loc 1 624 4 view .LVU547
 625:../../emulator/emulator.c **** 			EMU_LOG(PSTR("lui r%"PRIu8", 0x%08"PRIx32), rd, imm);
 2903               		.loc 1 625 4 view .LVU548
 626:../../emulator/emulator.c **** 			emu->Registers[rd] = (imm << 12);
 2904               		.loc 1 626 56 view .LVU549
 627:../../emulator/emulator.c **** 			break;
 2905               		.loc 1 627 4 view .LVU550
 624:../../emulator/emulator.c **** 			imm = (instr >> 12);
 2906               		.loc 1 624 16 is_stmt 0 view .LVU551
 2907 0cd0 AC01      		movw r20,r24
 2908 0cd2 BD01      		movw r22,r26
 2909 0cd4 E7E0      		ldi r30,7
 2910               		1:
 2911 0cd6 7695      		lsr r23
 2912 0cd8 6795      		ror r22
 2913 0cda 5795      		ror r21
 2914 0cdc 4795      		ror r20
 2915 0cde EA95      		dec r30
 2916 0ce0 01F4      		brne 1b
 624:../../emulator/emulator.c **** 			imm = (instr >> 12);
 2917               		.loc 1 624 7 view .LVU552
 2918 0ce2 4F71      		andi r20,lo8(31)
 627:../../emulator/emulator.c **** 			break;
 2919               		.loc 1 627 18 view .LVU553
 2920 0ce4 E42F      		mov r30,r20
 2921 0ce6 F0E0      		ldi r31,0
 627:../../emulator/emulator.c **** 			break;
 2922               		.loc 1 627 23 view .LVU554
 2923 0ce8 3396      		adiw r30,3
 2924 0cea EE0F      		lsl r30
 2925 0cec FF1F      		rol r31
 2926 0cee EE0F      		lsl r30
 2927 0cf0 FF1F      		rol r31
 2928 0cf2 EA0D      		add r30,r10
 2929 0cf4 FB1D      		adc r31,r11
 627:../../emulator/emulator.c **** 			break;
 2930               		.loc 1 627 30 view .LVU555
 2931 0cf6 8827      		clr r24
 2932 0cf8 907F      		andi r25,240
 2933               	.LVL158:
 627:../../emulator/emulator.c **** 			break;
 2934               		.loc 1 627 30 view .LVU556
 2935 0cfa 00C0      		rjmp .L87
 2936               	.LVL159:
 2937               	.L23:
 627:../../emulator/emulator.c **** 			break;
 2938               		.loc 1 627 30 view .LVU557
 2939               	.LBE171:
 2940               	.LBB172:
 633:../../emulator/emulator.c **** 			u32 imm;
 2941               		.loc 1 633 4 is_stmt 1 view .LVU558
 634:../../emulator/emulator.c **** 			u8 rs1, rs2, funct3;
 2942               		.loc 1 634 4 view .LVU559
 635:../../emulator/emulator.c **** 			funct3 = (instr >> 12) & 0x07;
 2943               		.loc 1 635 4 view .LVU560
 636:../../emulator/emulator.c **** 			rs1 = (instr >> 15) & 0x1F;
 2944               		.loc 1 636 4 view .LVU561
 636:../../emulator/emulator.c **** 			rs1 = (instr >> 15) & 0x1F;
 2945               		.loc 1 636 20 is_stmt 0 view .LVU562
 2946 0cfc AC01      		movw r20,r24
 2947 0cfe BD01      		movw r22,r26
 2948 0d00 3CE0      		ldi r19,12
 2949               		1:
 2950 0d02 7695      		lsr r23
 2951 0d04 6795      		ror r22
 2952 0d06 5795      		ror r21
 2953 0d08 4795      		ror r20
 2954 0d0a 3A95      		dec r19
 2955 0d0c 01F4      		brne 1b
 636:../../emulator/emulator.c **** 			rs1 = (instr >> 15) & 0x1F;
 2956               		.loc 1 636 11 view .LVU563
 2957 0d0e F42F      		mov r31,r20
 2958 0d10 F770      		andi r31,lo8(7)
 2959               	.LVL160:
 637:../../emulator/emulator.c **** 			rs2 = (instr >> 20) & 0x1F;
 2960               		.loc 1 637 4 is_stmt 1 view .LVU564
 637:../../emulator/emulator.c **** 			rs2 = (instr >> 20) & 0x1F;
 2961               		.loc 1 637 17 is_stmt 0 view .LVU565
 2962 0d12 AC01      		movw r20,r24
 2963 0d14 BD01      		movw r22,r26
 2964 0d16 EFE0      		ldi r30,15
 2965               		1:
 2966 0d18 7695      		lsr r23
 2967 0d1a 6795      		ror r22
 2968 0d1c 5795      		ror r21
 2969 0d1e 4795      		ror r20
 2970 0d20 EA95      		dec r30
 2971 0d22 01F4      		brne 1b
 637:../../emulator/emulator.c **** 			rs2 = (instr >> 20) & 0x1F;
 2972               		.loc 1 637 8 view .LVU566
 2973 0d24 E42F      		mov r30,r20
 2974 0d26 EF71      		andi r30,lo8(31)
 2975               	.LVL161:
 638:../../emulator/emulator.c **** 			imm = ((instr & 0xF00) >> 7) |
 2976               		.loc 1 638 4 is_stmt 1 view .LVU567
 638:../../emulator/emulator.c **** 			imm = ((instr & 0xF00) >> 7) |
 2977               		.loc 1 638 17 is_stmt 0 view .LVU568
 2978 0d28 2C01      		movw r4,r24
 2979 0d2a 3D01      		movw r6,r26
 2980 0d2c 14E1      		ldi r17,20
 2981               		1:
 2982 0d2e 7694      		lsr r7
 2983 0d30 6794      		ror r6
 2984 0d32 5794      		ror r5
 2985 0d34 4794      		ror r4
 2986 0d36 1A95      		dec r17
 2987 0d38 01F4      		brne 1b
 638:../../emulator/emulator.c **** 			imm = ((instr & 0xF00) >> 7) |
 2988               		.loc 1 638 8 view .LVU569
 2989 0d3a 242D      		mov r18,r4
 2990 0d3c 2F71      		andi r18,lo8(31)
 2991               	.LVL162:
 639:../../emulator/emulator.c **** 				((instr & 0x7E000000) >> 20) |
 2992               		.loc 1 639 4 is_stmt 1 view .LVU570
 644:../../emulator/emulator.c **** 			switch(funct3)
 2993               		.loc 1 644 4 view .LVU571
 2994               	.LBB173:
 2995               	.LBI173:
  64:../../emulator/emulator.c **** {
 2996               		.loc 1 64 19 view .LVU572
 2997               	.LBB174:
  66:../../emulator/emulator.c **** 	return (value ^ m) - m;
 2998               		.loc 1 66 2 view .LVU573
  67:../../emulator/emulator.c **** }
 2999               		.loc 1 67 2 view .LVU574
 3000               	.LBE174:
 3001               	.LBE173:
 639:../../emulator/emulator.c **** 				((instr & 0x7E000000) >> 20) |
 3002               		.loc 1 639 27 is_stmt 0 view .LVU575
 3003 0d3e AC01      		movw r20,r24
 3004 0d40 BD01      		movw r22,r26
 3005 0d42 07E0      		ldi r16,7
 3006               		1:
 3007 0d44 7695      		lsr r23
 3008 0d46 6795      		ror r22
 3009 0d48 5795      		ror r21
 3010 0d4a 4795      		ror r20
 3011 0d4c 0A95      		dec r16
 3012 0d4e 01F4      		brne 1b
 3013               	.LVL163:
 639:../../emulator/emulator.c **** 				((instr & 0x7E000000) >> 20) |
 3014               		.loc 1 639 27 view .LVU576
 3015 0d50 4E71      		andi r20,30
 3016 0d52 5527      		clr r21
 3017 0d54 6627      		clr r22
 3018 0d56 7727      		clr r23
 640:../../emulator/emulator.c **** 				((instr & 0x80) << 4) |
 3019               		.loc 1 640 27 view .LVU577
 3020 0d58 8301      		movw r16,r6
 3021 0d5a 7201      		movw r14,r4
 3022 0d5c 30EE      		ldi r19,224
 3023 0d5e E322      		and r14,r19
 3024 0d60 37E0      		ldi r19,7
 3025 0d62 F322      		and r15,r19
 3026 0d64 0027      		clr r16
 3027 0d66 1127      		clr r17
 639:../../emulator/emulator.c **** 				((instr & 0x7E000000) >> 20) |
 3028               		.loc 1 639 33 view .LVU578
 3029 0d68 4E29      		or r20,r14
 3030 0d6a 5F29      		or r21,r15
 3031 0d6c 602B      		or r22,r16
 3032 0d6e 712B      		or r23,r17
 641:../../emulator/emulator.c **** 				((instr & 0x80000000) >> 20);
 3033               		.loc 1 641 21 view .LVU579
 3034 0d70 34E0      		ldi r19,4
 3035               		1:
 3036 0d72 880F      		lsl r24
 3037 0d74 991F      		rol r25
 3038 0d76 AA1F      		rol r26
 3039 0d78 BB1F      		rol r27
 3040 0d7a 3A95      		dec r19
 3041 0d7c 01F4      		brne 1b
 3042               	.LVL164:
 641:../../emulator/emulator.c **** 				((instr & 0x80000000) >> 20);
 3043               		.loc 1 641 21 view .LVU580
 3044 0d7e 8827      		clr r24
 3045 0d80 9870      		andi r25,8
 3046 0d82 AA27      		clr r26
 3047 0d84 BB27      		clr r27
 640:../../emulator/emulator.c **** 				((instr & 0x80) << 4) |
 3048               		.loc 1 640 34 view .LVU581
 3049 0d86 842B      		or r24,r20
 3050 0d88 952B      		or r25,r21
 3051 0d8a A62B      		or r26,r22
 3052 0d8c B72B      		or r27,r23
 642:../../emulator/emulator.c **** 
 3053               		.loc 1 642 27 view .LVU582
 3054 0d8e 4424      		clr r4
 3055 0d90 48E0      		ldi r20,8
 3056 0d92 5422      		and r5,r20
 3057 0d94 6624      		clr r6
 3058 0d96 7724      		clr r7
 3059               	.LVL165:
 639:../../emulator/emulator.c **** 				((instr & 0x7E000000) >> 20) |
 3060               		.loc 1 639 8 view .LVU583
 3061 0d98 AC01      		movw r20,r24
 3062 0d9a BD01      		movw r22,r26
 3063 0d9c 4429      		or r20,r4
 3064 0d9e 5529      		or r21,r5
 3065 0da0 6629      		or r22,r6
 3066 0da2 7729      		or r23,r7
 3067               	.LBB176:
 3068               	.LBB175:
  67:../../emulator/emulator.c **** }
 3069               		.loc 1 67 16 view .LVU584
 3070 0da4 88E0      		ldi r24,8
 3071 0da6 5827      		eor r21,r24
  67:../../emulator/emulator.c **** }
 3072               		.loc 1 67 21 view .LVU585
 3073 0da8 5850      		subi r21,8
 3074 0daa 6109      		sbc r22,__zero_reg__
 3075 0dac 7109      		sbc r23,__zero_reg__
 3076               	.LVL166:
  67:../../emulator/emulator.c **** }
 3077               		.loc 1 67 21 view .LVU586
 3078               	.LBE175:
 3079               	.LBE176:
 645:../../emulator/emulator.c **** 			{
 3080               		.loc 1 645 4 is_stmt 1 view .LVU587
 3081 0dae F530      		cpi r31,lo8(5)
 3082 0db0 01F4      		brne .+2
 3083 0db2 00C0      		rjmp .L75
 3084 0db4 00F0      		brlo .+2
 3085 0db6 00C0      		rjmp .L76
 3086 0db8 F130      		cpi r31,lo8(1)
 3087 0dba 01F4      		brne .+2
 3088 0dbc 00C0      		rjmp .L77
 3089 0dbe F430      		cpi r31,lo8(4)
 3090 0dc0 01F4      		brne .+2
 3091 0dc2 00C0      		rjmp .L78
 3092 0dc4 F111      		cpse r31,__zero_reg__
 3093 0dc6 00C0      		rjmp .L16
 649:../../emulator/emulator.c **** 					if(emu->Registers[rs1] == emu->Registers[rs2])
 3094               		.loc 1 649 77 view .LVU588
 650:../../emulator/emulator.c **** 					{
 3095               		.loc 1 650 6 view .LVU589
 3096               	.LBE172:
 3097               	.LBB177:
 443:../../emulator/emulator.c **** 			break;
 3098               		.loc 1 443 28 is_stmt 0 view .LVU590
 3099 0dc8 D501      		movw r26,r10
 3100 0dca 1896      		adiw r26,8
 3101 0dcc 4D90      		ld r4,X+
 3102 0dce 5D90      		ld r5,X+
 3103 0dd0 6D90      		ld r6,X+
 3104 0dd2 7C90      		ld r7,X
 3105 0dd4 1B97      		sbiw r26,8+3
 3106               	.LBE177:
 3107               	.LBB178:
 650:../../emulator/emulator.c **** 					{
 3108               		.loc 1 650 23 view .LVU591
 3109 0dd6 F0E0      		ldi r31,0
 3110               	.LVL167:
 650:../../emulator/emulator.c **** 					{
 3111               		.loc 1 650 23 view .LVU592
 3112 0dd8 3396      		adiw r30,3
 3113               	.LVL168:
 650:../../emulator/emulator.c **** 					{
 3114               		.loc 1 650 23 view .LVU593
 3115 0dda EE0F      		lsl r30
 3116 0ddc FF1F      		rol r31
 3117 0dde EE0F      		lsl r30
 3118 0de0 FF1F      		rol r31
 3119 0de2 EA0D      		add r30,r10
 3120 0de4 FB1D      		adc r31,r11
 650:../../emulator/emulator.c **** 					{
 3121               		.loc 1 650 46 view .LVU594
 3122 0de6 A22F      		mov r26,r18
 3123 0de8 B0E0      		ldi r27,0
 3124 0dea 1396      		adiw r26,3
 3125 0dec AA0F      		lsl r26
 3126 0dee BB1F      		rol r27
 3127 0df0 AA0F      		lsl r26
 3128 0df2 BB1F      		rol r27
 3129               	.LVL169:
 650:../../emulator/emulator.c **** 					{
 3130               		.loc 1 650 46 view .LVU595
 3131 0df4 AA0D      		add r26,r10
 3132 0df6 BB1D      		adc r27,r11
 650:../../emulator/emulator.c **** 					{
 3133               		.loc 1 650 8 view .LVU596
 3134 0df8 0081      		ld r16,Z
 3135 0dfa 1181      		ldd r17,Z+1
 3136 0dfc 2281      		ldd r18,Z+2
 3137 0dfe 3381      		ldd r19,Z+3
 3138 0e00 8D91      		ld r24,X+
 3139 0e02 9D91      		ld r25,X+
 3140 0e04 0D90      		ld __tmp_reg__,X+
 3141 0e06 BC91      		ld r27,X
 3142 0e08 A02D      		mov r26,__tmp_reg__
 3143 0e0a 0817      		cp r16,r24
 3144 0e0c 1907      		cpc r17,r25
 3145 0e0e 2A07      		cpc r18,r26
 3146 0e10 3B07      		cpc r19,r27
 3147 0e12 01F0      		breq .+2
 3148 0e14 00C0      		rjmp .L31
 3149               	.L99:
 702:../../emulator/emulator.c **** 						return 0;
 3150               		.loc 1 702 7 is_stmt 1 view .LVU597
 702:../../emulator/emulator.c **** 						return 0;
 3151               		.loc 1 702 15 is_stmt 0 view .LVU598
 3152 0e16 DB01      		movw r26,r22
 3153 0e18 CA01      		movw r24,r20
 3154 0e1a 840D      		add r24,r4
 3155 0e1c 951D      		adc r25,r5
 3156 0e1e A61D      		adc r26,r6
 3157 0e20 B71D      		adc r27,r7
 703:../../emulator/emulator.c **** 					}
 3158               		.loc 1 703 7 is_stmt 1 view .LVU599
 3159               	.LVL170:
 3160               	.L82:
 662:../../emulator/emulator.c **** 						return 0;
 3161               		.loc 1 662 15 is_stmt 0 view .LVU600
 3162 0e22 F501      		movw r30,r10
 3163 0e24 8087      		std Z+8,r24
 3164 0e26 9187      		std Z+9,r25
 3165 0e28 A287      		std Z+10,r26
 3166 0e2a B387      		std Z+11,r27
 3167               	.LBE178:
 3168               	.LBE197:
 3169               	.LBE200:
 779:../../emulator/emulator.c **** 		if(_finished)
 3170               		.loc 1 779 3 is_stmt 1 view .LVU601
 780:../../emulator/emulator.c **** 		{
 3171               		.loc 1 780 3 view .LVU602
 780:../../emulator/emulator.c **** 		{
 3172               		.loc 1 780 5 is_stmt 0 view .LVU603
 3173 0e2c 8091 0000 		lds r24,_finished
 3174 0e30 8823      		tst r24
 3175 0e32 01F4      		brne .+2
 3176 0e34 00C0      		rjmp .L83
 780:../../emulator/emulator.c **** 		{
 3177               		.loc 1 780 5 view .LVU604
 3178 0e36 00C0      		rjmp .L16
 3179               	.LVL171:
 3180               	.L76:
 780:../../emulator/emulator.c **** 		{
 3181               		.loc 1 780 5 view .LVU605
 3182 0e38 D501      		movw r26,r10
 3183 0e3a 1896      		adiw r26,8
 3184 0e3c 4D90      		ld r4,X+
 3185 0e3e 5D90      		ld r5,X+
 3186 0e40 6D90      		ld r6,X+
 3187 0e42 7C90      		ld r7,X
 3188 0e44 1B97      		sbiw r26,8+3
 3189 0e46 AE2F      		mov r26,r30
 3190 0e48 B0E0      		ldi r27,0
 3191 0e4a 30E0      		ldi r19,0
 3192               	.LBB201:
 3193               	.LBB198:
 3194               	.LBB179:
 3195 0e4c F630      		cpi r31,lo8(6)
 3196 0e4e 01F0      		breq .+2
 3197 0e50 00C0      		rjmp .L85
 3198               	.LVL172:
 689:../../emulator/emulator.c **** 					if(emu->Registers[rs1] < emu->Registers[rs2])
 3199               		.loc 1 689 78 is_stmt 1 view .LVU606
 690:../../emulator/emulator.c **** 					{
 3200               		.loc 1 690 6 view .LVU607
 690:../../emulator/emulator.c **** 					{
 3201               		.loc 1 690 23 is_stmt 0 view .LVU608
 3202 0e52 FD01      		movw r30,r26
 3203 0e54 3396      		adiw r30,3
 3204 0e56 EE0F      		lsl r30
 3205 0e58 FF1F      		rol r31
 3206 0e5a EE0F      		lsl r30
 3207 0e5c FF1F      		rol r31
 3208 0e5e EA0D      		add r30,r10
 3209 0e60 FB1D      		adc r31,r11
 690:../../emulator/emulator.c **** 					{
 3210               		.loc 1 690 45 view .LVU609
 3211 0e62 D901      		movw r26,r18
 3212               	.LVL173:
 690:../../emulator/emulator.c **** 					{
 3213               		.loc 1 690 45 view .LVU610
 3214 0e64 1396      		adiw r26,3
 3215 0e66 AA0F      		lsl r26
 3216 0e68 BB1F      		rol r27
 3217 0e6a AA0F      		lsl r26
 3218 0e6c BB1F      		rol r27
 3219 0e6e AA0D      		add r26,r10
 3220 0e70 BB1D      		adc r27,r11
 690:../../emulator/emulator.c **** 					{
 3221               		.loc 1 690 8 view .LVU611
 3222 0e72 0081      		ld r16,Z
 3223 0e74 1181      		ldd r17,Z+1
 3224 0e76 2281      		ldd r18,Z+2
 3225 0e78 3381      		ldd r19,Z+3
 3226 0e7a 8D91      		ld r24,X+
 3227 0e7c 9D91      		ld r25,X+
 3228 0e7e 0D90      		ld __tmp_reg__,X+
 3229 0e80 BC91      		ld r27,X
 3230 0e82 A02D      		mov r26,__tmp_reg__
 3231 0e84 0817      		cp r16,r24
 3232 0e86 1907      		cpc r17,r25
 3233 0e88 2A07      		cpc r18,r26
 3234 0e8a 3B07      		cpc r19,r27
 3235 0e8c 00F0      		brlo .+2
 3236 0e8e 00C0      		rjmp .L31
 3237 0e90 00C0      		rjmp .L99
 3238               	.LVL174:
 3239               	.L77:
 659:../../emulator/emulator.c **** 					if(emu->Registers[rs1] != emu->Registers[rs2])
 3240               		.loc 1 659 77 is_stmt 1 view .LVU612
 660:../../emulator/emulator.c **** 					{
 3241               		.loc 1 660 6 view .LVU613
 3242               	.LBE179:
 3243               	.LBB180:
 443:../../emulator/emulator.c **** 			break;
 3244               		.loc 1 443 28 is_stmt 0 view .LVU614
 3245 0e92 D501      		movw r26,r10
 3246 0e94 1896      		adiw r26,8
 3247 0e96 4D90      		ld r4,X+
 3248 0e98 5D90      		ld r5,X+
 3249 0e9a 6D90      		ld r6,X+
 3250 0e9c 7C90      		ld r7,X
 3251 0e9e 1B97      		sbiw r26,8+3
 3252               	.LBE180:
 3253               	.LBB181:
 660:../../emulator/emulator.c **** 					{
 3254               		.loc 1 660 23 view .LVU615
 3255 0ea0 F0E0      		ldi r31,0
 3256               	.LVL175:
 660:../../emulator/emulator.c **** 					{
 3257               		.loc 1 660 23 view .LVU616
 3258 0ea2 3396      		adiw r30,3
 3259               	.LVL176:
 660:../../emulator/emulator.c **** 					{
 3260               		.loc 1 660 23 view .LVU617
 3261 0ea4 EE0F      		lsl r30
 3262 0ea6 FF1F      		rol r31
 3263 0ea8 EE0F      		lsl r30
 3264 0eaa FF1F      		rol r31
 3265 0eac EA0D      		add r30,r10
 3266 0eae FB1D      		adc r31,r11
 660:../../emulator/emulator.c **** 					{
 3267               		.loc 1 660 46 view .LVU618
 3268 0eb0 A22F      		mov r26,r18
 3269 0eb2 B0E0      		ldi r27,0
 3270 0eb4 1396      		adiw r26,3
 3271 0eb6 AA0F      		lsl r26
 3272 0eb8 BB1F      		rol r27
 3273 0eba AA0F      		lsl r26
 3274 0ebc BB1F      		rol r27
 3275 0ebe AA0D      		add r26,r10
 3276 0ec0 BB1D      		adc r27,r11
 660:../../emulator/emulator.c **** 					{
 3277               		.loc 1 660 8 view .LVU619
 3278 0ec2 0081      		ld r16,Z
 3279 0ec4 1181      		ldd r17,Z+1
 3280 0ec6 2281      		ldd r18,Z+2
 3281 0ec8 3381      		ldd r19,Z+3
 3282 0eca 8D91      		ld r24,X+
 3283 0ecc 9D91      		ld r25,X+
 3284 0ece 0D90      		ld __tmp_reg__,X+
 3285 0ed0 BC91      		ld r27,X
 3286 0ed2 A02D      		mov r26,__tmp_reg__
 3287 0ed4 0817      		cp r16,r24
 3288 0ed6 1907      		cpc r17,r25
 3289 0ed8 2A07      		cpc r18,r26
 3290 0eda 3B07      		cpc r19,r27
 3291 0edc 01F4      		brne .+2
 3292 0ede 00C0      		rjmp .L31
 3293 0ee0 00C0      		rjmp .L99
 3294               	.LVL177:
 3295               	.L78:
 669:../../emulator/emulator.c **** 					if((i32)emu->Registers[rs1] < (i32)emu->Registers[rs2])
 3296               		.loc 1 669 77 is_stmt 1 view .LVU620
 670:../../emulator/emulator.c **** 					{
 3297               		.loc 1 670 6 view .LVU621
 3298               	.LBE181:
 3299               	.LBB182:
 443:../../emulator/emulator.c **** 			break;
 3300               		.loc 1 443 28 is_stmt 0 view .LVU622
 3301 0ee2 D501      		movw r26,r10
 3302 0ee4 1896      		adiw r26,8
 3303 0ee6 4D90      		ld r4,X+
 3304 0ee8 5D90      		ld r5,X+
 3305 0eea 6D90      		ld r6,X+
 3306 0eec 7C90      		ld r7,X
 3307 0eee 1B97      		sbiw r26,8+3
 3308               	.LBE182:
 3309               	.LBB183:
 670:../../emulator/emulator.c **** 					{
 3310               		.loc 1 670 28 view .LVU623
 3311 0ef0 F0E0      		ldi r31,0
 3312               	.LVL178:
 670:../../emulator/emulator.c **** 					{
 3313               		.loc 1 670 28 view .LVU624
 3314 0ef2 3396      		adiw r30,3
 3315               	.LVL179:
 670:../../emulator/emulator.c **** 					{
 3316               		.loc 1 670 28 view .LVU625
 3317 0ef4 EE0F      		lsl r30
 3318 0ef6 FF1F      		rol r31
 3319 0ef8 EE0F      		lsl r30
 3320 0efa FF1F      		rol r31
 3321 0efc EA0D      		add r30,r10
 3322 0efe FB1D      		adc r31,r11
 670:../../emulator/emulator.c **** 					{
 3323               		.loc 1 670 55 view .LVU626
 3324 0f00 A22F      		mov r26,r18
 3325 0f02 B0E0      		ldi r27,0
 3326 0f04 1396      		adiw r26,3
 3327 0f06 AA0F      		lsl r26
 3328 0f08 BB1F      		rol r27
 3329 0f0a AA0F      		lsl r26
 3330 0f0c BB1F      		rol r27
 3331 0f0e AA0D      		add r26,r10
 3332 0f10 BB1D      		adc r27,r11
 670:../../emulator/emulator.c **** 					{
 3333               		.loc 1 670 8 view .LVU627
 3334 0f12 0081      		ld r16,Z
 3335 0f14 1181      		ldd r17,Z+1
 3336 0f16 2281      		ldd r18,Z+2
 3337 0f18 3381      		ldd r19,Z+3
 3338 0f1a 8D91      		ld r24,X+
 3339 0f1c 9D91      		ld r25,X+
 3340 0f1e 0D90      		ld __tmp_reg__,X+
 3341 0f20 BC91      		ld r27,X
 3342 0f22 A02D      		mov r26,__tmp_reg__
 3343 0f24 0817      		cp r16,r24
 3344 0f26 1907      		cpc r17,r25
 3345 0f28 2A07      		cpc r18,r26
 3346 0f2a 3B07      		cpc r19,r27
 3347 0f2c 04F0      		brlt .+2
 3348 0f2e 00C0      		rjmp .L31
 3349 0f30 00C0      		rjmp .L99
 3350               	.LVL180:
 3351               	.L75:
 679:../../emulator/emulator.c **** 					if((i32)emu->Registers[rs1] >= (i32)emu->Registers[rs2])
 3352               		.loc 1 679 77 is_stmt 1 view .LVU628
 680:../../emulator/emulator.c **** 					{
 3353               		.loc 1 680 6 view .LVU629
 3354               	.LBE183:
 3355               	.LBB184:
 443:../../emulator/emulator.c **** 			break;
 3356               		.loc 1 443 28 is_stmt 0 view .LVU630
 3357 0f32 D501      		movw r26,r10
 3358 0f34 1896      		adiw r26,8
 3359 0f36 4D90      		ld r4,X+
 3360 0f38 5D90      		ld r5,X+
 3361 0f3a 6D90      		ld r6,X+
 3362 0f3c 7C90      		ld r7,X
 3363 0f3e 1B97      		sbiw r26,8+3
 3364               	.LBE184:
 3365               	.LBB185:
 680:../../emulator/emulator.c **** 					{
 3366               		.loc 1 680 28 view .LVU631
 3367 0f40 F0E0      		ldi r31,0
 3368               	.LVL181:
 680:../../emulator/emulator.c **** 					{
 3369               		.loc 1 680 28 view .LVU632
 3370 0f42 3396      		adiw r30,3
 3371               	.LVL182:
 680:../../emulator/emulator.c **** 					{
 3372               		.loc 1 680 28 view .LVU633
 3373 0f44 EE0F      		lsl r30
 3374 0f46 FF1F      		rol r31
 3375 0f48 EE0F      		lsl r30
 3376 0f4a FF1F      		rol r31
 3377 0f4c EA0D      		add r30,r10
 3378 0f4e FB1D      		adc r31,r11
 680:../../emulator/emulator.c **** 					{
 3379               		.loc 1 680 56 view .LVU634
 3380 0f50 A22F      		mov r26,r18
 3381 0f52 B0E0      		ldi r27,0
 3382 0f54 1396      		adiw r26,3
 3383 0f56 AA0F      		lsl r26
 3384 0f58 BB1F      		rol r27
 3385 0f5a AA0F      		lsl r26
 3386 0f5c BB1F      		rol r27
 3387               	.LVL183:
 680:../../emulator/emulator.c **** 					{
 3388               		.loc 1 680 56 view .LVU635
 3389 0f5e AA0D      		add r26,r10
 3390 0f60 BB1D      		adc r27,r11
 680:../../emulator/emulator.c **** 					{
 3391               		.loc 1 680 8 view .LVU636
 3392 0f62 0081      		ld r16,Z
 3393 0f64 1181      		ldd r17,Z+1
 3394 0f66 2281      		ldd r18,Z+2
 3395 0f68 3381      		ldd r19,Z+3
 3396 0f6a 8D91      		ld r24,X+
 3397 0f6c 9D91      		ld r25,X+
 3398 0f6e 0D90      		ld __tmp_reg__,X+
 3399 0f70 BC91      		ld r27,X
 3400 0f72 A02D      		mov r26,__tmp_reg__
 3401 0f74 0817      		cp r16,r24
 3402 0f76 1907      		cpc r17,r25
 3403 0f78 2A07      		cpc r18,r26
 3404 0f7a 3B07      		cpc r19,r27
 3405 0f7c 04F4      		brge .+2
 3406 0f7e 00C0      		rjmp .L31
 3407 0f80 00C0      		rjmp .L99
 3408               	.LVL184:
 3409               	.L85:
 699:../../emulator/emulator.c **** 					if(emu->Registers[rs1] >= emu->Registers[rs2])
 3410               		.loc 1 699 78 is_stmt 1 view .LVU637
 700:../../emulator/emulator.c **** 					{
 3411               		.loc 1 700 6 view .LVU638
 700:../../emulator/emulator.c **** 					{
 3412               		.loc 1 700 23 is_stmt 0 view .LVU639
 3413 0f82 1396      		adiw r26,3
 3414               	.LVL185:
 700:../../emulator/emulator.c **** 					{
 3415               		.loc 1 700 23 view .LVU640
 3416 0f84 AA0F      		lsl r26
 3417 0f86 BB1F      		rol r27
 3418 0f88 AA0F      		lsl r26
 3419 0f8a BB1F      		rol r27
 3420               	.LVL186:
 700:../../emulator/emulator.c **** 					{
 3421               		.loc 1 700 23 view .LVU641
 3422 0f8c AA0D      		add r26,r10
 3423 0f8e BB1D      		adc r27,r11
 700:../../emulator/emulator.c **** 					{
 3424               		.loc 1 700 46 view .LVU642
 3425 0f90 F901      		movw r30,r18
 3426               	.LVL187:
 700:../../emulator/emulator.c **** 					{
 3427               		.loc 1 700 46 view .LVU643
 3428 0f92 3396      		adiw r30,3
 3429 0f94 EE0F      		lsl r30
 3430 0f96 FF1F      		rol r31
 3431 0f98 EE0F      		lsl r30
 3432 0f9a FF1F      		rol r31
 3433 0f9c EA0D      		add r30,r10
 3434 0f9e FB1D      		adc r31,r11
 700:../../emulator/emulator.c **** 					{
 3435               		.loc 1 700 8 view .LVU644
 3436 0fa0 0D91      		ld r16,X+
 3437 0fa2 1D91      		ld r17,X+
 3438 0fa4 2D91      		ld r18,X+
 3439 0fa6 3C91      		ld r19,X
 3440 0fa8 8081      		ld r24,Z
 3441 0faa 9181      		ldd r25,Z+1
 3442 0fac A281      		ldd r26,Z+2
 3443 0fae B381      		ldd r27,Z+3
 3444 0fb0 0817      		cp r16,r24
 3445 0fb2 1907      		cpc r17,r25
 3446 0fb4 2A07      		cpc r18,r26
 3447 0fb6 3B07      		cpc r19,r27
 3448 0fb8 00F4      		brsh .+2
 3449 0fba 00C0      		rjmp .L31
 3450 0fbc 00C0      		rjmp .L99
 3451               	.LVL188:
 3452               	.L21:
 700:../../emulator/emulator.c **** 					{
 3453               		.loc 1 700 8 view .LVU645
 3454               	.LBE185:
 3455               	.LBB186:
 716:../../emulator/emulator.c **** 			u32 imm;
 3456               		.loc 1 716 4 is_stmt 1 view .LVU646
 717:../../emulator/emulator.c **** 			u8 rd;
 3457               		.loc 1 717 4 view .LVU647
 718:../../emulator/emulator.c **** 
 3458               		.loc 1 718 4 view .LVU648
 720:../../emulator/emulator.c **** 
 3459               		.loc 1 720 4 view .LVU649
 722:../../emulator/emulator.c **** 					(instr & 0xFF000) |
 3460               		.loc 1 722 4 view .LVU650
 727:../../emulator/emulator.c **** 			EMU_LOG(PSTR("jal r%"PRIu8", pc%+"PRIi32), rd, offset);
 3461               		.loc 1 727 4 view .LVU651
 3462               	.LBB187:
 3463               	.LBI187:
  64:../../emulator/emulator.c **** {
 3464               		.loc 1 64 19 view .LVU652
 3465               	.LBB188:
  66:../../emulator/emulator.c **** 	return (value ^ m) - m;
 3466               		.loc 1 66 2 view .LVU653
  67:../../emulator/emulator.c **** }
 3467               		.loc 1 67 2 view .LVU654
  67:../../emulator/emulator.c **** }
 3468               		.loc 1 67 2 is_stmt 0 view .LVU655
 3469               	.LBE188:
 3470               	.LBE187:
 728:../../emulator/emulator.c **** 			emu->Registers[rd] = emu->PC + 4;
 3471               		.loc 1 728 58 is_stmt 1 view .LVU656
 729:../../emulator/emulator.c **** 			emu->PC += offset;
 3472               		.loc 1 729 4 view .LVU657
 729:../../emulator/emulator.c **** 			emu->PC += offset;
 3473               		.loc 1 729 28 is_stmt 0 view .LVU658
 3474 0fbe F501      		movw r30,r10
 3475 0fc0 0085      		ldd r16,Z+8
 3476 0fc2 1185      		ldd r17,Z+9
 3477 0fc4 2285      		ldd r18,Z+10
 3478 0fc6 3385      		ldd r19,Z+11
 3479               	.LVL189:
 720:../../emulator/emulator.c **** 
 3480               		.loc 1 720 16 view .LVU659
 3481 0fc8 AC01      		movw r20,r24
 3482 0fca BD01      		movw r22,r26
 3483 0fcc E7E0      		ldi r30,7
 3484               		1:
 3485 0fce 7695      		lsr r23
 3486 0fd0 6795      		ror r22
 3487 0fd2 5795      		ror r21
 3488 0fd4 4795      		ror r20
 3489 0fd6 EA95      		dec r30
 3490 0fd8 01F4      		brne 1b
 720:../../emulator/emulator.c **** 
 3491               		.loc 1 720 7 view .LVU660
 3492 0fda 4F71      		andi r20,lo8(31)
 729:../../emulator/emulator.c **** 			emu->PC += offset;
 3493               		.loc 1 729 18 view .LVU661
 3494 0fdc E42F      		mov r30,r20
 3495 0fde F0E0      		ldi r31,0
 729:../../emulator/emulator.c **** 			emu->PC += offset;
 3496               		.loc 1 729 23 view .LVU662
 3497 0fe0 3396      		adiw r30,3
 3498 0fe2 EE0F      		lsl r30
 3499 0fe4 FF1F      		rol r31
 3500 0fe6 EE0F      		lsl r30
 3501 0fe8 FF1F      		rol r31
 3502 0fea EA0D      		add r30,r10
 3503 0fec FB1D      		adc r31,r11
 729:../../emulator/emulator.c **** 			emu->PC += offset;
 3504               		.loc 1 729 33 view .LVU663
 3505 0fee B901      		movw r22,r18
 3506 0ff0 A801      		movw r20,r16
 3507 0ff2 4C5F      		subi r20,-4
 3508 0ff4 5F4F      		sbci r21,-1
 3509 0ff6 6F4F      		sbci r22,-1
 3510 0ff8 7F4F      		sbci r23,-1
 729:../../emulator/emulator.c **** 			emu->PC += offset;
 3511               		.loc 1 729 23 view .LVU664
 3512 0ffa 4083      		st Z,r20
 3513 0ffc 5183      		std Z+1,r21
 3514 0ffe 6283      		std Z+2,r22
 3515 1000 7383      		std Z+3,r23
 730:../../emulator/emulator.c **** 			return 0;
 3516               		.loc 1 730 4 is_stmt 1 view .LVU665
 722:../../emulator/emulator.c **** 					(instr & 0xFF000) |
 3517               		.loc 1 722 32 is_stmt 0 view .LVU666
 3518 1002 AC01      		movw r20,r24
 3519 1004 BD01      		movw r22,r26
 3520 1006 ECE0      		ldi r30,12
 3521               		1:
 3522 1008 7695      		lsr r23
 3523 100a 6795      		ror r22
 3524 100c 5795      		ror r21
 3525 100e 4795      		ror r20
 3526 1010 EA95      		dec r30
 3527 1012 01F4      		brne 1b
 3528               	.LVL190:
 722:../../emulator/emulator.c **** 					(instr & 0xFF000) |
 3529               		.loc 1 722 32 view .LVU667
 3530 1014 4427      		clr r20
 3531 1016 5527      		clr r21
 3532 1018 6870      		andi r22,8
 3533 101a 7727      		clr r23
 3534               	.LVL191:
 724:../../emulator/emulator.c **** 					((instr & 0x7FE00000) >> 20);
 3535               		.loc 1 724 26 view .LVU668
 3536 101c 2C01      		movw r4,r24
 3537 101e 3D01      		movw r6,r26
 3538 1020 F9E0      		ldi r31,9
 3539               		1:
 3540 1022 7694      		lsr r7
 3541 1024 6794      		ror r6
 3542 1026 5794      		ror r5
 3543 1028 4794      		ror r4
 3544 102a FA95      		dec r31
 3545 102c 01F4      		brne 1b
 3546               	.LVL192:
 724:../../emulator/emulator.c **** 					((instr & 0x7FE00000) >> 20);
 3547               		.loc 1 724 26 view .LVU669
 3548 102e 4424      		clr r4
 3549 1030 F8E0      		ldi r31,8
 3550 1032 5F22      		and r5,r31
 3551 1034 6624      		clr r6
 3552 1036 7724      		clr r7
 3553               	.LVL193:
 723:../../emulator/emulator.c **** 					((instr & 0x100000) >> 9) |
 3554               		.loc 1 723 24 view .LVU670
 3555 1038 4429      		or r20,r4
 3556 103a 5529      		or r21,r5
 3557 103c 6629      		or r22,r6
 3558 103e 7729      		or r23,r7
 3559               	.LVL194:
 723:../../emulator/emulator.c **** 					((instr & 0x100000) >> 9) |
 3560               		.loc 1 723 13 view .LVU671
 3561 1040 2C01      		movw r4,r24
 3562 1042 3D01      		movw r6,r26
 3563 1044 4424      		clr r4
 3564 1046 E0EF      		ldi r30,240
 3565 1048 5E22      		and r5,r30
 3566 104a EFE0      		ldi r30,15
 3567 104c 6E22      		and r6,r30
 3568 104e 7724      		clr r7
 3569               	.LVL195:
 723:../../emulator/emulator.c **** 					((instr & 0x100000) >> 9) |
 3570               		.loc 1 723 24 view .LVU672
 3571 1050 4429      		or r20,r4
 3572 1052 5529      		or r21,r5
 3573 1054 6629      		or r22,r6
 3574 1056 7729      		or r23,r7
 3575               	.LVL196:
 725:../../emulator/emulator.c **** 
 3576               		.loc 1 725 28 view .LVU673
 3577 1058 E4E1      		ldi r30,20
 3578               		1:
 3579 105a B695      		lsr r27
 3580 105c A795      		ror r26
 3581 105e 9795      		ror r25
 3582 1060 8795      		ror r24
 3583 1062 EA95      		dec r30
 3584 1064 01F4      		brne 1b
 3585               	.LVL197:
 725:../../emulator/emulator.c **** 
 3586               		.loc 1 725 28 view .LVU674
 3587 1066 8E7F      		andi r24,254
 3588 1068 9770      		andi r25,7
 3589 106a AA27      		clr r26
 3590 106c BB27      		clr r27
 3591               	.LVL198:
 722:../../emulator/emulator.c **** 					(instr & 0xFF000) |
 3592               		.loc 1 722 8 view .LVU675
 3593 106e 842B      		or r24,r20
 3594 1070 952B      		or r25,r21
 3595 1072 A62B      		or r26,r22
 3596 1074 B72B      		or r27,r23
 3597               	.LBB190:
 3598               	.LBB189:
  67:../../emulator/emulator.c **** }
 3599               		.loc 1 67 16 view .LVU676
 3600 1076 F8E0      		ldi r31,8
 3601 1078 AF27      		eor r26,r31
 3602               	.LBE189:
 3603               	.LBE190:
 730:../../emulator/emulator.c **** 			return 0;
 3604               		.loc 1 730 12 view .LVU677
 3605 107a 800F      		add r24,r16
 3606 107c 911F      		adc r25,r17
 3607 107e A21F      		adc r26,r18
 3608 1080 B31F      		adc r27,r19
 3609 1082 1897      		sbiw r26,8
 731:../../emulator/emulator.c **** 		}
 3610               		.loc 1 731 4 is_stmt 1 view .LVU678
 3611               	.LVL199:
 731:../../emulator/emulator.c **** 		}
 3612               		.loc 1 731 4 is_stmt 0 view .LVU679
 3613 1084 00C0      		rjmp .L82
 3614               	.LVL200:
 3615               	.L22:
 731:../../emulator/emulator.c **** 		}
 3616               		.loc 1 731 4 view .LVU680
 3617               	.LBE186:
 3618               	.LBB191:
 736:../../emulator/emulator.c **** 			i32 offset;
 3619               		.loc 1 736 4 is_stmt 1 view .LVU681
 737:../../emulator/emulator.c **** 			u32 imm;
 3620               		.loc 1 737 4 view .LVU682
 738:../../emulator/emulator.c **** 			rd = (instr >> 7) & 0x1F;
 3621               		.loc 1 738 4 view .LVU683
 739:../../emulator/emulator.c **** 			rs1 = (instr >> 15) & 0x1F;
 3622               		.loc 1 739 4 view .LVU684
 740:../../emulator/emulator.c **** 			imm = (instr >> 20) & ~1;
 3623               		.loc 1 740 4 view .LVU685
 741:../../emulator/emulator.c **** 
 3624               		.loc 1 741 4 view .LVU686
 743:../../emulator/emulator.c **** 
 3625               		.loc 1 743 4 view .LVU687
 3626               	.LBB192:
 3627               	.LBI192:
  64:../../emulator/emulator.c **** {
 3628               		.loc 1 64 19 view .LVU688
 3629               	.LBB193:
  66:../../emulator/emulator.c **** 	return (value ^ m) - m;
 3630               		.loc 1 66 2 view .LVU689
  67:../../emulator/emulator.c **** }
 3631               		.loc 1 67 2 view .LVU690
  67:../../emulator/emulator.c **** }
 3632               		.loc 1 67 2 is_stmt 0 view .LVU691
 3633               	.LBE193:
 3634               	.LBE192:
 746:../../emulator/emulator.c **** 
 3635               		.loc 1 746 21 is_stmt 1 view .LVU692
 748:../../emulator/emulator.c **** 			emu->PC = emu->Registers[rs1] + offset;
 3636               		.loc 1 748 4 view .LVU693
 739:../../emulator/emulator.c **** 			rs1 = (instr >> 15) & 0x1F;
 3637               		.loc 1 739 16 is_stmt 0 view .LVU694
 3638 1086 AC01      		movw r20,r24
 3639 1088 BD01      		movw r22,r26
 3640 108a 27E0      		ldi r18,7
 3641               		1:
 3642 108c 7695      		lsr r23
 3643 108e 6795      		ror r22
 3644 1090 5795      		ror r21
 3645 1092 4795      		ror r20
 3646 1094 2A95      		dec r18
 3647 1096 01F4      		brne 1b
 739:../../emulator/emulator.c **** 			rs1 = (instr >> 15) & 0x1F;
 3648               		.loc 1 739 7 view .LVU695
 3649 1098 4F71      		andi r20,lo8(31)
 748:../../emulator/emulator.c **** 			emu->PC = emu->Registers[rs1] + offset;
 3650               		.loc 1 748 18 view .LVU696
 3651 109a E42F      		mov r30,r20
 3652 109c F0E0      		ldi r31,0
 748:../../emulator/emulator.c **** 			emu->PC = emu->Registers[rs1] + offset;
 3653               		.loc 1 748 23 view .LVU697
 3654 109e 3396      		adiw r30,3
 3655 10a0 EE0F      		lsl r30
 3656 10a2 FF1F      		rol r31
 3657 10a4 EE0F      		lsl r30
 3658 10a6 FF1F      		rol r31
 3659 10a8 9F01      		movw r18,r30
 3660 10aa 2A0D      		add r18,r10
 3661 10ac 3B1D      		adc r19,r11
 748:../../emulator/emulator.c **** 			emu->PC = emu->Registers[rs1] + offset;
 3662               		.loc 1 748 33 view .LVU698
 3663 10ae F501      		movw r30,r10
 3664 10b0 4085      		ldd r20,Z+8
 3665 10b2 5185      		ldd r21,Z+9
 3666 10b4 6285      		ldd r22,Z+10
 3667 10b6 7385      		ldd r23,Z+11
 3668 10b8 4C5F      		subi r20,-4
 3669 10ba 5F4F      		sbci r21,-1
 3670 10bc 6F4F      		sbci r22,-1
 3671 10be 7F4F      		sbci r23,-1
 748:../../emulator/emulator.c **** 			emu->PC = emu->Registers[rs1] + offset;
 3672               		.loc 1 748 23 view .LVU699
 3673 10c0 F901      		movw r30,r18
 3674 10c2 4083      		st Z,r20
 3675 10c4 5183      		std Z+1,r21
 3676 10c6 6283      		std Z+2,r22
 3677 10c8 7383      		std Z+3,r23
 749:../../emulator/emulator.c **** 			return 0;
 3678               		.loc 1 749 4 is_stmt 1 view .LVU700
 741:../../emulator/emulator.c **** 
 3679               		.loc 1 741 17 is_stmt 0 view .LVU701
 3680 10ca AC01      		movw r20,r24
 3681 10cc BD01      		movw r22,r26
 3682 10ce E4E1      		ldi r30,20
 3683               		1:
 3684 10d0 7695      		lsr r23
 3685 10d2 6795      		ror r22
 3686 10d4 5795      		ror r21
 3687 10d6 4795      		ror r20
 3688 10d8 EA95      		dec r30
 3689 10da 01F4      		brne 1b
 741:../../emulator/emulator.c **** 
 3690               		.loc 1 741 8 view .LVU702
 3691 10dc 4E7F      		andi r20,254
 3692               	.LVL201:
 3693               	.LBB195:
 3694               	.LBB194:
  67:../../emulator/emulator.c **** }
 3695               		.loc 1 67 16 view .LVU703
 3696 10de F8E0      		ldi r31,8
 3697 10e0 5F27      		eor r21,r31
 3698               	.LVL202:
  67:../../emulator/emulator.c **** }
 3699               		.loc 1 67 21 view .LVU704
 3700 10e2 5850      		subi r21,8
 3701 10e4 6109      		sbc r22,__zero_reg__
 3702 10e6 7109      		sbc r23,__zero_reg__
 3703               	.LVL203:
  67:../../emulator/emulator.c **** }
 3704               		.loc 1 67 21 view .LVU705
 3705               	.LBE194:
 3706               	.LBE195:
 740:../../emulator/emulator.c **** 			imm = (instr >> 20) & ~1;
 3707               		.loc 1 740 17 view .LVU706
 3708 10e8 FFE0      		ldi r31,15
 3709               		1:
 3710 10ea B695      		lsr r27
 3711 10ec A795      		ror r26
 3712 10ee 9795      		ror r25
 3713 10f0 8795      		ror r24
 3714 10f2 FA95      		dec r31
 3715 10f4 01F4      		brne 1b
 3716               	.LVL204:
 740:../../emulator/emulator.c **** 			imm = (instr >> 20) & ~1;
 3717               		.loc 1 740 8 view .LVU707
 3718 10f6 8F71      		andi r24,lo8(31)
 749:../../emulator/emulator.c **** 			return 0;
 3719               		.loc 1 749 28 view .LVU708
 3720 10f8 E82F      		mov r30,r24
 3721 10fa F0E0      		ldi r31,0
 3722 10fc 3396      		adiw r30,3
 3723 10fe EE0F      		lsl r30
 3724 1100 FF1F      		rol r31
 3725 1102 EE0F      		lsl r30
 3726 1104 FF1F      		rol r31
 3727 1106 EA0D      		add r30,r10
 3728 1108 FB1D      		adc r31,r11
 749:../../emulator/emulator.c **** 			return 0;
 3729               		.loc 1 749 34 view .LVU709
 3730 110a 8081      		ld r24,Z
 3731 110c 9181      		ldd r25,Z+1
 3732 110e A281      		ldd r26,Z+2
 3733 1110 B381      		ldd r27,Z+3
 3734 1112 840F      		add r24,r20
 3735 1114 951F      		adc r25,r21
 3736 1116 A61F      		adc r26,r22
 3737 1118 B71F      		adc r27,r23
 750:../../emulator/emulator.c **** 		}
 3738               		.loc 1 750 4 is_stmt 1 view .LVU710
 3739               	.LVL205:
 750:../../emulator/emulator.c **** 		}
 3740               		.loc 1 750 4 is_stmt 0 view .LVU711
 3741 111a 00C0      		rjmp .L82
 3742               	.LBE191:
 3743               	.LBE198:
 3744               	.LBE201:
 3745               		.cfi_endproc
 3746               	.LFE31:
 3748               	.global	kernel_init
 3750               	kernel_init:
 3751               	.LFB9:
  76:../../emulator/emulator.c **** 	_memory_size = memory_size();
 3752               		.loc 1 76 1 is_stmt 1 view -0
 3753               		.cfi_startproc
 3754 111c CF92      		push r12
 3755               		.cfi_def_cfa_offset 3
 3756               		.cfi_offset 12, -2
 3757 111e DF92      		push r13
 3758               		.cfi_def_cfa_offset 4
 3759               		.cfi_offset 13, -3
 3760 1120 EF92      		push r14
 3761               		.cfi_def_cfa_offset 5
 3762               		.cfi_offset 14, -4
 3763 1122 FF92      		push r15
 3764               		.cfi_def_cfa_offset 6
 3765               		.cfi_offset 15, -5
 3766 1124 0F93      		push r16
 3767               		.cfi_def_cfa_offset 7
 3768               		.cfi_offset 16, -6
 3769               	/* prologue: function */
 3770               	/* frame size = 0 */
 3771               	/* stack size = 5 */
 3772               	.L__stack_usage = 5
  77:../../emulator/emulator.c **** 	emulator_call(_emu, 0, NULL, 0, _memory_size);
 3773               		.loc 1 77 2 view .LVU713
  77:../../emulator/emulator.c **** 	emulator_call(_emu, 0, NULL, 0, _memory_size);
 3774               		.loc 1 77 17 is_stmt 0 view .LVU714
 3775 1126 0E94 0000 		call memory_size
 3776               	.LVL206:
 3777 112a 6B01      		movw r12,r22
 3778 112c 7C01      		movw r14,r24
  77:../../emulator/emulator.c **** 	emulator_call(_emu, 0, NULL, 0, _memory_size);
 3779               		.loc 1 77 15 view .LVU715
 3780 112e 6093 0000 		sts _memory_size,r22
 3781 1132 D092 0000 		sts _memory_size+1,r13
 3782 1136 8093 0000 		sts _memory_size+2,r24
 3783 113a F092 0000 		sts _memory_size+3,r15
  78:../../emulator/emulator.c **** }
 3784               		.loc 1 78 2 is_stmt 1 view .LVU716
 3785 113e 00E0      		ldi r16,0
 3786 1140 20E0      		ldi r18,0
 3787 1142 30E0      		ldi r19,0
 3788 1144 40E0      		ldi r20,0
 3789 1146 50E0      		ldi r21,0
 3790 1148 BA01      		movw r22,r20
 3791 114a 80E0      		ldi r24,lo8(_cur)
 3792 114c 90E0      		ldi r25,hi8(_cur)
 3793 114e 0E94 0000 		call emulator_call
 3794               	.LVL207:
 3795               	/* epilogue start */
  79:../../emulator/emulator.c **** 
 3796               		.loc 1 79 1 is_stmt 0 view .LVU717
 3797 1152 0F91      		pop r16
 3798 1154 FF90      		pop r15
 3799 1156 EF90      		pop r14
 3800 1158 DF90      		pop r13
 3801 115a CF90      		pop r12
 3802 115c 0895      		ret
 3803               		.cfi_endproc
 3804               	.LFE9:
 3806               	.global	os_update
 3808               	os_update:
 3809               	.LFB10:
  82:../../emulator/emulator.c **** 	u32 addr = _emu->Events[EVENT_LOOP];
 3810               		.loc 1 82 1 is_stmt 1 view -0
 3811               		.cfi_startproc
 3812 115e CF92      		push r12
 3813               		.cfi_def_cfa_offset 3
 3814               		.cfi_offset 12, -2
 3815 1160 DF92      		push r13
 3816               		.cfi_def_cfa_offset 4
 3817               		.cfi_offset 13, -3
 3818 1162 EF92      		push r14
 3819               		.cfi_def_cfa_offset 5
 3820               		.cfi_offset 14, -4
 3821 1164 FF92      		push r15
 3822               		.cfi_def_cfa_offset 6
 3823               		.cfi_offset 15, -5
 3824 1166 0F93      		push r16
 3825               		.cfi_def_cfa_offset 7
 3826               		.cfi_offset 16, -6
 3827               	/* prologue: function */
 3828               	/* frame size = 0 */
 3829               	/* stack size = 5 */
 3830               	.L__stack_usage = 5
  83:../../emulator/emulator.c **** 	if(addr)
 3831               		.loc 1 83 2 view .LVU719
  83:../../emulator/emulator.c **** 	if(addr)
 3832               		.loc 1 83 6 is_stmt 0 view .LVU720
 3833 1168 4091 0000 		lds r20,_cur
 3834 116c 5091 0000 		lds r21,_cur+1
 3835 1170 6091 0000 		lds r22,_cur+2
 3836 1174 7091 0000 		lds r23,_cur+3
 3837               	.LVL208:
  84:../../emulator/emulator.c **** 	{
 3838               		.loc 1 84 2 is_stmt 1 view .LVU721
  84:../../emulator/emulator.c **** 	{
 3839               		.loc 1 84 4 is_stmt 0 view .LVU722
 3840 1178 4115      		cp r20,__zero_reg__
 3841 117a 5105      		cpc r21,__zero_reg__
 3842 117c 6105      		cpc r22,__zero_reg__
 3843 117e 7105      		cpc r23,__zero_reg__
 3844 1180 01F0      		breq .L105
  86:../../emulator/emulator.c **** 	}
 3845               		.loc 1 86 3 is_stmt 1 view .LVU723
 3846 1182 C090 0000 		lds r12,_memory_size
 3847 1186 D090 0000 		lds r13,_memory_size+1
 3848 118a E090 0000 		lds r14,_memory_size+2
 3849 118e F090 0000 		lds r15,_memory_size+3
 3850 1192 00E0      		ldi r16,0
 3851 1194 20E0      		ldi r18,0
 3852 1196 30E0      		ldi r19,0
 3853 1198 80E0      		ldi r24,lo8(_cur)
 3854 119a 90E0      		ldi r25,hi8(_cur)
 3855 119c 0E94 0000 		call emulator_call
 3856               	.LVL209:
 3857               	.L105:
 3858               	/* epilogue start */
  88:../../emulator/emulator.c **** 
 3859               		.loc 1 88 1 is_stmt 0 view .LVU724
 3860 11a0 0F91      		pop r16
 3861 11a2 FF90      		pop r15
 3862 11a4 EF90      		pop r14
 3863 11a6 DF90      		pop r13
 3864 11a8 CF90      		pop r12
 3865 11aa 0895      		ret
 3866               		.cfi_endproc
 3867               	.LFE10:
 3869               	.global	keyboard_event
 3871               	keyboard_event:
 3872               	.LVL210:
 3873               	.LFB11:
  91:../../emulator/emulator.c **** 	u32 addr = _emu->Events[EVENT_KEY];
 3874               		.loc 1 91 1 is_stmt 1 view -0
 3875               		.cfi_startproc
  91:../../emulator/emulator.c **** 	u32 addr = _emu->Events[EVENT_KEY];
 3876               		.loc 1 91 1 is_stmt 0 view .LVU726
 3877 11ac 8F92      		push r8
 3878               		.cfi_def_cfa_offset 3
 3879               		.cfi_offset 8, -2
 3880 11ae 9F92      		push r9
 3881               		.cfi_def_cfa_offset 4
 3882               		.cfi_offset 9, -3
 3883 11b0 AF92      		push r10
 3884               		.cfi_def_cfa_offset 5
 3885               		.cfi_offset 10, -4
 3886 11b2 BF92      		push r11
 3887               		.cfi_def_cfa_offset 6
 3888               		.cfi_offset 11, -5
 3889 11b4 CF92      		push r12
 3890               		.cfi_def_cfa_offset 7
 3891               		.cfi_offset 12, -6
 3892 11b6 DF92      		push r13
 3893               		.cfi_def_cfa_offset 8
 3894               		.cfi_offset 13, -7
 3895 11b8 EF92      		push r14
 3896               		.cfi_def_cfa_offset 9
 3897               		.cfi_offset 14, -8
 3898 11ba FF92      		push r15
 3899               		.cfi_def_cfa_offset 10
 3900               		.cfi_offset 15, -9
 3901 11bc 0F93      		push r16
 3902               		.cfi_def_cfa_offset 11
 3903               		.cfi_offset 16, -10
 3904 11be 1F93      		push r17
 3905               		.cfi_def_cfa_offset 12
 3906               		.cfi_offset 17, -11
 3907 11c0 CF93      		push r28
 3908               		.cfi_def_cfa_offset 13
 3909               		.cfi_offset 28, -12
 3910 11c2 DF93      		push r29
 3911               		.cfi_def_cfa_offset 14
 3912               		.cfi_offset 29, -13
 3913 11c4 CDB7      		in r28,__SP_L__
 3914 11c6 DEB7      		in r29,__SP_H__
 3915               		.cfi_def_cfa_register 28
 3916 11c8 2C97      		sbiw r28,12
 3917               		.cfi_def_cfa_offset 26
 3918 11ca 0FB6      		in __tmp_reg__,__SREG__
 3919 11cc F894      		cli
 3920 11ce DEBF      		out __SP_H__,r29
 3921 11d0 0FBE      		out __SREG__,__tmp_reg__
 3922 11d2 CDBF      		out __SP_L__,r28
 3923               	/* prologue: function */
 3924               	/* frame size = 12 */
 3925               	/* stack size = 24 */
 3926               	.L__stack_usage = 24
 3927 11d4 4B01      		movw r8,r22
 3928 11d6 5C01      		movw r10,r24
 3929 11d8 CA01      		movw r24,r20
 3930 11da 102F      		mov r17,r16
  92:../../emulator/emulator.c **** 	if(addr)
 3931               		.loc 1 92 2 is_stmt 1 view .LVU727
  92:../../emulator/emulator.c **** 	if(addr)
 3932               		.loc 1 92 6 is_stmt 0 view .LVU728
 3933 11dc 4091 0000 		lds r20,_cur+4
 3934 11e0 5091 0000 		lds r21,_cur+4+1
 3935 11e4 6091 0000 		lds r22,_cur+4+2
 3936 11e8 7091 0000 		lds r23,_cur+4+3
 3937               	.LVL211:
  93:../../emulator/emulator.c **** 	{
 3938               		.loc 1 93 2 is_stmt 1 view .LVU729
  93:../../emulator/emulator.c **** 	{
 3939               		.loc 1 93 4 is_stmt 0 view .LVU730
 3940 11ec 4115      		cp r20,__zero_reg__
 3941 11ee 5105      		cpc r21,__zero_reg__
 3942 11f0 6105      		cpc r22,__zero_reg__
 3943 11f2 7105      		cpc r23,__zero_reg__
 3944 11f4 01F0      		breq .L111
 3945               	.LBB202:
  95:../../emulator/emulator.c **** 		emulator_call(_emu, addr, args, ARRLEN(args), _memory_size);
 3946               		.loc 1 95 3 is_stmt 1 view .LVU731
  95:../../emulator/emulator.c **** 		emulator_call(_emu, addr, args, ARRLEN(args), _memory_size);
 3947               		.loc 1 95 7 is_stmt 0 view .LVU732
 3948 11f6 8982      		std Y+1,r8
 3949 11f8 9A82      		std Y+2,r9
 3950 11fa AB82      		std Y+3,r10
 3951 11fc BC82      		std Y+4,r11
 3952 11fe 2D83      		std Y+5,r18
 3953 1200 3E83      		std Y+6,r19
 3954 1202 8F83      		std Y+7,r24
 3955 1204 9887      		std Y+8,r25
 3956 1206 802F      		mov r24,r16
 3957 1208 90E0      		ldi r25,0
 3958 120a A0E0      		ldi r26,0
 3959 120c B0E0      		ldi r27,0
 3960 120e 8987      		std Y+9,r24
 3961 1210 9A87      		std Y+10,r25
 3962 1212 AB87      		std Y+11,r26
 3963 1214 BC87      		std Y+12,r27
  96:../../emulator/emulator.c **** 	}
 3964               		.loc 1 96 3 is_stmt 1 view .LVU733
 3965 1216 C090 0000 		lds r12,_memory_size
 3966 121a D090 0000 		lds r13,_memory_size+1
 3967 121e E090 0000 		lds r14,_memory_size+2
 3968 1222 F090 0000 		lds r15,_memory_size+3
 3969 1226 03E0      		ldi r16,lo8(3)
 3970               	.LVL212:
  96:../../emulator/emulator.c **** 	}
 3971               		.loc 1 96 3 is_stmt 0 view .LVU734
 3972 1228 9E01      		movw r18,r28
 3973               	.LVL213:
  96:../../emulator/emulator.c **** 	}
 3974               		.loc 1 96 3 view .LVU735
 3975 122a 2F5F      		subi r18,-1
 3976 122c 3F4F      		sbci r19,-1
 3977 122e 80E0      		ldi r24,lo8(_cur)
 3978 1230 90E0      		ldi r25,hi8(_cur)
 3979 1232 0E94 0000 		call emulator_call
 3980               	.LVL214:
 3981               	.L111:
  96:../../emulator/emulator.c **** 	}
 3982               		.loc 1 96 3 view .LVU736
 3983               	.LBE202:
  99:../../emulator/emulator.c **** 	if(key >= KEY_COUNT)
 3984               		.loc 1 99 2 is_stmt 1 view .LVU737
 3985               	.LBB203:
 3986               	.LBI203:
 3987               		.file 2 "../../keyboard/keyboard-shared.h"
   1:../../keyboard/keyboard-shared.h **** /**
   2:../../keyboard/keyboard-shared.h ****  * @file    keyboard.c
   3:../../keyboard/keyboard-shared.h ****  * @author  Tim Gabrikowski, Anton Tchekov
   4:../../keyboard/keyboard-shared.h ****  * @version 0.1
   5:../../keyboard/keyboard-shared.h ****  * @date    14.05.2023
   6:../../keyboard/keyboard-shared.h ****  * @brief   Keyboard types and utilities
   7:../../keyboard/keyboard-shared.h ****  */
   8:../../keyboard/keyboard-shared.h **** 
   9:../../keyboard/keyboard-shared.h **** #ifndef __KEYBOARD_SHARED_H__
  10:../../keyboard/keyboard-shared.h **** #define __KEYBOARD_SHARED_H__
  11:../../keyboard/keyboard-shared.h **** 
  12:../../keyboard/keyboard-shared.h **** #include <types.h>
  13:../../keyboard/keyboard-shared.h **** #include <keys.h>
  14:../../keyboard/keyboard-shared.h **** 
  15:../../keyboard/keyboard-shared.h **** /** Key State: Released (Key Up), Pressed (Key Down), Repeat (Held Down) */
  16:../../keyboard/keyboard-shared.h **** typedef enum
  17:../../keyboard/keyboard-shared.h **** {
  18:../../keyboard/keyboard-shared.h **** 	KEYSTATE_RELEASED,
  19:../../keyboard/keyboard-shared.h **** 	KEYSTATE_PRESSED,
  20:../../keyboard/keyboard-shared.h **** 	KEYSTATE_REPEAT
  21:../../keyboard/keyboard-shared.h **** } KeyState;
  22:../../keyboard/keyboard-shared.h **** 
  23:../../keyboard/keyboard-shared.h **** /** Keycode */
  24:../../keyboard/keyboard-shared.h **** typedef u32 Key;
  25:../../keyboard/keyboard-shared.h **** 
  26:../../keyboard/keyboard-shared.h **** /**
  27:../../keyboard/keyboard-shared.h ****  * @brief Remove modifiers from key
  28:../../keyboard/keyboard-shared.h ****  *
  29:../../keyboard/keyboard-shared.h ****  * @param key Scancode
  30:../../keyboard/keyboard-shared.h ****  * @return Scancode with modifiers removed
  31:../../keyboard/keyboard-shared.h ****  */
  32:../../keyboard/keyboard-shared.h **** static inline Key key_mod_remove(Key key)
 3988               		.loc 2 32 19 view .LVU738
 3989               	.LBB204:
  33:../../keyboard/keyboard-shared.h **** {
  34:../../keyboard/keyboard-shared.h **** 	return key & 0xFFFF;
 3990               		.loc 2 34 2 view .LVU739
 3991               		.loc 2 34 13 is_stmt 0 view .LVU740
 3992 1236 AA24      		clr r10
 3993 1238 BB24      		clr r11
 3994               	.LVL215:
 3995               		.loc 2 34 13 view .LVU741
 3996               	.LBE204:
 3997               	.LBE203:
 100:../../emulator/emulator.c **** 	{
 3998               		.loc 1 100 2 is_stmt 1 view .LVU742
 100:../../emulator/emulator.c **** 	{
 3999               		.loc 1 100 4 is_stmt 0 view .LVU743
 4000 123a 8DE1      		ldi r24,29
 4001 123c 8816      		cp r8,r24
 4002 123e 81E0      		ldi r24,1
 4003 1240 9806      		cpc r9,r24
 4004 1242 A104      		cpc r10,__zero_reg__
 4005 1244 B104      		cpc r11,__zero_reg__
 4006 1246 00F4      		brsh .L110
 105:../../emulator/emulator.c **** }
 4007               		.loc 1 105 2 is_stmt 1 view .LVU744
 105:../../emulator/emulator.c **** }
 4008               		.loc 1 105 13 is_stmt 0 view .LVU745
 4009 1248 F401      		movw r30,r8
 4010 124a E050      		subi r30,lo8(-(_keys))
 4011 124c F040      		sbci r31,hi8(-(_keys))
 4012 124e 81E0      		ldi r24,lo8(1)
 4013 1250 1111      		cpse r17,__zero_reg__
 4014 1252 00C0      		rjmp .L113
 4015 1254 80E0      		ldi r24,0
 4016               	.L113:
 4017 1256 8083      		st Z,r24
 4018               	.L110:
 4019               	/* epilogue start */
 106:../../emulator/emulator.c **** 
 4020               		.loc 1 106 1 view .LVU746
 4021 1258 2C96      		adiw r28,12
 4022 125a 0FB6      		in __tmp_reg__,__SREG__
 4023 125c F894      		cli
 4024 125e DEBF      		out __SP_H__,r29
 4025 1260 0FBE      		out __SREG__,__tmp_reg__
 4026 1262 CDBF      		out __SP_L__,r28
 4027 1264 DF91      		pop r29
 4028 1266 CF91      		pop r28
 4029 1268 1F91      		pop r17
 4030               	.LVL216:
 106:../../emulator/emulator.c **** 
 4031               		.loc 1 106 1 view .LVU747
 4032 126a 0F91      		pop r16
 4033 126c FF90      		pop r15
 4034 126e EF90      		pop r14
 4035 1270 DF90      		pop r13
 4036 1272 CF90      		pop r12
 4037 1274 BF90      		pop r11
 4038 1276 AF90      		pop r10
 4039 1278 9F90      		pop r9
 4040 127a 8F90      		pop r8
 4041               	.LVL217:
 106:../../emulator/emulator.c **** 
 4042               		.loc 1 106 1 view .LVU748
 4043 127c 0895      		ret
 4044               		.cfi_endproc
 4045               	.LFE11:
 4047               		.section	.rodata
 4050               	syscalls:
 4051 0000 0000      		.word	gs(syscall_exit)
 4052 0002 0000      		.word	gs(syscall_finish)
 4053 0004 0000      		.word	gs(syscall_event_register)
 4054 0006 0000      		.word	gs(syscall_gfx_rect)
 4055 0008 0000      		.word	gs(syscall_gfx_image_rgba)
 4056 000a 0000      		.word	gs(syscall_gfx_image_rgb)
 4057 000c 0000      		.word	gs(syscall_gfx_image_rgb565)
 4058 000e 0000      		.word	gs(syscall_gfx_image_grayscale)
 4059 0010 0000      		.word	gs(syscall_gfx_image_1bit)
 4060 0012 0000      		.word	gs(syscall_rand)
 4061 0014 0000      		.word	gs(syscall_keyboard_is_key_pressed)
 4062 0016 0000      		.word	gs(syscall_serial_write)
 4063 0018 0000      		.word	gs(syscall_datetime_now)
 4064 001a 0000      		.word	gs(syscall_millis)
 4065               		.local	_memory_size
 4066               		.comm	_memory_size,4,1
 4067               		.local	_keys
 4068               		.comm	_keys,285,1
 4069               		.local	_cur
 4070               		.comm	_cur,140,1
 4071               		.local	_finished
 4072               		.comm	_finished,1,1
 4073               		.text
 4074               	.Letext0:
 4075               		.file 3 "/usr/lib/gcc/avr/12.2.0/include/stddef.h"
 4076               		.file 4 "/usr/lib/gcc/avr/12.2.0/include/stdint-gcc.h"
 4077               		.file 5 "../../types/types.h"
 4078               		.file 6 "../../keyboard/keys.h"
 4079               		.file 7 "../../emulator/emulator.h"
 4080               		.file 8 "../../platform/platform.h"
 4081               		.file 9 "/usr/avr/include/string.h"
DEFINED SYMBOLS
                            *ABS*:00000000 emulator.c
     /tmp/ccr19bkt.s:2      *ABS*:0000003e __SP_H__
     /tmp/ccr19bkt.s:3      *ABS*:0000003d __SP_L__
     /tmp/ccr19bkt.s:4      *ABS*:0000003f __SREG__
     /tmp/ccr19bkt.s:5      *ABS*:00000000 __tmp_reg__
     /tmp/ccr19bkt.s:6      *ABS*:00000001 __zero_reg__
     /tmp/ccr19bkt.s:12     .text:00000000 syscall_exit
     /tmp/ccr19bkt.s:16     .text:00000000 .Loc.0
     /tmp/ccr19bkt.s:17     .text:00000000 L0
     /tmp/ccr19bkt.s:22     .text:00000000 .Loc.1
     /tmp/ccr19bkt.s:23     .text:00000000 .Loc.2
     /tmp/ccr19bkt.s:24     .text:00000000 .Loc.3
     /tmp/ccr19bkt.s:30     .text:00000008 L0
     /tmp/ccr19bkt.s:34     .text:00000008 syscall_finish
     /tmp/ccr19bkt.s:37     .text:00000008 .Loc.4
     /tmp/ccr19bkt.s:38     .text:00000008 L0
     /tmp/ccr19bkt.s:43     .text:00000008 .Loc.5
     /tmp/ccr19bkt.s:44     .text:00000008 .Loc.6
     /tmp/ccr19bkt.s:47     .text:0000000a .Loc.7
     /tmp/ccr19bkt.s:4070   .bss:000001ad _finished
     /tmp/ccr19bkt.s:49     .text:0000000e .Loc.8
     /tmp/ccr19bkt.s:50     .text:0000000e .Loc.9
     /tmp/ccr19bkt.s:51     .text:0000000e .Loc.10
     /tmp/ccr19bkt.s:57     .text:00000016 L0
     /tmp/ccr19bkt.s:61     .text:00000016 syscall_event_register
     /tmp/ccr19bkt.s:64     .text:00000016 .Loc.11
     /tmp/ccr19bkt.s:65     .text:00000016 L0
     /tmp/ccr19bkt.s:70     .text:00000016 .Loc.12
     /tmp/ccr19bkt.s:72     .text:00000018 .Loc.13
     /tmp/ccr19bkt.s:73     .text:00000018 .Loc.14
     /tmp/ccr19bkt.s:79     .text:00000020 .Loc.15
     /tmp/ccr19bkt.s:80     .text:00000020 .Loc.16
     /tmp/ccr19bkt.s:81     .text:00000020 .Loc.17
     /tmp/ccr19bkt.s:87     .text:0000002a .Loc.18
     /tmp/ccr19bkt.s:92     .text:00000032 .Loc.19
     /tmp/ccr19bkt.s:93     .text:00000032 .Loc.20
     /tmp/ccr19bkt.s:94     .text:00000032 .Loc.21
     /tmp/ccr19bkt.s:100    .text:0000003a .Loc.22
     /tmp/ccr19bkt.s:103    .text:0000003c .Loc.23
     /tmp/ccr19bkt.s:4068   .bss:00000121 _cur
     /tmp/ccr19bkt.s:112    .text:00000048 .Loc.24
     /tmp/ccr19bkt.s:113    .text:00000048 .Loc.25
     /tmp/ccr19bkt.s:119    .text:00000050 L0
     /tmp/ccr19bkt.s:123    .text:00000050 syscall_keyboard_is_key_pressed
     /tmp/ccr19bkt.s:126    .text:00000050 .Loc.26
     /tmp/ccr19bkt.s:127    .text:00000050 L0
     /tmp/ccr19bkt.s:128    .text:00000050 .Loc.27
     /tmp/ccr19bkt.s:135    .text:00000056 L0
     /tmp/ccr19bkt.s:136    .text:00000058 L0
     /tmp/ccr19bkt.s:145    .text:0000005c .Loc.28
     /tmp/ccr19bkt.s:146    .text:0000005c .Loc.29
     /tmp/ccr19bkt.s:153    .text:00000066 .Loc.30
     /tmp/ccr19bkt.s:154    .text:00000066 .Loc.31
     /tmp/ccr19bkt.s:161    .text:00000072 .Loc.32
     /tmp/ccr19bkt.s:162    .text:00000072 .Loc.33
     /tmp/ccr19bkt.s:4066   .bss:00000004 _keys
     /tmp/ccr19bkt.s:166    .text:00000076 .Loc.34
     /tmp/ccr19bkt.s:169    .text:00000078 .Loc.35
     /tmp/ccr19bkt.s:180    .text:0000008a .Loc.36
     /tmp/ccr19bkt.s:195    .text:000000a0 .Loc.37
     /tmp/ccr19bkt.s:201    .text:000000aa L0
     /tmp/ccr19bkt.s:205    .text:000000aa syscall_millis
     /tmp/ccr19bkt.s:208    .text:000000aa .Loc.38
     /tmp/ccr19bkt.s:209    .text:000000aa L0
     /tmp/ccr19bkt.s:214    .text:000000aa .Loc.39
     /tmp/ccr19bkt.s:215    .text:000000aa .Loc.40
     /tmp/ccr19bkt.s:218    .text:000000ae .Loc.41
     /tmp/ccr19bkt.s:219    .text:000000ae L0
     /tmp/ccr19bkt.s:223    .text:000000ae syscall_datetime_now
     /tmp/ccr19bkt.s:226    .text:000000ae .Loc.42
     /tmp/ccr19bkt.s:227    .text:000000ae L0
     /tmp/ccr19bkt.s:228    .text:000000ae .Loc.43
     /tmp/ccr19bkt.s:256    .text:000000c8 .Loc.44
     /tmp/ccr19bkt.s:257    .text:000000c8 .Loc.45
     /tmp/ccr19bkt.s:260    .text:000000ca .Loc.46
     /tmp/ccr19bkt.s:264    .text:000000d0 .Loc.47
     /tmp/ccr19bkt.s:280    .text:000000ec .Loc.48
     /tmp/ccr19bkt.s:288    .text:000000fa .Loc.49
     /tmp/ccr19bkt.s:289    .text:000000fa .Loc.50
     /tmp/ccr19bkt.s:305    .text:00000116 L0
     /tmp/ccr19bkt.s:309    .text:00000116 syscall_serial_write
     /tmp/ccr19bkt.s:312    .text:00000116 .Loc.51
     /tmp/ccr19bkt.s:313    .text:00000116 L0
     /tmp/ccr19bkt.s:314    .text:00000116 .Loc.52
     /tmp/ccr19bkt.s:367    .text:00000142 .Loc.53
     /tmp/ccr19bkt.s:368    .text:00000142 .Loc.54
     /tmp/ccr19bkt.s:369    .text:00000142 .Loc.55
     /tmp/ccr19bkt.s:375    .text:0000014a .Loc.56
     /tmp/ccr19bkt.s:385    .text:0000015a .Loc.57
     /tmp/ccr19bkt.s:386    .text:0000015a .Loc.58
     /tmp/ccr19bkt.s:392    .text:00000162 .Loc.59
     /tmp/ccr19bkt.s:393    .text:00000162 .Loc.60
     /tmp/ccr19bkt.s:395    .text:00000162 .Loc.61
     /tmp/ccr19bkt.s:401    .text:0000016c .Loc.62
     /tmp/ccr19bkt.s:402    .text:0000016c .Loc.63
     /tmp/ccr19bkt.s:427    .text:00000198 .Loc.64
     /tmp/ccr19bkt.s:431    .text:0000019a .Loc.65
     /tmp/ccr19bkt.s:432    .text:0000019a .Loc.66
     /tmp/ccr19bkt.s:441    .text:000001aa .Loc.67
     /tmp/ccr19bkt.s:449    .text:000001b4 .Loc.68
     /tmp/ccr19bkt.s:465    .text:000001d2 .Loc.69
     /tmp/ccr19bkt.s:472    .text:000001de .Loc.70
     /tmp/ccr19bkt.s:473    .text:000001de .Loc.71
     /tmp/ccr19bkt.s:479    .text:000001e6 .Loc.72
     /tmp/ccr19bkt.s:480    .text:000001e6 .Loc.73
     /tmp/ccr19bkt.s:502    .text:0000020e .Loc.74
     /tmp/ccr19bkt.s:504    .text:00000210 L0
     /tmp/ccr19bkt.s:508    .text:00000210 syscall_rand
     /tmp/ccr19bkt.s:511    .text:00000210 .Loc.75
     /tmp/ccr19bkt.s:512    .text:00000210 L0
     /tmp/ccr19bkt.s:517    .text:00000210 .Loc.76
     /tmp/ccr19bkt.s:518    .text:00000210 .Loc.77
     /tmp/ccr19bkt.s:521    .text:00000214 .Loc.78
     /tmp/ccr19bkt.s:522    .text:00000214 L0
     /tmp/ccr19bkt.s:526    .text:00000214 syscall_gfx_rect
     /tmp/ccr19bkt.s:529    .text:00000214 .Loc.79
     /tmp/ccr19bkt.s:530    .text:00000214 L0
     /tmp/ccr19bkt.s:531    .text:00000214 .Loc.80
     /tmp/ccr19bkt.s:577    .text:0000023a .Loc.81
     /tmp/ccr19bkt.s:587    .text:0000024a .Loc.82
     /tmp/ccr19bkt.s:622    .text:0000028e .Loc.83
     /tmp/ccr19bkt.s:623    .text:0000028e .Loc.84
     /tmp/ccr19bkt.s:628    .text:00000296 .Loc.85
     /tmp/ccr19bkt.s:650    .text:000002be L0
     /tmp/ccr19bkt.s:655    .text:000002be emulator_call
     /tmp/ccr19bkt.s:658    .text:000002be .Loc.86
     /tmp/ccr19bkt.s:659    .text:000002be L0
     /tmp/ccr19bkt.s:660    .text:000002be .Loc.87
     /tmp/ccr19bkt.s:730    .text:000002f4 .Loc.88
     /tmp/ccr19bkt.s:731    .text:000002f4 .Loc.89
     /tmp/ccr19bkt.s:738    .text:000002fe .Loc.90
     /tmp/ccr19bkt.s:746    .text:0000030c .Loc.91
     /tmp/ccr19bkt.s:747    .text:0000030c .Loc.92
     /tmp/ccr19bkt.s:753    .text:00000316 .Loc.93
     /tmp/ccr19bkt.s:754    .text:00000316 .Loc.94
     /tmp/ccr19bkt.s:759    .text:0000031e .Loc.95
     /tmp/ccr19bkt.s:765    .text:00000326 .Loc.96
     /tmp/ccr19bkt.s:770    .text:0000032c .Loc.97
     /tmp/ccr19bkt.s:773    .text:00000330 .Loc.98
     /tmp/ccr19bkt.s:774    .text:00000330 .Loc.99
     /tmp/ccr19bkt.s:775    .text:00000330 .Loc.100
     /tmp/ccr19bkt.s:781    .text:00000334 .Loc.101
     /tmp/ccr19bkt.s:788    .text:0000033c .Loc.102
     /tmp/ccr19bkt.s:793    .text:0000033c .Loc.103
     /tmp/ccr19bkt.s:794    .text:0000033c .Loc.104
     /tmp/ccr19bkt.s:797    .text:0000033c .Loc.105
     /tmp/ccr19bkt.s:799    .text:0000033c .Loc.106
     /tmp/ccr19bkt.s:800    .text:0000033c .Loc.107
     /tmp/ccr19bkt.s:803    .text:0000033c .Loc.108
     /tmp/ccr19bkt.s:805    .text:0000033c .Loc.109
     /tmp/ccr19bkt.s:806    .text:0000033c .Loc.110
     /tmp/ccr19bkt.s:827    .text:00000364 .Loc.111
     /tmp/ccr19bkt.s:828    .text:00000364 .Loc.112
     /tmp/ccr19bkt.s:834    .text:0000036c .Loc.113
     /tmp/ccr19bkt.s:837    .text:0000036c .Loc.114
     /tmp/ccr19bkt.s:838    .text:0000036c .Loc.115
     /tmp/ccr19bkt.s:844    .text:00000376 .Loc.116
     /tmp/ccr19bkt.s:846    .text:00000376 .Loc.117
     /tmp/ccr19bkt.s:847    .text:00000376 .Loc.118
     /tmp/ccr19bkt.s:855    .text:00000384 .Loc.119
     /tmp/ccr19bkt.s:860    .text:0000038e L0
     /tmp/ccr19bkt.s:862    .text:00000390 .Loc.120
     /tmp/ccr19bkt.s:864    .text:00000390 .Loc.121
     /tmp/ccr19bkt.s:865    .text:00000390 .Loc.122
     /tmp/ccr19bkt.s:881    .text:000003aa .Loc.123
     /tmp/ccr19bkt.s:886    .text:000003b4 L0
     /tmp/ccr19bkt.s:926    .text:000003c0 .Loc.124
     /tmp/ccr19bkt.s:927    .text:000003c0 .Loc.125
     /tmp/ccr19bkt.s:938    .text:000003ce .Loc.126
     /tmp/ccr19bkt.s:940    .text:000003ce .Loc.127
     /tmp/ccr19bkt.s:941    .text:000003ce .Loc.128
     /tmp/ccr19bkt.s:946    .text:000003d8 L0
     /tmp/ccr19bkt.s:948    .text:000003da .Loc.129
     /tmp/ccr19bkt.s:949    .text:000003da .Loc.130
     /tmp/ccr19bkt.s:953    .text:000003de .Loc.131
     /tmp/ccr19bkt.s:956    .text:000003e0 .Loc.132
     /tmp/ccr19bkt.s:4050   .rodata:00000000 syscalls
     /tmp/ccr19bkt.s:959    .text:000003e4 .Loc.133
     /tmp/ccr19bkt.s:966    .text:000003ee .Loc.134
     /tmp/ccr19bkt.s:974    .text:000003fc .Loc.135
     /tmp/ccr19bkt.s:977    .text:000003fc .Loc.136
     /tmp/ccr19bkt.s:980    .text:000003fc .Loc.137
     /tmp/ccr19bkt.s:981    .text:000003fc .Loc.138
     /tmp/ccr19bkt.s:990    .text:0000040c .Loc.139
     /tmp/ccr19bkt.s:992    .text:0000040c .Loc.140
     /tmp/ccr19bkt.s:997    .text:0000040e .Loc.141
     /tmp/ccr19bkt.s:998    .text:0000040e .Loc.142
     /tmp/ccr19bkt.s:999    .text:0000040e .Loc.143
     /tmp/ccr19bkt.s:1000   .text:0000040e .Loc.144
     /tmp/ccr19bkt.s:1001   .text:0000040e .Loc.145
     /tmp/ccr19bkt.s:1005   .text:00000412 .Loc.146
     /tmp/ccr19bkt.s:1014   .text:00000420 .Loc.147
     /tmp/ccr19bkt.s:1019   .text:00000426 .Loc.148
     /tmp/ccr19bkt.s:1020   .text:00000426 .Loc.149
     /tmp/ccr19bkt.s:1031   .text:00000438 .Loc.150
     /tmp/ccr19bkt.s:1035   .text:0000043c .Loc.151
     /tmp/ccr19bkt.s:1036   .text:0000043c .Loc.152
     /tmp/ccr19bkt.s:1047   .text:0000044e .Loc.153
     /tmp/ccr19bkt.s:1050   .text:00000450 .Loc.154
     /tmp/ccr19bkt.s:1051   .text:00000450 .Loc.155
     /tmp/ccr19bkt.s:1054   .text:00000450 .Loc.156
     /tmp/ccr19bkt.s:1056   .text:00000450 .Loc.157
     /tmp/ccr19bkt.s:1057   .text:00000450 .Loc.158
     /tmp/ccr19bkt.s:1060   .text:00000450 .Loc.159
     /tmp/ccr19bkt.s:1072   .text:0000045e .Loc.160
     /tmp/ccr19bkt.s:1076   .text:00000462 .Loc.161
     /tmp/ccr19bkt.s:1081   .text:00000468 .Loc.162
     /tmp/ccr19bkt.s:1084   .text:00000468 .Loc.163
     /tmp/ccr19bkt.s:1086   .text:0000046c L0
     /tmp/ccr19bkt.s:1094   .text:0000047a .Loc.164
     /tmp/ccr19bkt.s:1095   .text:0000047a .Loc.165
     /tmp/ccr19bkt.s:1099   .text:0000047a .Loc.166
     /tmp/ccr19bkt.s:1101   .text:0000047a .Loc.167
     /tmp/ccr19bkt.s:1102   .text:0000047a .Loc.168
     /tmp/ccr19bkt.s:1105   .text:0000047a .Loc.169
     /tmp/ccr19bkt.s:1113   .text:00000488 .Loc.170
     /tmp/ccr19bkt.s:1130   .text:000004a4 .Loc.171
     /tmp/ccr19bkt.s:1138   .text:000004b0 .Loc.172
     /tmp/ccr19bkt.s:1141   .text:000004b4 .Loc.173
     /tmp/ccr19bkt.s:1142   .text:000004b4 .Loc.174
     /tmp/ccr19bkt.s:1151   .text:000004c0 .Loc.175
     /tmp/ccr19bkt.s:1154   .text:000004c0 .Loc.176
     /tmp/ccr19bkt.s:1166   .text:000004d0 .Loc.177
     /tmp/ccr19bkt.s:1171   .text:000004d8 .Loc.178
     /tmp/ccr19bkt.s:1175   .text:000004da .Loc.179
     /tmp/ccr19bkt.s:1177   .text:000004de L0
     /tmp/ccr19bkt.s:1180   .text:000004e4 L0
     /tmp/ccr19bkt.s:1185   .text:000004e6 .Loc.180
     /tmp/ccr19bkt.s:1189   .text:000004e6 .Loc.181
     /tmp/ccr19bkt.s:1207   .text:00000506 .Loc.182
     /tmp/ccr19bkt.s:1211   .text:0000050a .Loc.183
     /tmp/ccr19bkt.s:1224   .text:00000518 .Loc.184
     /tmp/ccr19bkt.s:1225   .text:00000518 .Loc.185
     /tmp/ccr19bkt.s:1228   .text:00000518 .Loc.186
     /tmp/ccr19bkt.s:1230   .text:00000518 .Loc.187
     /tmp/ccr19bkt.s:1231   .text:00000518 .Loc.188
     /tmp/ccr19bkt.s:1234   .text:00000518 .Loc.189
     /tmp/ccr19bkt.s:1241   .text:00000522 .Loc.190
     /tmp/ccr19bkt.s:1244   .text:00000526 .Loc.191
     /tmp/ccr19bkt.s:1261   .text:00000542 .Loc.192
     /tmp/ccr19bkt.s:1270   .text:00000552 .Loc.193
     /tmp/ccr19bkt.s:1271   .text:00000552 .Loc.194
     /tmp/ccr19bkt.s:1281   .text:00000560 .Loc.195
     /tmp/ccr19bkt.s:1284   .text:00000560 .Loc.196
     /tmp/ccr19bkt.s:1285   .text:00000560 .Loc.197
     /tmp/ccr19bkt.s:1288   .text:00000560 .Loc.198
     /tmp/ccr19bkt.s:1290   .text:00000560 .Loc.199
     /tmp/ccr19bkt.s:1291   .text:00000560 .Loc.200
     /tmp/ccr19bkt.s:1294   .text:00000560 .Loc.201
     /tmp/ccr19bkt.s:1304   .text:00000572 .Loc.202
     /tmp/ccr19bkt.s:1321   .text:0000058e .Loc.203
     /tmp/ccr19bkt.s:1329   .text:0000059a .Loc.204
     /tmp/ccr19bkt.s:1332   .text:0000059e .Loc.205
     /tmp/ccr19bkt.s:1333   .text:0000059e .Loc.206
     /tmp/ccr19bkt.s:1340   .text:000005a6 .Loc.207
     /tmp/ccr19bkt.s:1343   .text:000005a6 .Loc.208
     /tmp/ccr19bkt.s:1349   .text:000005ac .Loc.209
     /tmp/ccr19bkt.s:1350   .text:000005ac .Loc.210
     /tmp/ccr19bkt.s:1353   .text:000005ac .Loc.211
     /tmp/ccr19bkt.s:1355   .text:000005ac .Loc.212
     /tmp/ccr19bkt.s:1356   .text:000005ac .Loc.213
     /tmp/ccr19bkt.s:1359   .text:000005ac .Loc.214
     /tmp/ccr19bkt.s:1369   .text:000005be .Loc.215
     /tmp/ccr19bkt.s:1386   .text:000005da .Loc.216
     /tmp/ccr19bkt.s:1394   .text:000005e6 .Loc.217
     /tmp/ccr19bkt.s:1397   .text:000005ea .Loc.218
     /tmp/ccr19bkt.s:1398   .text:000005ea .Loc.219
     /tmp/ccr19bkt.s:1403   .text:000005ee .Loc.220
     /tmp/ccr19bkt.s:1409   .text:000005f4 .Loc.221
     /tmp/ccr19bkt.s:1412   .text:000005f4 .Loc.222
     /tmp/ccr19bkt.s:1413   .text:000005f4 .Loc.223
     /tmp/ccr19bkt.s:1416   .text:000005f4 .Loc.224
     /tmp/ccr19bkt.s:1418   .text:000005f4 .Loc.225
     /tmp/ccr19bkt.s:1419   .text:000005f4 .Loc.226
     /tmp/ccr19bkt.s:1422   .text:000005f4 .Loc.227
     /tmp/ccr19bkt.s:1432   .text:00000606 .Loc.228
     /tmp/ccr19bkt.s:1449   .text:00000622 .Loc.229
     /tmp/ccr19bkt.s:1457   .text:0000062e .Loc.230
     /tmp/ccr19bkt.s:1460   .text:00000632 .Loc.231
     /tmp/ccr19bkt.s:1461   .text:00000632 .Loc.232
     /tmp/ccr19bkt.s:1467   .text:00000638 .Loc.233
     /tmp/ccr19bkt.s:1472   .text:00000638 .Loc.234
     /tmp/ccr19bkt.s:1473   .text:00000638 .Loc.235
     /tmp/ccr19bkt.s:1474   .text:00000638 .Loc.236
     /tmp/ccr19bkt.s:1475   .text:00000638 .Loc.237
     /tmp/ccr19bkt.s:1476   .text:00000638 .Loc.238
     /tmp/ccr19bkt.s:1477   .text:00000638 .Loc.239
     /tmp/ccr19bkt.s:1478   .text:00000638 .Loc.240
     /tmp/ccr19bkt.s:1490   .text:0000064a .Loc.241
     /tmp/ccr19bkt.s:1491   .text:0000064a .Loc.242
     /tmp/ccr19bkt.s:1495   .text:0000064e .Loc.243
     /tmp/ccr19bkt.s:1504   .text:0000065c .Loc.244
     /tmp/ccr19bkt.s:1506   .text:0000065e .Loc.245
     /tmp/ccr19bkt.s:1511   .text:00000662 .Loc.246
     /tmp/ccr19bkt.s:1525   .text:00000678 .Loc.247
     /tmp/ccr19bkt.s:1536   .text:0000068a .Loc.248
     /tmp/ccr19bkt.s:1538   .text:0000068c .Loc.249
     /tmp/ccr19bkt.s:1541   .text:00000690 .Loc.250
     /tmp/ccr19bkt.s:1552   .text:000006a2 .Loc.251
     /tmp/ccr19bkt.s:1577   .text:000006bc .Loc.252
     /tmp/ccr19bkt.s:1581   .text:000006bc .Loc.253
     /tmp/ccr19bkt.s:1583   .text:000006bc .Loc.254
     /tmp/ccr19bkt.s:1584   .text:000006bc .Loc.255
     /tmp/ccr19bkt.s:1585   .text:000006bc .Loc.256
     /tmp/ccr19bkt.s:1588   .text:000006bc .Loc.257
     /tmp/ccr19bkt.s:1589   .text:000006bc .Loc.258
     /tmp/ccr19bkt.s:1590   .text:000006bc .Loc.259
     /tmp/ccr19bkt.s:1600   .text:000006ca .Loc.260
     /tmp/ccr19bkt.s:1604   .text:000006ce .Loc.261
     /tmp/ccr19bkt.s:1609   .text:000006d4 .Loc.262
     /tmp/ccr19bkt.s:1612   .text:000006d4 .Loc.263
     /tmp/ccr19bkt.s:1619   .text:000006dc .Loc.264
     /tmp/ccr19bkt.s:1624   .text:000006e4 .Loc.265
     /tmp/ccr19bkt.s:1628   .text:000006e6 .Loc.266
     /tmp/ccr19bkt.s:1629   .text:000006e6 .Loc.267
     /tmp/ccr19bkt.s:1630   .text:000006e6 .Loc.268
     /tmp/ccr19bkt.s:1631   .text:000006e6 .Loc.269
     /tmp/ccr19bkt.s:1639   .text:000006f4 .Loc.270
     /tmp/ccr19bkt.s:1645   .text:000006fc .Loc.271
     /tmp/ccr19bkt.s:1657   .text:0000070a .Loc.272
     /tmp/ccr19bkt.s:1665   .text:00000714 .Loc.273
     /tmp/ccr19bkt.s:1668   .text:00000714 .Loc.274
     /tmp/ccr19bkt.s:1670   .text:00000714 .Loc.275
     /tmp/ccr19bkt.s:1671   .text:00000714 .Loc.276
     /tmp/ccr19bkt.s:1672   .text:00000714 .Loc.277
     /tmp/ccr19bkt.s:1675   .text:00000714 .Loc.278
     /tmp/ccr19bkt.s:1676   .text:00000714 .Loc.279
     /tmp/ccr19bkt.s:1677   .text:00000714 .Loc.280
     /tmp/ccr19bkt.s:1687   .text:00000722 .Loc.281
     /tmp/ccr19bkt.s:1691   .text:00000726 .Loc.282
     /tmp/ccr19bkt.s:1696   .text:0000072c .Loc.283
     /tmp/ccr19bkt.s:1699   .text:0000072c .Loc.284
     /tmp/ccr19bkt.s:1705   .text:00000734 .Loc.285
     /tmp/ccr19bkt.s:1712   .text:0000073c .Loc.286
     /tmp/ccr19bkt.s:1715   .text:0000073c .Loc.287
     /tmp/ccr19bkt.s:1716   .text:0000073e L0
     /tmp/ccr19bkt.s:1721   .text:00000742 .Loc.288
     /tmp/ccr19bkt.s:1724   .text:00000742 .Loc.289
     /tmp/ccr19bkt.s:1725   .text:00000742 .Loc.290
     /tmp/ccr19bkt.s:1726   .text:00000742 .Loc.291
     /tmp/ccr19bkt.s:1734   .text:00000750 .Loc.292
     /tmp/ccr19bkt.s:1740   .text:00000758 .Loc.293
     /tmp/ccr19bkt.s:1745   .text:00000762 L0
     /tmp/ccr19bkt.s:1749   .text:00000764 .Loc.294
     /tmp/ccr19bkt.s:1752   .text:00000764 .Loc.295
     /tmp/ccr19bkt.s:1759   .text:0000076c .Loc.296
     /tmp/ccr19bkt.s:1762   .text:0000076c .Loc.297
     /tmp/ccr19bkt.s:1765   .text:0000076c .Loc.298
     /tmp/ccr19bkt.s:1767   .text:0000076c .Loc.299
     /tmp/ccr19bkt.s:1768   .text:0000076c .Loc.300
     /tmp/ccr19bkt.s:1769   .text:0000076c .Loc.301
     /tmp/ccr19bkt.s:1772   .text:0000076c .Loc.302
     /tmp/ccr19bkt.s:1773   .text:0000076c .Loc.303
     /tmp/ccr19bkt.s:1774   .text:0000076c .Loc.304
     /tmp/ccr19bkt.s:1781   .text:00000776 .Loc.305
     /tmp/ccr19bkt.s:1786   .text:0000077a .Loc.306
     /tmp/ccr19bkt.s:1790   .text:0000077e .Loc.307
     /tmp/ccr19bkt.s:1795   .text:00000784 .Loc.308
     /tmp/ccr19bkt.s:1798   .text:00000784 .Loc.309
     /tmp/ccr19bkt.s:1804   .text:0000078c .Loc.310
     /tmp/ccr19bkt.s:1808   .text:0000078e .Loc.311
     /tmp/ccr19bkt.s:1809   .text:0000078e .Loc.312
     /tmp/ccr19bkt.s:1819   .text:0000079c .Loc.313
     /tmp/ccr19bkt.s:1827   .text:000007aa .Loc.314
     /tmp/ccr19bkt.s:1832   .text:000007b2 .Loc.315
     /tmp/ccr19bkt.s:1834   .text:000007b2 .Loc.316
     /tmp/ccr19bkt.s:1835   .text:000007b2 .Loc.317
     /tmp/ccr19bkt.s:1836   .text:000007b2 .Loc.318
     /tmp/ccr19bkt.s:1842   .text:000007ba .Loc.319
     /tmp/ccr19bkt.s:1854   .text:000007ca .Loc.320
     /tmp/ccr19bkt.s:1856   .text:000007ca .Loc.321
     /tmp/ccr19bkt.s:1857   .text:000007ca .Loc.322
     /tmp/ccr19bkt.s:1858   .text:000007ca .Loc.323
     /tmp/ccr19bkt.s:1871   .text:000007da .Loc.324
     /tmp/ccr19bkt.s:1874   .text:000007da .Loc.325
     /tmp/ccr19bkt.s:1876   .text:000007da .Loc.326
     /tmp/ccr19bkt.s:1877   .text:000007da .Loc.327
     /tmp/ccr19bkt.s:1878   .text:000007da .Loc.328
     /tmp/ccr19bkt.s:1881   .text:000007da .Loc.329
     /tmp/ccr19bkt.s:1882   .text:000007da .Loc.330
     /tmp/ccr19bkt.s:1883   .text:000007da .Loc.331
     /tmp/ccr19bkt.s:1893   .text:000007e8 .Loc.332
     /tmp/ccr19bkt.s:1897   .text:000007ec .Loc.333
     /tmp/ccr19bkt.s:1902   .text:000007f2 .Loc.334
     /tmp/ccr19bkt.s:1905   .text:000007f2 .Loc.335
     /tmp/ccr19bkt.s:1911   .text:000007fa .Loc.336
     /tmp/ccr19bkt.s:1915   .text:000007fc .Loc.337
     /tmp/ccr19bkt.s:1918   .text:000007fc .Loc.338
     /tmp/ccr19bkt.s:1920   .text:000007fc .Loc.339
     /tmp/ccr19bkt.s:1921   .text:000007fc .Loc.340
     /tmp/ccr19bkt.s:1922   .text:000007fc .Loc.341
     /tmp/ccr19bkt.s:1925   .text:000007fc .Loc.342
     /tmp/ccr19bkt.s:1926   .text:000007fc .Loc.343
     /tmp/ccr19bkt.s:1927   .text:000007fc .Loc.344
     /tmp/ccr19bkt.s:1937   .text:0000080a .Loc.345
     /tmp/ccr19bkt.s:1941   .text:0000080e .Loc.346
     /tmp/ccr19bkt.s:1946   .text:00000814 .Loc.347
     /tmp/ccr19bkt.s:1949   .text:00000814 .Loc.348
     /tmp/ccr19bkt.s:1955   .text:0000081c .Loc.349
     /tmp/ccr19bkt.s:1959   .text:0000081e .Loc.350
     /tmp/ccr19bkt.s:1962   .text:0000081e .Loc.351
     /tmp/ccr19bkt.s:1963   .text:0000081e .Loc.352
     /tmp/ccr19bkt.s:1964   .text:0000081e .Loc.353
     /tmp/ccr19bkt.s:1965   .text:0000081e .Loc.354
     /tmp/ccr19bkt.s:1966   .text:0000081e .Loc.355
     /tmp/ccr19bkt.s:1967   .text:0000081e .Loc.356
     /tmp/ccr19bkt.s:1968   .text:0000081e .Loc.357
     /tmp/ccr19bkt.s:1980   .text:00000830 .Loc.358
     /tmp/ccr19bkt.s:1982   .text:00000832 .Loc.359
     /tmp/ccr19bkt.s:1985   .text:00000836 .Loc.360
     /tmp/ccr19bkt.s:1994   .text:00000846 .Loc.361
     /tmp/ccr19bkt.s:1999   .text:0000084e .Loc.362
     /tmp/ccr19bkt.s:2006   .text:00000858 .Loc.363
     /tmp/ccr19bkt.s:2011   .text:00000860 .Loc.364
     /tmp/ccr19bkt.s:2016   .text:00000864 .Loc.365
     /tmp/ccr19bkt.s:2019   .text:00000864 .Loc.366
     /tmp/ccr19bkt.s:2020   .text:00000864 .Loc.367
     /tmp/ccr19bkt.s:2021   .text:00000864 .Loc.368
     /tmp/ccr19bkt.s:2022   .text:00000864 .Loc.369
     /tmp/ccr19bkt.s:2023   .text:00000864 .Loc.370
     /tmp/ccr19bkt.s:2027   .text:00000868 .Loc.371
     /tmp/ccr19bkt.s:2036   .text:00000876 .Loc.372
     /tmp/ccr19bkt.s:2040   .text:0000087a .Loc.373
     /tmp/ccr19bkt.s:2041   .text:0000087a .Loc.374
     /tmp/ccr19bkt.s:2052   .text:0000088c .Loc.375
     /tmp/ccr19bkt.s:2056   .text:00000890 .Loc.376
     /tmp/ccr19bkt.s:2057   .text:00000890 .Loc.377
     /tmp/ccr19bkt.s:2068   .text:000008a2 .Loc.378
     /tmp/ccr19bkt.s:2072   .text:000008a6 .Loc.379
     /tmp/ccr19bkt.s:2073   .text:000008a6 .Loc.380
     /tmp/ccr19bkt.s:2076   .text:000008a6 .Loc.381
     /tmp/ccr19bkt.s:2078   .text:000008a6 .Loc.382
     /tmp/ccr19bkt.s:2079   .text:000008a6 .Loc.383
     /tmp/ccr19bkt.s:2082   .text:000008a6 .Loc.384
     /tmp/ccr19bkt.s:2092   .text:000008b4 .Loc.385
     /tmp/ccr19bkt.s:2097   .text:000008bc .Loc.386
     /tmp/ccr19bkt.s:2105   .text:000008c8 .Loc.387
     /tmp/ccr19bkt.s:2115   .text:000008d4 .Loc.388
     /tmp/ccr19bkt.s:2119   .text:000008d8 .Loc.389
     /tmp/ccr19bkt.s:2124   .text:000008de .Loc.390
     /tmp/ccr19bkt.s:2127   .text:000008de .Loc.391
     /tmp/ccr19bkt.s:2131   .text:000008e6 L0
     /tmp/ccr19bkt.s:2135   .text:000008ec .Loc.392
     /tmp/ccr19bkt.s:2136   .text:000008ec .Loc.393
     /tmp/ccr19bkt.s:2137   .text:000008ec .Loc.394
     /tmp/ccr19bkt.s:2147   .text:000008fe .Loc.395
     /tmp/ccr19bkt.s:2166   .text:0000091c .Loc.396
     /tmp/ccr19bkt.s:2168   .text:0000091c .Loc.397
     /tmp/ccr19bkt.s:2171   .text:0000091c .Loc.398
     /tmp/ccr19bkt.s:2175   .text:00000920 .Loc.399
     /tmp/ccr19bkt.s:2184   .text:0000092c .Loc.400
     /tmp/ccr19bkt.s:2188   .text:00000930 .Loc.401
     /tmp/ccr19bkt.s:2195   .text:00000938 .Loc.402
     /tmp/ccr19bkt.s:2200   .text:00000938 .Loc.403
     /tmp/ccr19bkt.s:2204   .text:0000093c .Loc.404
     /tmp/ccr19bkt.s:2208   .text:0000093e .Loc.405
     /tmp/ccr19bkt.s:2211   .text:0000093e .Loc.406
     /tmp/ccr19bkt.s:2212   .text:0000093e .Loc.407
     /tmp/ccr19bkt.s:2213   .text:0000093e .Loc.408
     /tmp/ccr19bkt.s:2222   .text:0000094c .Loc.409
     /tmp/ccr19bkt.s:2225   .text:00000950 .Loc.410
     /tmp/ccr19bkt.s:2244   .text:0000096e .Loc.411
     /tmp/ccr19bkt.s:2246   .text:0000096e .Loc.412
     /tmp/ccr19bkt.s:2249   .text:0000096e .Loc.413
     /tmp/ccr19bkt.s:2253   .text:00000972 .Loc.414
     /tmp/ccr19bkt.s:2259   .text:0000097a .Loc.415
     /tmp/ccr19bkt.s:2264   .text:0000097e .Loc.416
     /tmp/ccr19bkt.s:2270   .text:00000986 .Loc.417
     /tmp/ccr19bkt.s:2276   .text:0000098e .Loc.418
     /tmp/ccr19bkt.s:2281   .text:00000992 .Loc.419
     /tmp/ccr19bkt.s:2286   .text:00000992 .Loc.420
     /tmp/ccr19bkt.s:2291   .text:00000996 .Loc.421
     /tmp/ccr19bkt.s:2295   .text:00000998 .Loc.422
     /tmp/ccr19bkt.s:2296   .text:00000998 .Loc.423
     /tmp/ccr19bkt.s:2297   .text:00000998 .Loc.424
     /tmp/ccr19bkt.s:2307   .text:000009aa .Loc.425
     /tmp/ccr19bkt.s:2324   .text:000009c8 .Loc.426
     /tmp/ccr19bkt.s:2328   .text:000009cc .Loc.427
     /tmp/ccr19bkt.s:2346   .text:000009e8 .Loc.428
     /tmp/ccr19bkt.s:2348   .text:000009e8 .Loc.429
     /tmp/ccr19bkt.s:2354   .text:000009f0 .Loc.430
     /tmp/ccr19bkt.s:2358   .text:000009f2 .Loc.431
     /tmp/ccr19bkt.s:2363   .text:000009f2 .Loc.432
     /tmp/ccr19bkt.s:2364   .text:000009f2 .Loc.433
     /tmp/ccr19bkt.s:2365   .text:000009f2 .Loc.434
     /tmp/ccr19bkt.s:2366   .text:000009f2 .Loc.435
     /tmp/ccr19bkt.s:2377   .text:00000a04 .Loc.436
     /tmp/ccr19bkt.s:2380   .text:00000a06 .Loc.437
     /tmp/ccr19bkt.s:2384   .text:00000a0a .Loc.438
     /tmp/ccr19bkt.s:2385   .text:00000a0a .Loc.439
     /tmp/ccr19bkt.s:2386   .text:00000a0a .Loc.440
     /tmp/ccr19bkt.s:2387   .text:00000a0a .Loc.441
     /tmp/ccr19bkt.s:2399   .text:00000a1c .Loc.442
     /tmp/ccr19bkt.s:2400   .text:00000a1c .Loc.443
     /tmp/ccr19bkt.s:2411   .text:00000a2e .Loc.444
     /tmp/ccr19bkt.s:2413   .text:00000a30 .Loc.445
     /tmp/ccr19bkt.s:2417   .text:00000a32 .Loc.446
     /tmp/ccr19bkt.s:2437   .text:00000a54 .Loc.447
     /tmp/ccr19bkt.s:2448   .text:00000a66 .Loc.448
     /tmp/ccr19bkt.s:2450   .text:00000a68 .Loc.449
     /tmp/ccr19bkt.s:2454   .text:00000a6a .Loc.450
     /tmp/ccr19bkt.s:2470   .text:00000a84 .Loc.451
     /tmp/ccr19bkt.s:2480   .text:00000a92 .Loc.452
     /tmp/ccr19bkt.s:2482   .text:00000a94 .Loc.453
     /tmp/ccr19bkt.s:2490   .text:00000aa2 .Loc.454
     /tmp/ccr19bkt.s:2492   .text:00000aa6 L0
     /tmp/ccr19bkt.s:2494   .text:00000aa8 .Loc.455
     /tmp/ccr19bkt.s:2500   .text:00000ab2 .Loc.456
     /tmp/ccr19bkt.s:2507   .text:00000abe .Loc.457
     /tmp/ccr19bkt.s:2527   .text:00000ace .Loc.458
     /tmp/ccr19bkt.s:2528   .text:00000ace .Loc.459
     /tmp/ccr19bkt.s:2529   .text:00000ace .Loc.460
     /tmp/ccr19bkt.s:2537   .text:00000adc .Loc.461
     /tmp/ccr19bkt.s:2546   .text:00000aec .Loc.462
     /tmp/ccr19bkt.s:2551   .text:00000af4 .Loc.463
     /tmp/ccr19bkt.s:2554   .text:00000af6 .Loc.464
     /tmp/ccr19bkt.s:2555   .text:00000af6 .Loc.465
     /tmp/ccr19bkt.s:2556   .text:00000af6 .Loc.466
     /tmp/ccr19bkt.s:2558   .text:00000afa .Loc.467
     /tmp/ccr19bkt.s:2562   .text:00000b00 .Loc.468
     /tmp/ccr19bkt.s:2573   .text:00000b14 .Loc.469
     /tmp/ccr19bkt.s:2576   .text:00000b16 .Loc.470
     /tmp/ccr19bkt.s:2577   .text:00000b16 .Loc.471
     /tmp/ccr19bkt.s:2578   .text:00000b16 .Loc.472
     /tmp/ccr19bkt.s:2580   .text:00000b1a .Loc.473
     /tmp/ccr19bkt.s:2583   .text:00000b20 .Loc.474
     /tmp/ccr19bkt.s:2589   .text:00000b2a .Loc.475
     /tmp/ccr19bkt.s:2592   .text:00000b2c .Loc.476
     /tmp/ccr19bkt.s:2593   .text:00000b2c .Loc.477
     /tmp/ccr19bkt.s:2594   .text:00000b2c .Loc.478
     /tmp/ccr19bkt.s:2596   .text:00000b30 .Loc.479
     /tmp/ccr19bkt.s:2601   .text:00000b38 .Loc.480
     /tmp/ccr19bkt.s:2602   .text:00000b38 .Loc.481
     /tmp/ccr19bkt.s:2603   .text:00000b38 .Loc.482
     /tmp/ccr19bkt.s:2605   .text:00000b3c .Loc.483
     /tmp/ccr19bkt.s:2611   .text:00000b46 .Loc.484
     /tmp/ccr19bkt.s:2614   .text:00000b48 .Loc.485
     /tmp/ccr19bkt.s:2615   .text:00000b48 .Loc.486
     /tmp/ccr19bkt.s:2616   .text:00000b48 .Loc.487
     /tmp/ccr19bkt.s:2618   .text:00000b4c .Loc.488
     /tmp/ccr19bkt.s:2625   .text:00000b58 .Loc.489
     /tmp/ccr19bkt.s:2628   .text:00000b5a .Loc.490
     /tmp/ccr19bkt.s:2629   .text:00000b5a .Loc.491
     /tmp/ccr19bkt.s:2630   .text:00000b5a .Loc.492
     /tmp/ccr19bkt.s:2635   .text:00000b62 .Loc.493
     /tmp/ccr19bkt.s:2636   .text:00000b62 .Loc.494
     /tmp/ccr19bkt.s:2637   .text:00000b62 .Loc.495
     /tmp/ccr19bkt.s:2645   .text:00000b72 .Loc.496
     /tmp/ccr19bkt.s:2648   .text:00000b74 .Loc.497
     /tmp/ccr19bkt.s:2667   .text:00000b82 .Loc.498
     /tmp/ccr19bkt.s:2668   .text:00000b82 .Loc.499
     /tmp/ccr19bkt.s:2676   .text:00000b90 .Loc.500
     /tmp/ccr19bkt.s:2681   .text:00000b98 .Loc.501
     /tmp/ccr19bkt.s:2684   .text:00000b9c .Loc.502
     /tmp/ccr19bkt.s:2685   .text:00000b9c .Loc.503
     /tmp/ccr19bkt.s:2686   .text:00000b9c .Loc.504
     /tmp/ccr19bkt.s:2693   .text:00000ba6 .Loc.505
     /tmp/ccr19bkt.s:2694   .text:00000ba6 .Loc.506
     /tmp/ccr19bkt.s:2695   .text:00000ba6 .Loc.507
     /tmp/ccr19bkt.s:2702   .text:00000bb0 .Loc.508
     /tmp/ccr19bkt.s:2703   .text:00000bb0 .Loc.509
     /tmp/ccr19bkt.s:2704   .text:00000bb0 .Loc.510
     /tmp/ccr19bkt.s:2712   .text:00000bbe .Loc.511
     /tmp/ccr19bkt.s:2716   .text:00000bc4 .Loc.512
     /tmp/ccr19bkt.s:2732   .text:00000bdc .Loc.513
     /tmp/ccr19bkt.s:2733   .text:00000bdc .Loc.514
     /tmp/ccr19bkt.s:2734   .text:00000bdc .Loc.515
     /tmp/ccr19bkt.s:2742   .text:00000bea .Loc.516
     /tmp/ccr19bkt.s:2757   .text:00000c04 .Loc.517
     /tmp/ccr19bkt.s:2758   .text:00000c04 .Loc.518
     /tmp/ccr19bkt.s:2759   .text:00000c04 .Loc.519
     /tmp/ccr19bkt.s:2767   .text:00000c12 .Loc.520
     /tmp/ccr19bkt.s:2780   .text:00000c2c L0
     /tmp/ccr19bkt.s:2784   .text:00000c30 .Loc.521
     /tmp/ccr19bkt.s:2785   .text:00000c30 .Loc.522
     /tmp/ccr19bkt.s:2786   .text:00000c30 .Loc.523
     /tmp/ccr19bkt.s:2794   .text:00000c3e .Loc.524
     /tmp/ccr19bkt.s:2805   .text:00000c50 .Loc.525
     /tmp/ccr19bkt.s:2806   .text:00000c50 .Loc.526
     /tmp/ccr19bkt.s:2810   .text:00000c56 .Loc.527
     /tmp/ccr19bkt.s:2818   .text:00000c64 .Loc.528
     /tmp/ccr19bkt.s:2823   .text:00000c6c .Loc.529
     /tmp/ccr19bkt.s:2826   .text:00000c70 .Loc.530
     /tmp/ccr19bkt.s:2827   .text:00000c70 .Loc.531
     /tmp/ccr19bkt.s:2828   .text:00000c70 .Loc.532
     /tmp/ccr19bkt.s:2840   .text:00000c80 .Loc.533
     /tmp/ccr19bkt.s:2841   .text:00000c80 .Loc.534
     /tmp/ccr19bkt.s:2842   .text:00000c80 .Loc.535
     /tmp/ccr19bkt.s:2854   .text:00000c90 .Loc.536
     /tmp/ccr19bkt.s:2855   .text:00000c90 .Loc.537
     /tmp/ccr19bkt.s:2856   .text:00000c90 .Loc.538
     /tmp/ccr19bkt.s:2864   .text:00000c9e .Loc.539
     /tmp/ccr19bkt.s:2875   .text:00000cb0 .Loc.540
     /tmp/ccr19bkt.s:2876   .text:00000cb0 .Loc.541
     /tmp/ccr19bkt.s:2877   .text:00000cb0 .Loc.542
     /tmp/ccr19bkt.s:2885   .text:00000cbe .Loc.543
     /tmp/ccr19bkt.s:2897   .text:00000cd0 .Loc.544
     /tmp/ccr19bkt.s:2900   .text:00000cd0 .Loc.545
     /tmp/ccr19bkt.s:2901   .text:00000cd0 .Loc.546
     /tmp/ccr19bkt.s:2902   .text:00000cd0 .Loc.547
     /tmp/ccr19bkt.s:2903   .text:00000cd0 .Loc.548
     /tmp/ccr19bkt.s:2904   .text:00000cd0 .Loc.549
     /tmp/ccr19bkt.s:2905   .text:00000cd0 .Loc.550
     /tmp/ccr19bkt.s:2906   .text:00000cd0 .Loc.551
     /tmp/ccr19bkt.s:2917   .text:00000ce2 .Loc.552
     /tmp/ccr19bkt.s:2919   .text:00000ce4 .Loc.553
     /tmp/ccr19bkt.s:2922   .text:00000ce8 .Loc.554
     /tmp/ccr19bkt.s:2930   .text:00000cf6 .Loc.555
     /tmp/ccr19bkt.s:2934   .text:00000cfa .Loc.556
     /tmp/ccr19bkt.s:2938   .text:00000cfc .Loc.557
     /tmp/ccr19bkt.s:2941   .text:00000cfc .Loc.558
     /tmp/ccr19bkt.s:2942   .text:00000cfc .Loc.559
     /tmp/ccr19bkt.s:2943   .text:00000cfc .Loc.560
     /tmp/ccr19bkt.s:2944   .text:00000cfc .Loc.561
     /tmp/ccr19bkt.s:2945   .text:00000cfc .Loc.562
     /tmp/ccr19bkt.s:2956   .text:00000d0e .Loc.563
     /tmp/ccr19bkt.s:2960   .text:00000d12 .Loc.564
     /tmp/ccr19bkt.s:2961   .text:00000d12 .Loc.565
     /tmp/ccr19bkt.s:2972   .text:00000d24 .Loc.566
     /tmp/ccr19bkt.s:2976   .text:00000d28 .Loc.567
     /tmp/ccr19bkt.s:2977   .text:00000d28 .Loc.568
     /tmp/ccr19bkt.s:2988   .text:00000d3a .Loc.569
     /tmp/ccr19bkt.s:2992   .text:00000d3e .Loc.570
     /tmp/ccr19bkt.s:2993   .text:00000d3e .Loc.571
     /tmp/ccr19bkt.s:2996   .text:00000d3e .Loc.572
     /tmp/ccr19bkt.s:2998   .text:00000d3e .Loc.573
     /tmp/ccr19bkt.s:2999   .text:00000d3e .Loc.574
     /tmp/ccr19bkt.s:3002   .text:00000d3e .Loc.575
     /tmp/ccr19bkt.s:3014   .text:00000d50 .Loc.576
     /tmp/ccr19bkt.s:3019   .text:00000d58 .Loc.577
     /tmp/ccr19bkt.s:3028   .text:00000d68 .Loc.578
     /tmp/ccr19bkt.s:3033   .text:00000d70 .Loc.579
     /tmp/ccr19bkt.s:3043   .text:00000d7e .Loc.580
     /tmp/ccr19bkt.s:3048   .text:00000d86 .Loc.581
     /tmp/ccr19bkt.s:3053   .text:00000d8e .Loc.582
     /tmp/ccr19bkt.s:3060   .text:00000d98 .Loc.583
     /tmp/ccr19bkt.s:3069   .text:00000da4 .Loc.584
     /tmp/ccr19bkt.s:3072   .text:00000da8 .Loc.585
     /tmp/ccr19bkt.s:3077   .text:00000dae .Loc.586
     /tmp/ccr19bkt.s:3080   .text:00000dae .Loc.587
     /tmp/ccr19bkt.s:3082   .text:00000db2 L0
     /tmp/ccr19bkt.s:3084   .text:00000db6 L0
     /tmp/ccr19bkt.s:3087   .text:00000dbc L0
     /tmp/ccr19bkt.s:3090   .text:00000dc2 L0
     /tmp/ccr19bkt.s:3094   .text:00000dc8 .Loc.588
     /tmp/ccr19bkt.s:3095   .text:00000dc8 .Loc.589
     /tmp/ccr19bkt.s:3098   .text:00000dc8 .Loc.590
     /tmp/ccr19bkt.s:3108   .text:00000dd6 .Loc.591
     /tmp/ccr19bkt.s:3111   .text:00000dd8 .Loc.592
     /tmp/ccr19bkt.s:3114   .text:00000dda .Loc.593
     /tmp/ccr19bkt.s:3121   .text:00000de6 .Loc.594
     /tmp/ccr19bkt.s:3130   .text:00000df4 .Loc.595
     /tmp/ccr19bkt.s:3133   .text:00000df8 .Loc.596
     /tmp/ccr19bkt.s:3147   .text:00000e14 L0
     /tmp/ccr19bkt.s:3150   .text:00000e16 .Loc.597
     /tmp/ccr19bkt.s:3151   .text:00000e16 .Loc.598
     /tmp/ccr19bkt.s:3158   .text:00000e22 .Loc.599
     /tmp/ccr19bkt.s:3161   .text:00000e22 .Loc.600
     /tmp/ccr19bkt.s:3170   .text:00000e2c .Loc.601
     /tmp/ccr19bkt.s:3171   .text:00000e2c .Loc.602
     /tmp/ccr19bkt.s:3172   .text:00000e2c .Loc.603
     /tmp/ccr19bkt.s:3175   .text:00000e34 L0
     /tmp/ccr19bkt.s:3177   .text:00000e36 .Loc.604
     /tmp/ccr19bkt.s:3181   .text:00000e38 .Loc.605
     /tmp/ccr19bkt.s:3196   .text:00000e50 L0
     /tmp/ccr19bkt.s:3199   .text:00000e52 .Loc.606
     /tmp/ccr19bkt.s:3200   .text:00000e52 .Loc.607
     /tmp/ccr19bkt.s:3201   .text:00000e52 .Loc.608
     /tmp/ccr19bkt.s:3210   .text:00000e62 .Loc.609
     /tmp/ccr19bkt.s:3213   .text:00000e64 .Loc.610
     /tmp/ccr19bkt.s:3221   .text:00000e72 .Loc.611
     /tmp/ccr19bkt.s:3235   .text:00000e8e L0
     /tmp/ccr19bkt.s:3240   .text:00000e92 .Loc.612
     /tmp/ccr19bkt.s:3241   .text:00000e92 .Loc.613
     /tmp/ccr19bkt.s:3244   .text:00000e92 .Loc.614
     /tmp/ccr19bkt.s:3254   .text:00000ea0 .Loc.615
     /tmp/ccr19bkt.s:3257   .text:00000ea2 .Loc.616
     /tmp/ccr19bkt.s:3260   .text:00000ea4 .Loc.617
     /tmp/ccr19bkt.s:3267   .text:00000eb0 .Loc.618
     /tmp/ccr19bkt.s:3277   .text:00000ec2 .Loc.619
     /tmp/ccr19bkt.s:3291   .text:00000ede L0
     /tmp/ccr19bkt.s:3296   .text:00000ee2 .Loc.620
     /tmp/ccr19bkt.s:3297   .text:00000ee2 .Loc.621
     /tmp/ccr19bkt.s:3300   .text:00000ee2 .Loc.622
     /tmp/ccr19bkt.s:3310   .text:00000ef0 .Loc.623
     /tmp/ccr19bkt.s:3313   .text:00000ef2 .Loc.624
     /tmp/ccr19bkt.s:3316   .text:00000ef4 .Loc.625
     /tmp/ccr19bkt.s:3323   .text:00000f00 .Loc.626
     /tmp/ccr19bkt.s:3333   .text:00000f12 .Loc.627
     /tmp/ccr19bkt.s:3347   .text:00000f2e L0
     /tmp/ccr19bkt.s:3352   .text:00000f32 .Loc.628
     /tmp/ccr19bkt.s:3353   .text:00000f32 .Loc.629
     /tmp/ccr19bkt.s:3356   .text:00000f32 .Loc.630
     /tmp/ccr19bkt.s:3366   .text:00000f40 .Loc.631
     /tmp/ccr19bkt.s:3369   .text:00000f42 .Loc.632
     /tmp/ccr19bkt.s:3372   .text:00000f44 .Loc.633
     /tmp/ccr19bkt.s:3379   .text:00000f50 .Loc.634
     /tmp/ccr19bkt.s:3388   .text:00000f5e .Loc.635
     /tmp/ccr19bkt.s:3391   .text:00000f62 .Loc.636
     /tmp/ccr19bkt.s:3405   .text:00000f7e L0
     /tmp/ccr19bkt.s:3410   .text:00000f82 .Loc.637
     /tmp/ccr19bkt.s:3411   .text:00000f82 .Loc.638
     /tmp/ccr19bkt.s:3412   .text:00000f82 .Loc.639
     /tmp/ccr19bkt.s:3415   .text:00000f84 .Loc.640
     /tmp/ccr19bkt.s:3421   .text:00000f8c .Loc.641
     /tmp/ccr19bkt.s:3424   .text:00000f90 .Loc.642
     /tmp/ccr19bkt.s:3427   .text:00000f92 .Loc.643
     /tmp/ccr19bkt.s:3435   .text:00000fa0 .Loc.644
     /tmp/ccr19bkt.s:3448   .text:00000fba L0
     /tmp/ccr19bkt.s:3453   .text:00000fbe .Loc.645
     /tmp/ccr19bkt.s:3456   .text:00000fbe .Loc.646
     /tmp/ccr19bkt.s:3457   .text:00000fbe .Loc.647
     /tmp/ccr19bkt.s:3458   .text:00000fbe .Loc.648
     /tmp/ccr19bkt.s:3459   .text:00000fbe .Loc.649
     /tmp/ccr19bkt.s:3460   .text:00000fbe .Loc.650
     /tmp/ccr19bkt.s:3461   .text:00000fbe .Loc.651
     /tmp/ccr19bkt.s:3464   .text:00000fbe .Loc.652
     /tmp/ccr19bkt.s:3466   .text:00000fbe .Loc.653
     /tmp/ccr19bkt.s:3467   .text:00000fbe .Loc.654
     /tmp/ccr19bkt.s:3468   .text:00000fbe .Loc.655
     /tmp/ccr19bkt.s:3471   .text:00000fbe .Loc.656
     /tmp/ccr19bkt.s:3472   .text:00000fbe .Loc.657
     /tmp/ccr19bkt.s:3473   .text:00000fbe .Loc.658
     /tmp/ccr19bkt.s:3480   .text:00000fc8 .Loc.659
     /tmp/ccr19bkt.s:3491   .text:00000fda .Loc.660
     /tmp/ccr19bkt.s:3493   .text:00000fdc .Loc.661
     /tmp/ccr19bkt.s:3496   .text:00000fe0 .Loc.662
     /tmp/ccr19bkt.s:3504   .text:00000fee .Loc.663
     /tmp/ccr19bkt.s:3511   .text:00000ffa .Loc.664
     /tmp/ccr19bkt.s:3516   .text:00001002 .Loc.665
     /tmp/ccr19bkt.s:3517   .text:00001002 .Loc.666
     /tmp/ccr19bkt.s:3529   .text:00001014 .Loc.667
     /tmp/ccr19bkt.s:3535   .text:0000101c .Loc.668
     /tmp/ccr19bkt.s:3547   .text:0000102e .Loc.669
     /tmp/ccr19bkt.s:3554   .text:00001038 .Loc.670
     /tmp/ccr19bkt.s:3560   .text:00001040 .Loc.671
     /tmp/ccr19bkt.s:3570   .text:00001050 .Loc.672
     /tmp/ccr19bkt.s:3576   .text:00001058 .Loc.673
     /tmp/ccr19bkt.s:3586   .text:00001066 .Loc.674
     /tmp/ccr19bkt.s:3592   .text:0000106e .Loc.675
     /tmp/ccr19bkt.s:3599   .text:00001076 .Loc.676
     /tmp/ccr19bkt.s:3604   .text:0000107a .Loc.677
     /tmp/ccr19bkt.s:3610   .text:00001084 .Loc.678
     /tmp/ccr19bkt.s:3612   .text:00001084 .Loc.679
     /tmp/ccr19bkt.s:3616   .text:00001086 .Loc.680
     /tmp/ccr19bkt.s:3619   .text:00001086 .Loc.681
     /tmp/ccr19bkt.s:3620   .text:00001086 .Loc.682
     /tmp/ccr19bkt.s:3621   .text:00001086 .Loc.683
     /tmp/ccr19bkt.s:3622   .text:00001086 .Loc.684
     /tmp/ccr19bkt.s:3623   .text:00001086 .Loc.685
     /tmp/ccr19bkt.s:3624   .text:00001086 .Loc.686
     /tmp/ccr19bkt.s:3625   .text:00001086 .Loc.687
     /tmp/ccr19bkt.s:3628   .text:00001086 .Loc.688
     /tmp/ccr19bkt.s:3630   .text:00001086 .Loc.689
     /tmp/ccr19bkt.s:3631   .text:00001086 .Loc.690
     /tmp/ccr19bkt.s:3632   .text:00001086 .Loc.691
     /tmp/ccr19bkt.s:3635   .text:00001086 .Loc.692
     /tmp/ccr19bkt.s:3636   .text:00001086 .Loc.693
     /tmp/ccr19bkt.s:3637   .text:00001086 .Loc.694
     /tmp/ccr19bkt.s:3648   .text:00001098 .Loc.695
     /tmp/ccr19bkt.s:3650   .text:0000109a .Loc.696
     /tmp/ccr19bkt.s:3653   .text:0000109e .Loc.697
     /tmp/ccr19bkt.s:3662   .text:000010ae .Loc.698
     /tmp/ccr19bkt.s:3672   .text:000010c0 .Loc.699
     /tmp/ccr19bkt.s:3678   .text:000010ca .Loc.700
     /tmp/ccr19bkt.s:3679   .text:000010ca .Loc.701
     /tmp/ccr19bkt.s:3690   .text:000010dc .Loc.702
     /tmp/ccr19bkt.s:3695   .text:000010de .Loc.703
     /tmp/ccr19bkt.s:3699   .text:000010e2 .Loc.704
     /tmp/ccr19bkt.s:3704   .text:000010e8 .Loc.705
     /tmp/ccr19bkt.s:3707   .text:000010e8 .Loc.706
     /tmp/ccr19bkt.s:3717   .text:000010f6 .Loc.707
     /tmp/ccr19bkt.s:3719   .text:000010f8 .Loc.708
     /tmp/ccr19bkt.s:3729   .text:0000110a .Loc.709
     /tmp/ccr19bkt.s:3738   .text:0000111a .Loc.710
     /tmp/ccr19bkt.s:3740   .text:0000111a .Loc.711
     /tmp/ccr19bkt.s:3745   .text:0000111c L0
     /tmp/ccr19bkt.s:3750   .text:0000111c kernel_init
     /tmp/ccr19bkt.s:3752   .text:0000111c .Loc.712
     /tmp/ccr19bkt.s:3753   .text:0000111c L0
     /tmp/ccr19bkt.s:3773   .text:00001126 .Loc.713
     /tmp/ccr19bkt.s:3774   .text:00001126 .Loc.714
     /tmp/ccr19bkt.s:3779   .text:0000112e .Loc.715
                             .bss:00000000 _memory_size
     /tmp/ccr19bkt.s:3784   .text:0000113e .Loc.716
     /tmp/ccr19bkt.s:3796   .text:00001152 .Loc.717
     /tmp/ccr19bkt.s:3803   .text:0000115e L0
     /tmp/ccr19bkt.s:3808   .text:0000115e os_update
     /tmp/ccr19bkt.s:3810   .text:0000115e .Loc.718
     /tmp/ccr19bkt.s:3811   .text:0000115e L0
     /tmp/ccr19bkt.s:3831   .text:00001168 .Loc.719
     /tmp/ccr19bkt.s:3832   .text:00001168 .Loc.720
     /tmp/ccr19bkt.s:3838   .text:00001178 .Loc.721
     /tmp/ccr19bkt.s:3839   .text:00001178 .Loc.722
     /tmp/ccr19bkt.s:3845   .text:00001182 .Loc.723
     /tmp/ccr19bkt.s:3859   .text:000011a0 .Loc.724
     /tmp/ccr19bkt.s:3866   .text:000011ac L0
     /tmp/ccr19bkt.s:3871   .text:000011ac keyboard_event
     /tmp/ccr19bkt.s:3874   .text:000011ac .Loc.725
     /tmp/ccr19bkt.s:3875   .text:000011ac L0
     /tmp/ccr19bkt.s:3876   .text:000011ac .Loc.726
     /tmp/ccr19bkt.s:3931   .text:000011dc .Loc.727
     /tmp/ccr19bkt.s:3932   .text:000011dc .Loc.728
     /tmp/ccr19bkt.s:3938   .text:000011ec .Loc.729
     /tmp/ccr19bkt.s:3939   .text:000011ec .Loc.730
     /tmp/ccr19bkt.s:3946   .text:000011f6 .Loc.731
     /tmp/ccr19bkt.s:3947   .text:000011f6 .Loc.732
     /tmp/ccr19bkt.s:3964   .text:00001216 .Loc.733
     /tmp/ccr19bkt.s:3971   .text:00001228 .Loc.734
     /tmp/ccr19bkt.s:3974   .text:0000122a .Loc.735
     /tmp/ccr19bkt.s:3982   .text:00001236 .Loc.736
     /tmp/ccr19bkt.s:3984   .text:00001236 .Loc.737
     /tmp/ccr19bkt.s:3988   .text:00001236 .Loc.738
     /tmp/ccr19bkt.s:3990   .text:00001236 .Loc.739
     /tmp/ccr19bkt.s:3991   .text:00001236 .Loc.740
     /tmp/ccr19bkt.s:3995   .text:0000123a .Loc.741
     /tmp/ccr19bkt.s:3998   .text:0000123a .Loc.742
     /tmp/ccr19bkt.s:3999   .text:0000123a .Loc.743
     /tmp/ccr19bkt.s:4007   .text:00001248 .Loc.744
     /tmp/ccr19bkt.s:4008   .text:00001248 .Loc.745
     /tmp/ccr19bkt.s:4020   .text:00001258 .Loc.746
     /tmp/ccr19bkt.s:4031   .text:0000126a .Loc.747
     /tmp/ccr19bkt.s:4042   .text:0000127c .Loc.748
     /tmp/ccr19bkt.s:4044   .text:0000127e L0
     /tmp/ccr19bkt.s:4082   .text:0000127e L0
                     .debug_frame:00000000 L0
     /tmp/ccr19bkt.s:111    .text:00000048 .L4
     /tmp/ccr19bkt.s:194    .text:000000a0 .L7
     /tmp/ccr19bkt.s:179    .text:0000008a .L5
     /tmp/ccr19bkt.s:430    .text:0000019a .L13
     /tmp/ccr19bkt.s:447    .text:000001b4 .L12
     /tmp/ccr19bkt.s:394    .text:00000162 .L11
     /tmp/ccr19bkt.s:1183   .text:000004e6 .L16
     /tmp/ccr19bkt.s:869    .text:00000396 .L11
     /tmp/ccr19bkt.s:894    .jumptables.gcc.emulator_call:00000000 .L20
     /tmp/ccr19bkt.s:3160   .text:00000e22 .L82
     /tmp/ccr19bkt.s:1007   .text:00000414 .L12
     /tmp/ccr19bkt.s:1024   .text:0000042c .L13
     /tmp/ccr19bkt.s:1040   .text:00000442 .L14
     /tmp/ccr19bkt.s:1062   .text:00000452 .L15
     /tmp/ccr19bkt.s:1280   .text:00000560 .L32
     /tmp/ccr19bkt.s:1174   .text:000004da .L33
     /tmp/ccr19bkt.s:1220   .text:00000518 .L84
     /tmp/ccr19bkt.s:976    .text:000003fc .L31
     /tmp/ccr19bkt.s:1348   .text:000005ac .L36
     /tmp/ccr19bkt.s:1408   .text:000005f4 .L37
     /tmp/ccr19bkt.s:1150   .text:000004c0 .L86
     /tmp/ccr19bkt.s:1156   .text:000004c2 .L88
     /tmp/ccr19bkt.s:1339   .text:000005a6 .L100
     /tmp/ccr19bkt.s:1402   .text:000005ee .L101
     /tmp/ccr19bkt.s:1482   .text:0000063e .L16
     /tmp/ccr19bkt.s:1497   .text:00000650 .L17
     /tmp/ccr19bkt.s:1529   .text:0000067e .L18
     /tmp/ccr19bkt.s:1545   .text:00000696 .L19
     /tmp/ccr19bkt.s:1576   .text:000006bc .L38
     /tmp/ccr19bkt.s:1567   .jumptables.gcc.emulator_call:0000003a .L40
     /tmp/ccr19bkt.s:1652   .text:00000706 .L21
     /tmp/ccr19bkt.s:1647   .text:000006fe .L110
     /tmp/ccr19bkt.s:1165   .text:000004d0 .L87
     /tmp/ccr19bkt.s:1748   .text:00000764 .L102
     /tmp/ccr19bkt.s:1618   .text:000006dc .L89
     /tmp/ccr19bkt.s:1811   .text:00000790 .L111
     /tmp/ccr19bkt.s:1853   .text:000007ca .L49
     /tmp/ccr19bkt.s:1849   .text:000007c4 .L22
     /tmp/ccr19bkt.s:1844   .text:000007bc .L112
     /tmp/ccr19bkt.s:1656   .text:0000070a .L90
     /tmp/ccr19bkt.s:1865   .text:000007d4 .L23
     /tmp/ccr19bkt.s:1860   .text:000007cc .L113
     /tmp/ccr19bkt.s:1972   .text:00000824 .L114
     /tmp/ccr19bkt.s:2029   .text:0000086a .L115
     /tmp/ccr19bkt.s:2045   .text:00000880 .L116
     /tmp/ccr19bkt.s:2061   .text:00000896 .L117
     /tmp/ccr19bkt.s:2084   .text:000008a8 .L118
     /tmp/ccr19bkt.s:2207   .text:0000093e .L50
     /tmp/ccr19bkt.s:2294   .text:00000998 .L51
     /tmp/ccr19bkt.s:2280   .text:00000992 .L94
     /tmp/ccr19bkt.s:2194   .text:00000938 .L93
     /tmp/ccr19bkt.s:2370   .text:000009f8 .L119
     /tmp/ccr19bkt.s:2391   .text:00000a10 .L120
     /tmp/ccr19bkt.s:2404   .text:00000a22 .L121
     /tmp/ccr19bkt.s:2441   .text:00000a5a .L122
     /tmp/ccr19bkt.s:2472   .text:00000a86 .L123
     /tmp/ccr19bkt.s:2647   .text:00000b74 .L52
     /tmp/ccr19bkt.s:2526   .text:00000ace .L53
     /tmp/ccr19bkt.s:2517   .jumptables.gcc.emulator_call:00000048 .L55
     /tmp/ccr19bkt.s:2561   .text:00000b00 .L91
     /tmp/ccr19bkt.s:2545   .text:00000aec .L92
     /tmp/ccr19bkt.s:2666   .text:00000b82 .L62
     /tmp/ccr19bkt.s:2657   .jumptables.gcc.emulator_call:00000056 .L64
     /tmp/ccr19bkt.s:2692   .text:00000ba6 .L71
     /tmp/ccr19bkt.s:2727   .text:00000bd6 .L24
     /tmp/ccr19bkt.s:2722   .text:00000bce .L124
     /tmp/ccr19bkt.s:1711   .text:0000073c .L103
     /tmp/ccr19bkt.s:2839   .text:00000c80 .L74
     /tmp/ccr19bkt.s:2835   .text:00000c7a .L25
     /tmp/ccr19bkt.s:2830   .text:00000c72 .L125
     /tmp/ccr19bkt.s:2849   .text:00000c8a .L26
     /tmp/ccr19bkt.s:2844   .text:00000c82 .L126
     /tmp/ccr19bkt.s:2910   .text:00000cd6 .L127
     /tmp/ccr19bkt.s:2949   .text:00000d02 .L128
     /tmp/ccr19bkt.s:2965   .text:00000d18 .L129
     /tmp/ccr19bkt.s:2981   .text:00000d2e .L130
     /tmp/ccr19bkt.s:3006   .text:00000d44 .L131
     /tmp/ccr19bkt.s:3035   .text:00000d72 .L132
     /tmp/ccr19bkt.s:3351   .text:00000f32 .L75
     /tmp/ccr19bkt.s:3180   .text:00000e38 .L76
     /tmp/ccr19bkt.s:3239   .text:00000e92 .L77
     /tmp/ccr19bkt.s:3295   .text:00000ee2 .L78
     /tmp/ccr19bkt.s:787    .text:0000033c .L83
     /tmp/ccr19bkt.s:3409   .text:00000f82 .L85
     /tmp/ccr19bkt.s:3149   .text:00000e16 .L99
     /tmp/ccr19bkt.s:3484   .text:00000fce .L133
     /tmp/ccr19bkt.s:3521   .text:00001008 .L134
     /tmp/ccr19bkt.s:3539   .text:00001022 .L135
     /tmp/ccr19bkt.s:3578   .text:0000105a .L136
     /tmp/ccr19bkt.s:3641   .text:0000108c .L137
     /tmp/ccr19bkt.s:3683   .text:000010d0 .L138
     /tmp/ccr19bkt.s:3709   .text:000010ea .L139
     /tmp/ccr19bkt.s:3857   .text:000011a0 .L105
     /tmp/ccr19bkt.s:3981   .text:00001236 .L111
     /tmp/ccr19bkt.s:4018   .text:00001258 .L110
     /tmp/ccr19bkt.s:4016   .text:00001256 .L113
     /tmp/ccr19bkt.s:995    .text:0000040e .L29
     /tmp/ccr19bkt.s:1466   .text:00000638 .L28
     /tmp/ccr19bkt.s:1958   .text:0000081e .L27
     /tmp/ccr19bkt.s:2015   .text:00000864 .L26
     /tmp/ccr19bkt.s:2357   .text:000009f2 .L25
     /tmp/ccr19bkt.s:2896   .text:00000cd0 .L24
     /tmp/ccr19bkt.s:2937   .text:00000cfc .L23
     /tmp/ccr19bkt.s:3615   .text:00001086 .L22
     /tmp/ccr19bkt.s:3452   .text:00000fbe .L21
     /tmp/ccr19bkt.s:925    .text:000003c0 .L19
     /tmp/ccr19bkt.s:1627   .text:000006e6 .L46
     /tmp/ccr19bkt.s:1664   .text:00000714 .L45
     /tmp/ccr19bkt.s:1720   .text:00000742 .L44
     /tmp/ccr19bkt.s:1758   .text:0000076c .L43
     /tmp/ccr19bkt.s:1807   .text:0000078e .L42
     /tmp/ccr19bkt.s:1870   .text:000007da .L41
     /tmp/ccr19bkt.s:1914   .text:000007fc .L39
     /tmp/ccr19bkt.s:2553   .text:00000af6 .L61
     /tmp/ccr19bkt.s:2575   .text:00000b16 .L60
     /tmp/ccr19bkt.s:2591   .text:00000b2c .L59
     /tmp/ccr19bkt.s:2600   .text:00000b38 .L58
     /tmp/ccr19bkt.s:2613   .text:00000b48 .L57
     /tmp/ccr19bkt.s:2627   .text:00000b5a .L56
     /tmp/ccr19bkt.s:2634   .text:00000b62 .L54
     /tmp/ccr19bkt.s:2701   .text:00000bb0 .L70
     /tmp/ccr19bkt.s:2731   .text:00000bdc .L69
     /tmp/ccr19bkt.s:2756   .text:00000c04 .L68
     /tmp/ccr19bkt.s:2783   .text:00000c30 .L67
     /tmp/ccr19bkt.s:2804   .text:00000c50 .L66
     /tmp/ccr19bkt.s:2853   .text:00000c90 .L65
     /tmp/ccr19bkt.s:2874   .text:00000cb0 .L63
     /tmp/ccr19bkt.s:7346   .debug_abbrev:00000000 .Ldebug_abbrev0
     /tmp/ccr19bkt.s:8      .text:00000000 .Ltext0
     /tmp/ccr19bkt.s:4074   .text:0000127e .Letext0
     /tmp/ccr19bkt.s:14636  .debug_line:00000000 .Ldebug_line0
     /tmp/ccr19bkt.s:657    .text:000002be .LFB31
     /tmp/ccr19bkt.s:3746   .text:0000111c .LFE31
     /tmp/ccr19bkt.s:8412   .debug_loclists:00000016 .LLST14
     /tmp/ccr19bkt.s:8401   .debug_loclists:0000000c .LVUS14
     /tmp/ccr19bkt.s:8468   .debug_loclists:00000056 .LLST15
     /tmp/ccr19bkt.s:8459   .debug_loclists:0000004e .LVUS15
     /tmp/ccr19bkt.s:8511   .debug_loclists:00000087 .LLST16
     /tmp/ccr19bkt.s:8506   .debug_loclists:00000083 .LVUS16
     /tmp/ccr19bkt.s:8536   .debug_loclists:000000a2 .LLST17
     /tmp/ccr19bkt.s:8531   .debug_loclists:0000009e .LVUS17
     /tmp/ccr19bkt.s:8558   .debug_loclists:000000ba .LLST18
     /tmp/ccr19bkt.s:8551   .debug_loclists:000000b4 .LVUS18
     /tmp/ccr19bkt.s:8594   .debug_loclists:000000e2 .LLST19
     /tmp/ccr19bkt.s:8591   .debug_loclists:000000e0 .LVUS19
     /tmp/ccr19bkt.s:796    .text:0000033c .LBI85
     /tmp/ccr19bkt.s:14375  .debug_rnglists:0000000c .LLRL20
     /tmp/ccr19bkt.s:8613   .debug_loclists:000000f5 .LLST21
     /tmp/ccr19bkt.s:8602   .debug_loclists:000000eb .LVUS21
     /tmp/ccr19bkt.s:8746   .debug_loclists:00000182 .LLST22
     /tmp/ccr19bkt.s:8665   .debug_loclists:00000132 .LVUS22
     /tmp/ccr19bkt.s:9239   .debug_loclists:000003bd .LLST23
     /tmp/ccr19bkt.s:9148   .debug_loclists:00000363 .LVUS23
     /tmp/ccr19bkt.s:802    .text:0000033c .LBI87
     /tmp/ccr19bkt.s:14389  .debug_rnglists:00000021 .LLRL24
     /tmp/ccr19bkt.s:9806   .debug_loclists:0000064c .LLST25
     /tmp/ccr19bkt.s:9801   .debug_loclists:00000648 .LVUS25
     /tmp/ccr19bkt.s:826    .text:00000364 .LVL42
     /tmp/ccr19bkt.s:937    .text:000003ce .LBI91
     /tmp/ccr19bkt.s:936    .text:000003ce .LBB91
     /tmp/ccr19bkt.s:979    .text:000003fc .LBE91
     /tmp/ccr19bkt.s:9823   .debug_loclists:0000065f .LLST26
     /tmp/ccr19bkt.s:9820   .debug_loclists:0000065d .LVUS26
     /tmp/ccr19bkt.s:9842   .debug_loclists:00000672 .LLST27
     /tmp/ccr19bkt.s:9835   .debug_loclists:0000066c .LVUS27
     /tmp/ccr19bkt.s:965    .text:000003ee .LVL50
     /tmp/ccr19bkt.s:14397  .debug_rnglists:0000002c .LLRL28
     /tmp/ccr19bkt.s:9885   .debug_loclists:000006a2 .LLST29
     /tmp/ccr19bkt.s:9872   .debug_loclists:00000696 .LVUS29
     /tmp/ccr19bkt.s:10002  .debug_loclists:00000721 .LLST30
     /tmp/ccr19bkt.s:9983   .debug_loclists:0000070f .LVUS30
     /tmp/ccr19bkt.s:10106  .debug_loclists:000007a6 .LLST31
     /tmp/ccr19bkt.s:10099  .debug_loclists:000007a0 .LVUS31
     /tmp/ccr19bkt.s:10138  .debug_loclists:000007ca .LLST32
     /tmp/ccr19bkt.s:10123  .debug_loclists:000007bc .LVUS32
     /tmp/ccr19bkt.s:10236  .debug_loclists:00000838 .LLST33
     /tmp/ccr19bkt.s:10223  .debug_loclists:0000082c .LVUS33
     /tmp/ccr19bkt.s:1053   .text:00000450 .LBI94
     /tmp/ccr19bkt.s:14411  .debug_rnglists:00000041 .LLRL34
     /tmp/ccr19bkt.s:10275  .debug_loclists:00000869 .LLST35
     /tmp/ccr19bkt.s:10268  .debug_loclists:00000863 .LVUS35
     /tmp/ccr19bkt.s:10315  .debug_loclists:00000896 .LLST36
     /tmp/ccr19bkt.s:10312  .debug_loclists:00000894 .LVUS36
     /tmp/ccr19bkt.s:10326  .debug_loclists:000008a1 .LLST37
     /tmp/ccr19bkt.s:10323  .debug_loclists:0000089f .LVUS37
     /tmp/ccr19bkt.s:1098   .text:0000047a .LBI98
     /tmp/ccr19bkt.s:14419  .debug_rnglists:0000004c .LLRL38
     /tmp/ccr19bkt.s:10338  .debug_loclists:000008ae .LLST39
     /tmp/ccr19bkt.s:10335  .debug_loclists:000008ac .LVUS39
     /tmp/ccr19bkt.s:1140   .text:000004b4 .LVL63
     /tmp/ccr19bkt.s:1227   .text:00000518 .LBI102
     /tmp/ccr19bkt.s:14427  .debug_rnglists:00000057 .LLRL40
     /tmp/ccr19bkt.s:10369  .debug_loclists:000008cd .LLST41
     /tmp/ccr19bkt.s:10366  .debug_loclists:000008cb .LVUS41
     /tmp/ccr19bkt.s:1269   .text:00000552 .LVL72
     /tmp/ccr19bkt.s:1287   .text:00000560 .LBI106
     /tmp/ccr19bkt.s:14435  .debug_rnglists:00000062 .LLRL42
     /tmp/ccr19bkt.s:10400  .debug_loclists:000008ec .LLST43
     /tmp/ccr19bkt.s:10397  .debug_loclists:000008ea .LVUS43
     /tmp/ccr19bkt.s:1331   .text:0000059e .LVL75
     /tmp/ccr19bkt.s:1352   .text:000005ac .LBI110
     /tmp/ccr19bkt.s:14443  .debug_rnglists:0000006d .LLRL44
     /tmp/ccr19bkt.s:10431  .debug_loclists:0000090b .LLST45
     /tmp/ccr19bkt.s:10428  .debug_loclists:00000909 .LVUS45
     /tmp/ccr19bkt.s:1396   .text:000005ea .LVL79
     /tmp/ccr19bkt.s:1415   .text:000005f4 .LBI114
     /tmp/ccr19bkt.s:14451  .debug_rnglists:00000078 .LLRL46
     /tmp/ccr19bkt.s:10462  .debug_loclists:0000092a .LLST47
     /tmp/ccr19bkt.s:10459  .debug_loclists:00000928 .LVUS47
     /tmp/ccr19bkt.s:1459   .text:00000632 .LVL83
     /tmp/ccr19bkt.s:14459  .debug_rnglists:00000083 .LLRL48
     /tmp/ccr19bkt.s:10519  .debug_loclists:00000963 .LLST49
     /tmp/ccr19bkt.s:10490  .debug_loclists:00000947 .LVUS49
     /tmp/ccr19bkt.s:10711  .debug_loclists:00000a3d .LLST50
     /tmp/ccr19bkt.s:10682  .debug_loclists:00000a21 .LVUS50
     /tmp/ccr19bkt.s:10903  .debug_loclists:00000b17 .LLST51
     /tmp/ccr19bkt.s:10874  .debug_loclists:00000afb .LVUS51
     /tmp/ccr19bkt.s:11127  .debug_loclists:00000c11 .LLST52
     /tmp/ccr19bkt.s:11066  .debug_loclists:00000bd5 .LVUS52
     /tmp/ccr19bkt.s:1580   .text:000006bc .LBI120
     /tmp/ccr19bkt.s:14473  .debug_rnglists:00000098 .LLRL53
     /tmp/ccr19bkt.s:11579  .debug_loclists:00000e29 .LLST54
     /tmp/ccr19bkt.s:11576  .debug_loclists:00000e27 .LVUS54
     /tmp/ccr19bkt.s:11600  .debug_loclists:00000e3e .LLST55
     /tmp/ccr19bkt.s:11597  .debug_loclists:00000e3c .LVUS55
     /tmp/ccr19bkt.s:11611  .debug_loclists:00000e49 .LLST56
     /tmp/ccr19bkt.s:11608  .debug_loclists:00000e47 .LVUS56
     /tmp/ccr19bkt.s:1667   .text:00000714 .LBI124
     /tmp/ccr19bkt.s:14481  .debug_rnglists:000000a3 .LLRL57
     /tmp/ccr19bkt.s:11623  .debug_loclists:00000e56 .LLST58
     /tmp/ccr19bkt.s:11620  .debug_loclists:00000e54 .LVUS58
     /tmp/ccr19bkt.s:11644  .debug_loclists:00000e6b .LLST59
     /tmp/ccr19bkt.s:11641  .debug_loclists:00000e69 .LVUS59
     /tmp/ccr19bkt.s:11655  .debug_loclists:00000e76 .LLST60
     /tmp/ccr19bkt.s:11652  .debug_loclists:00000e74 .LVUS60
     /tmp/ccr19bkt.s:1764   .text:0000076c .LBI128
     /tmp/ccr19bkt.s:14489  .debug_rnglists:000000ae .LLRL61
     /tmp/ccr19bkt.s:11667  .debug_loclists:00000e83 .LLST62
     /tmp/ccr19bkt.s:11664  .debug_loclists:00000e81 .LVUS62
     /tmp/ccr19bkt.s:11688  .debug_loclists:00000e98 .LLST63
     /tmp/ccr19bkt.s:11685  .debug_loclists:00000e96 .LVUS63
     /tmp/ccr19bkt.s:11699  .debug_loclists:00000ea3 .LLST64
     /tmp/ccr19bkt.s:11696  .debug_loclists:00000ea1 .LVUS64
     /tmp/ccr19bkt.s:1873   .text:000007da .LBI132
     /tmp/ccr19bkt.s:14497  .debug_rnglists:000000b9 .LLRL65
     /tmp/ccr19bkt.s:11711  .debug_loclists:00000eb0 .LLST66
     /tmp/ccr19bkt.s:11708  .debug_loclists:00000eae .LVUS66
     /tmp/ccr19bkt.s:11732  .debug_loclists:00000ec5 .LLST67
     /tmp/ccr19bkt.s:11729  .debug_loclists:00000ec3 .LVUS67
     /tmp/ccr19bkt.s:11743  .debug_loclists:00000ed0 .LLST68
     /tmp/ccr19bkt.s:11740  .debug_loclists:00000ece .LVUS68
     /tmp/ccr19bkt.s:1917   .text:000007fc .LBI136
     /tmp/ccr19bkt.s:14505  .debug_rnglists:000000c4 .LLRL69
     /tmp/ccr19bkt.s:11755  .debug_loclists:00000edd .LLST70
     /tmp/ccr19bkt.s:11752  .debug_loclists:00000edb .LVUS70
     /tmp/ccr19bkt.s:11776  .debug_loclists:00000ef2 .LLST71
     /tmp/ccr19bkt.s:11773  .debug_loclists:00000ef0 .LVUS71
     /tmp/ccr19bkt.s:11787  .debug_loclists:00000efd .LLST72
     /tmp/ccr19bkt.s:11784  .debug_loclists:00000efb .LVUS72
     /tmp/ccr19bkt.s:14513  .debug_rnglists:000000cf .LLRL73
     /tmp/ccr19bkt.s:11801  .debug_loclists:00000f0c .LLST74
     /tmp/ccr19bkt.s:11796  .debug_loclists:00000f08 .LVUS74
     /tmp/ccr19bkt.s:11831  .debug_loclists:00000f2c .LLST75
     /tmp/ccr19bkt.s:11826  .debug_loclists:00000f28 .LVUS75
     /tmp/ccr19bkt.s:11861  .debug_loclists:00000f4c .LLST76
     /tmp/ccr19bkt.s:11856  .debug_loclists:00000f48 .LVUS76
     /tmp/ccr19bkt.s:11889  .debug_loclists:00000f6a .LLST77
     /tmp/ccr19bkt.s:11886  .debug_loclists:00000f68 .LVUS77
     /tmp/ccr19bkt.s:14530  .debug_rnglists:000000e9 .LLRL78
     /tmp/ccr19bkt.s:11901  .debug_loclists:00000f76 .LLST79
     /tmp/ccr19bkt.s:11896  .debug_loclists:00000f72 .LVUS79
     /tmp/ccr19bkt.s:11931  .debug_loclists:00000f96 .LLST80
     /tmp/ccr19bkt.s:11926  .debug_loclists:00000f92 .LVUS80
     /tmp/ccr19bkt.s:14547  .debug_rnglists:00000103 .LLRL81
     /tmp/ccr19bkt.s:11959  .debug_loclists:00000fb4 .LLST82
     /tmp/ccr19bkt.s:11952  .debug_loclists:00000fae .LVUS82
     /tmp/ccr19bkt.s:12026  .debug_loclists:00000ffb .LLST83
     /tmp/ccr19bkt.s:12009  .debug_loclists:00000feb .LVUS83
     /tmp/ccr19bkt.s:12147  .debug_loclists:0000108c .LLST84
     /tmp/ccr19bkt.s:12140  .debug_loclists:00001086 .LVUS84
     /tmp/ccr19bkt.s:12171  .debug_loclists:000010a8 .LLST85
     /tmp/ccr19bkt.s:12164  .debug_loclists:000010a2 .LVUS85
     /tmp/ccr19bkt.s:12193  .debug_loclists:000010c2 .LLST86
     /tmp/ccr19bkt.s:12188  .debug_loclists:000010be .LVUS86
     /tmp/ccr19bkt.s:2075   .text:000008a6 .LBI148
     /tmp/ccr19bkt.s:14555  .debug_rnglists:0000010e .LLRL87
     /tmp/ccr19bkt.s:12216  .debug_loclists:000010db .LLST88
     /tmp/ccr19bkt.s:12205  .debug_loclists:000010d1 .LVUS88
     /tmp/ccr19bkt.s:12303  .debug_loclists:0000113e .LLST89
     /tmp/ccr19bkt.s:12300  .debug_loclists:0000113c .LVUS89
     /tmp/ccr19bkt.s:12314  .debug_loclists:00001149 .LLST90
     /tmp/ccr19bkt.s:12311  .debug_loclists:00001147 .LVUS90
     /tmp/ccr19bkt.s:2165   .text:0000091c .LBI152
     /tmp/ccr19bkt.s:14563  .debug_rnglists:00000119 .LLRL91
     /tmp/ccr19bkt.s:12326  .debug_loclists:00001156 .LLST92
     /tmp/ccr19bkt.s:12323  .debug_loclists:00001154 .LVUS92
     /tmp/ccr19bkt.s:12347  .debug_loclists:0000116b .LLST93
     /tmp/ccr19bkt.s:12344  .debug_loclists:00001169 .LVUS93
     /tmp/ccr19bkt.s:2345   .text:000009e8 .LBI156
     /tmp/ccr19bkt.s:14571  .debug_rnglists:00000124 .LLRL94
     /tmp/ccr19bkt.s:12368  .debug_loclists:00001180 .LLST95
     /tmp/ccr19bkt.s:12365  .debug_loclists:0000117e .LVUS95
     /tmp/ccr19bkt.s:2288   .text:00000996 .LVL146
     /tmp/ccr19bkt.s:2243   .text:0000096e .LBI160
     /tmp/ccr19bkt.s:14582  .debug_rnglists:00000134 .LLRL96
     /tmp/ccr19bkt.s:12389  .debug_loclists:00001195 .LLST97
     /tmp/ccr19bkt.s:12386  .debug_loclists:00001193 .LVUS97
     /tmp/ccr19bkt.s:12410  .debug_loclists:000011aa .LLST98
     /tmp/ccr19bkt.s:12407  .debug_loclists:000011a8 .LVUS98
     /tmp/ccr19bkt.s:2899   .text:00000cd0 .LBB171
     /tmp/ccr19bkt.s:2939   .text:00000cfc .LBE171
     /tmp/ccr19bkt.s:12433  .debug_loclists:000011c1 .LLST99
     /tmp/ccr19bkt.s:12428  .debug_loclists:000011bd .LVUS99
     /tmp/ccr19bkt.s:12463  .debug_loclists:000011e1 .LLST100
     /tmp/ccr19bkt.s:12458  .debug_loclists:000011dd .LVUS100
     /tmp/ccr19bkt.s:14590  .debug_rnglists:0000013f .LLRL101
     /tmp/ccr19bkt.s:12489  .debug_loclists:000011fd .LLST102
     /tmp/ccr19bkt.s:12484  .debug_loclists:000011f9 .LVUS102
     /tmp/ccr19bkt.s:12532  .debug_loclists:0000122a .LLST103
     /tmp/ccr19bkt.s:12523  .debug_loclists:00001222 .LVUS103
     /tmp/ccr19bkt.s:12681  .debug_loclists:000012cd .LLST104
     /tmp/ccr19bkt.s:12664  .debug_loclists:000012bd .LVUS104
     /tmp/ccr19bkt.s:12730  .debug_loclists:0000130c .LLST105
     /tmp/ccr19bkt.s:12723  .debug_loclists:00001306 .LVUS105
     /tmp/ccr19bkt.s:12758  .debug_loclists:0000132c .LLST106
     /tmp/ccr19bkt.s:12747  .debug_loclists:00001322 .LVUS106
     /tmp/ccr19bkt.s:2995   .text:00000d3e .LBI173
     /tmp/ccr19bkt.s:14610  .debug_rnglists:0000015e .LLRL107
     /tmp/ccr19bkt.s:12792  .debug_loclists:00001356 .LLST108
     /tmp/ccr19bkt.s:12785  .debug_loclists:00001350 .LVUS108
     /tmp/ccr19bkt.s:12891  .debug_loclists:000013c3 .LLST109
     /tmp/ccr19bkt.s:12888  .debug_loclists:000013c1 .LVUS109
     /tmp/ccr19bkt.s:12902  .debug_loclists:000013ce .LLST110
     /tmp/ccr19bkt.s:12899  .debug_loclists:000013cc .LVUS110
     /tmp/ccr19bkt.s:3455   .text:00000fbe .LBB186
     /tmp/ccr19bkt.s:3617   .text:00001086 .LBE186
     /tmp/ccr19bkt.s:12924  .debug_loclists:000013e5 .LLST111
     /tmp/ccr19bkt.s:12911  .debug_loclists:000013d9 .LVUS111
     /tmp/ccr19bkt.s:13164  .debug_loclists:000014e9 .LLST112
     /tmp/ccr19bkt.s:13151  .debug_loclists:000014dd .LVUS112
     /tmp/ccr19bkt.s:13393  .debug_loclists:000015e4 .LLST113
     /tmp/ccr19bkt.s:13388  .debug_loclists:000015e0 .LVUS113
     /tmp/ccr19bkt.s:3463   .text:00000fbe .LBI187
     /tmp/ccr19bkt.s:14618  .debug_rnglists:00000169 .LLRL114
     /tmp/ccr19bkt.s:13421  .debug_loclists:00001602 .LLST115
     /tmp/ccr19bkt.s:13418  .debug_loclists:00001600 .LVUS115
     /tmp/ccr19bkt.s:13463  .debug_loclists:0000162e .LLST116
     /tmp/ccr19bkt.s:13460  .debug_loclists:0000162c .LVUS116
     /tmp/ccr19bkt.s:13474  .debug_loclists:00001639 .LLST117
     /tmp/ccr19bkt.s:13471  .debug_loclists:00001637 .LVUS117
     /tmp/ccr19bkt.s:3618   .text:00001086 .LBB191
     /tmp/ccr19bkt.s:3742   .text:0000111c .LBE191
     /tmp/ccr19bkt.s:13489  .debug_loclists:00001648 .LLST118
     /tmp/ccr19bkt.s:13484  .debug_loclists:00001644 .LVUS118
     /tmp/ccr19bkt.s:13519  .debug_loclists:00001668 .LLST119
     /tmp/ccr19bkt.s:13514  .debug_loclists:00001664 .LVUS119
     /tmp/ccr19bkt.s:13549  .debug_loclists:00001688 .LLST120
     /tmp/ccr19bkt.s:13544  .debug_loclists:00001684 .LVUS120
     /tmp/ccr19bkt.s:13594  .debug_loclists:000016b9 .LLST121
     /tmp/ccr19bkt.s:13585  .debug_loclists:000016b1 .LVUS121
     /tmp/ccr19bkt.s:3627   .text:00001086 .LBI192
     /tmp/ccr19bkt.s:14626  .debug_rnglists:00000174 .LLRL122
     /tmp/ccr19bkt.s:13647  .debug_loclists:000016f7 .LLST123
     /tmp/ccr19bkt.s:13644  .debug_loclists:000016f5 .LVUS123
     /tmp/ccr19bkt.s:13664  .debug_loclists:00001708 .LLST124
     /tmp/ccr19bkt.s:13661  .debug_loclists:00001706 .LVUS124
     /tmp/ccr19bkt.s:13675  .debug_loclists:00001713 .LLST125
     /tmp/ccr19bkt.s:13672  .debug_loclists:00001711 .LVUS125
     /tmp/ccr19bkt.s:772    .text:00000330 .LVL40
     /tmp/ccr19bkt.s:528    .text:00000214 .LFB28
     /tmp/ccr19bkt.s:651    .text:000002be .LFE28
     /tmp/ccr19bkt.s:13691  .debug_loclists:00001724 .LLST13
     /tmp/ccr19bkt.s:13684  .debug_loclists:0000171e .LVUS13
     /tmp/ccr19bkt.s:621    .text:0000028e .LVL35
     /tmp/ccr19bkt.s:311    .text:00000116 .LFB27
     /tmp/ccr19bkt.s:505    .text:00000210 .LFE27
     /tmp/ccr19bkt.s:13728  .debug_loclists:0000174d .LLST8
     /tmp/ccr19bkt.s:13721  .debug_loclists:00001747 .LVUS8
     /tmp/ccr19bkt.s:13761  .debug_loclists:00001772 .LLST9
     /tmp/ccr19bkt.s:13758  .debug_loclists:00001770 .LVUS9
     /tmp/ccr19bkt.s:13778  .debug_loclists:00001783 .LLST10
     /tmp/ccr19bkt.s:13773  .debug_loclists:0000177f .LVUS10
     /tmp/ccr19bkt.s:13817  .debug_loclists:000017ac .LLST11
     /tmp/ccr19bkt.s:13812  .debug_loclists:000017a8 .LVUS11
     /tmp/ccr19bkt.s:464    .text:000001d2 .LVL27
     /tmp/ccr19bkt.s:471    .text:000001de .LVL28
     /tmp/ccr19bkt.s:125    .text:00000050 .LFB26
     /tmp/ccr19bkt.s:202    .text:000000aa .LFE26
     /tmp/ccr19bkt.s:13860  .debug_loclists:000017d9 .LLST4
     /tmp/ccr19bkt.s:13851  .debug_loclists:000017d1 .LVUS4
     /tmp/ccr19bkt.s:13909  .debug_loclists:0000180b .LLST5
     /tmp/ccr19bkt.s:13900  .debug_loclists:00001803 .LVUS5
     /tmp/ccr19bkt.s:510    .text:00000210 .LFB25
     /tmp/ccr19bkt.s:523    .text:00000214 .LFE25
     /tmp/ccr19bkt.s:13961  .debug_loclists:00001840 .LLST12
     /tmp/ccr19bkt.s:13956  .debug_loclists:0000183c .LVUS12
     /tmp/ccr19bkt.s:520    .text:00000214 .LVL32
     /tmp/ccr19bkt.s:225    .text:000000ae .LFB24
     /tmp/ccr19bkt.s:306    .text:00000116 .LFE24
     /tmp/ccr19bkt.s:13990  .debug_loclists:0000185f .LLST7
     /tmp/ccr19bkt.s:13981  .debug_loclists:00001857 .LVUS7
     /tmp/ccr19bkt.s:263    .text:000000d0 .LVL17
     /tmp/ccr19bkt.s:287    .text:000000fa .LVL19
     /tmp/ccr19bkt.s:207    .text:000000aa .LFB23
     /tmp/ccr19bkt.s:220    .text:000000ae .LFE23
     /tmp/ccr19bkt.s:14035  .debug_loclists:00001892 .LLST6
     /tmp/ccr19bkt.s:14030  .debug_loclists:0000188e .LVUS6
     /tmp/ccr19bkt.s:217    .text:000000ae .LVL14
     /tmp/ccr19bkt.s:63     .text:00000016 .LFB22
     /tmp/ccr19bkt.s:120    .text:00000050 .LFE22
     /tmp/ccr19bkt.s:14062  .debug_loclists:000018af .LLST1
     /tmp/ccr19bkt.s:14055  .debug_loclists:000018a9 .LVUS1
     /tmp/ccr19bkt.s:14099  .debug_loclists:000018d2 .LLST2
     /tmp/ccr19bkt.s:14092  .debug_loclists:000018cc .LVUS2
     /tmp/ccr19bkt.s:14135  .debug_loclists:000018f4 .LLST3
     /tmp/ccr19bkt.s:14130  .debug_loclists:000018f0 .LVUS3
     /tmp/ccr19bkt.s:36     .text:00000008 .LFB21
     /tmp/ccr19bkt.s:58     .text:00000016 .LFE21
     /tmp/ccr19bkt.s:14164  .debug_loclists:0000190f .LLST0
     /tmp/ccr19bkt.s:14159  .debug_loclists:0000190b .LVUS0
     /tmp/ccr19bkt.s:14     .text:00000000 .LFB20
     /tmp/ccr19bkt.s:31     .text:00000008 .LFE20
     /tmp/ccr19bkt.s:3873   .text:000011ac .LFB11
     /tmp/ccr19bkt.s:4045   .text:0000127e .LFE11
     /tmp/ccr19bkt.s:14191  .debug_loclists:00001928 .LLST127
     /tmp/ccr19bkt.s:14184  .debug_loclists:00001922 .LVUS127
     /tmp/ccr19bkt.s:14238  .debug_loclists:0000195b .LLST128
     /tmp/ccr19bkt.s:14233  .debug_loclists:00001957 .LVUS128
     /tmp/ccr19bkt.s:14271  .debug_loclists:0000197e .LLST129
     /tmp/ccr19bkt.s:14264  .debug_loclists:00001978 .LVUS129
     /tmp/ccr19bkt.s:14294  .debug_loclists:00001999 .LLST130
     /tmp/ccr19bkt.s:14291  .debug_loclists:00001997 .LVUS130
     /tmp/ccr19bkt.s:3945   .text:000011f6 .LBB202
     /tmp/ccr19bkt.s:3983   .text:00001236 .LBE202
     /tmp/ccr19bkt.s:3980   .text:00001236 .LVL214
     /tmp/ccr19bkt.s:3986   .text:00001236 .LBI203
     /tmp/ccr19bkt.s:3985   .text:00001236 .LBB203
     /tmp/ccr19bkt.s:3997   .text:0000123a .LBE203
     /tmp/ccr19bkt.s:14315  .debug_loclists:000019ae .LLST131
     /tmp/ccr19bkt.s:14312  .debug_loclists:000019ac .LVUS131
     /tmp/ccr19bkt.s:3809   .text:0000115e .LFB10
     /tmp/ccr19bkt.s:3867   .text:000011ac .LFE10
     /tmp/ccr19bkt.s:14336  .debug_loclists:000019c3 .LLST126
     /tmp/ccr19bkt.s:14333  .debug_loclists:000019c1 .LVUS126
     /tmp/ccr19bkt.s:3856   .text:000011a0 .LVL209
     /tmp/ccr19bkt.s:3751   .text:0000111c .LFB9
     /tmp/ccr19bkt.s:3804   .text:0000115e .LFE9
     /tmp/ccr19bkt.s:3776   .text:0000112a .LVL206
     /tmp/ccr19bkt.s:3794   .text:00001152 .LVL207
     /tmp/ccr19bkt.s:4083   .debug_info:00000000 .Ldebug_info0

UNDEFINED SYMBOLS
millis
datetime_now
memory_write
memory_read
serial_write
random_get
gfx_rect
memcpy
__tablejump2__
__mulsi3
__umulsidi3
__ashrdi3
__lshrdi3
__divmodsi4
__udivmodsi4
memory_size
syscall_gfx_image_rgba
syscall_gfx_image_rgb
syscall_gfx_image_rgb565
syscall_gfx_image_grayscale
syscall_gfx_image_1bit
__do_copy_data
__do_clear_bss
