   1               		.file	"emulator.c"
   2               	__SP_H__ = 0x3e
   3               	__SP_L__ = 0x3d
   4               	__SREG__ = 0x3f
   5               	__tmp_reg__ = 0
   6               	__zero_reg__ = 1
   7               		.text
   8               	.Ltext0:
   9               		.cfi_sections	.debug_frame
  10               		.file 0 "/home/files/osdev/platform/avr" "../../emulator/emulator.c"
  12               	syscall_finish:
  13               	.LVL0:
  14               	.LFB8:
  15               		.file 1 "../../emulator/emulator.c"
   1:../../emulator/emulator.c **** #include <types.h>
   2:../../emulator/emulator.c **** #include <platform.h>
   3:../../emulator/emulator.c **** #include <emulator.h>
   4:../../emulator/emulator.c **** 
   5:../../emulator/emulator.c **** #include <stdio.h>
   6:../../emulator/emulator.c **** #include <stdlib.h>
   7:../../emulator/emulator.c **** #include <string.h>
   8:../../emulator/emulator.c **** 
   9:../../emulator/emulator.c **** #include <time.h>
  10:../../emulator/emulator.c **** #include <util.h>
  11:../../emulator/emulator.c **** 
  12:../../emulator/emulator.c **** /* #define DEBUG */
  13:../../emulator/emulator.c **** 
  14:../../emulator/emulator.c **** /* OPCODES */
  15:../../emulator/emulator.c **** #define OPCODE_LOAD   0x00
  16:../../emulator/emulator.c **** #define OPCODE_IMM    0x04
  17:../../emulator/emulator.c **** #define OPCODE_AUIPC  0x05 /* Add Upper Immediate to Program Counter */
  18:../../emulator/emulator.c **** #define OPCODE_STORE  0x08
  19:../../emulator/emulator.c **** #define OPCODE_REG    0x0C
  20:../../emulator/emulator.c **** #define OPCODE_LUI    0x0D /* Load Upper Immediate */
  21:../../emulator/emulator.c **** #define OPCODE_BRANCH 0x18
  22:../../emulator/emulator.c **** #define OPCODE_JALR   0x19 /* Jump and Link Register */
  23:../../emulator/emulator.c **** #define OPCODE_JAL    0x1B /* Jump and Link */
  24:../../emulator/emulator.c **** #define OPCODE_ECALL  0x1C
  25:../../emulator/emulator.c **** 
  26:../../emulator/emulator.c **** static inline u32 sext(u32 bits, u32 value)
  27:../../emulator/emulator.c **** {
  28:../../emulator/emulator.c **** 	u32 m = 1 << (bits - 1);
  29:../../emulator/emulator.c **** 	return (value ^ m) - m;
  30:../../emulator/emulator.c **** }
  31:../../emulator/emulator.c **** 
  32:../../emulator/emulator.c **** static bool _finished;
  33:../../emulator/emulator.c **** 
  34:../../emulator/emulator.c **** static u32 syscall_finish(u32 *args)
  35:../../emulator/emulator.c **** {
  16               		.loc 1 35 1 view -0
  17               		.cfi_startproc
  18               	/* prologue: function */
  19               	/* frame size = 0 */
  20               	/* stack size = 0 */
  21               	.L__stack_usage = 0
  36:../../emulator/emulator.c **** 	_finished = true;
  22               		.loc 1 36 2 view .LVU1
  23               		.loc 1 36 12 is_stmt 0 view .LVU2
  24 0000 81E0      		ldi r24,lo8(1)
  25               	.LVL1:
  26               		.loc 1 36 12 view .LVU3
  27 0002 8093 0000 		sts _finished,r24
  37:../../emulator/emulator.c **** 	return 0;
  28               		.loc 1 37 2 is_stmt 1 view .LVU4
  38:../../emulator/emulator.c **** 	(void)args;
  29               		.loc 1 38 2 view .LVU5
  39:../../emulator/emulator.c **** }
  30               		.loc 1 39 1 is_stmt 0 view .LVU6
  31 0006 60E0      		ldi r22,0
  32 0008 70E0      		ldi r23,0
  33 000a CB01      		movw r24,r22
  34               	/* epilogue start */
  35 000c 0895      		ret
  36               		.cfi_endproc
  37               	.LFE8:
  39               		.section	.rodata.str1.1,"aMS",@progbits,1
  40               	.LC0:
  41 0000 1B5B 316D 		.string	"\033[1m\033[31mINSTRUCTION LIMIT EXCEEDED!\n\033[0m"
  41      1B5B 3331 
  41      6D49 4E53 
  41      5452 5543 
  41      5449 4F4E 
  42               		.text
  43               	.global	emulator_call
  45               	emulator_call:
  46               	.LVL2:
  47               	.LFB11:
  40:../../emulator/emulator.c **** 
  41:../../emulator/emulator.c **** static u32 (*syscalls[])(u32 *) =
  42:../../emulator/emulator.c **** {
  43:../../emulator/emulator.c **** 	syscall_exit,
  44:../../emulator/emulator.c **** 	syscall_finish,
  45:../../emulator/emulator.c **** 
  46:../../emulator/emulator.c **** 	syscall_event_register,
  47:../../emulator/emulator.c **** 
  48:../../emulator/emulator.c **** 	syscall_memcpy,
  49:../../emulator/emulator.c **** 	syscall_memmove,
  50:../../emulator/emulator.c **** 	syscall_memcmp,
  51:../../emulator/emulator.c **** 	syscall_memchr,
  52:../../emulator/emulator.c **** 	syscall_memset,
  53:../../emulator/emulator.c **** 
  54:../../emulator/emulator.c **** 	syscall_strcpy,
  55:../../emulator/emulator.c **** 	syscall_strncpy,
  56:../../emulator/emulator.c **** 	syscall_strlen,
  57:../../emulator/emulator.c **** 	syscall_strcmp,
  58:../../emulator/emulator.c **** 	syscall_strncmp,
  59:../../emulator/emulator.c **** 	syscall_strchr,
  60:../../emulator/emulator.c **** 
  61:../../emulator/emulator.c **** 	syscall_rand,
  62:../../emulator/emulator.c **** 
  63:../../emulator/emulator.c **** 	syscall_gfx_rect,
  64:../../emulator/emulator.c **** 	syscall_gfx_image_rgba,
  65:../../emulator/emulator.c **** 	syscall_gfx_image_rgb,
  66:../../emulator/emulator.c **** 	syscall_gfx_image_rgb565,
  67:../../emulator/emulator.c **** 	syscall_gfx_image_grayscale,
  68:../../emulator/emulator.c **** 	syscall_gfx_image_1bit,
  69:../../emulator/emulator.c **** 
  70:../../emulator/emulator.c **** 	syscall_keyboard_is_key_pressed,
  71:../../emulator/emulator.c **** 
  72:../../emulator/emulator.c **** 	syscall_serial_write,
  73:../../emulator/emulator.c **** 
  74:../../emulator/emulator.c **** 	syscall_datetime_now,
  75:../../emulator/emulator.c **** 	syscall_millis,
  76:../../emulator/emulator.c **** };
  77:../../emulator/emulator.c **** 
  78:../../emulator/emulator.c **** static i32 syscall(u32 id, u32 *args)
  79:../../emulator/emulator.c **** {
  80:../../emulator/emulator.c **** 	if(id >= ARRLEN(syscalls))
  81:../../emulator/emulator.c **** 	{
  82:../../emulator/emulator.c **** 		return 1;
  83:../../emulator/emulator.c **** 	}
  84:../../emulator/emulator.c **** 
  85:../../emulator/emulator.c **** 	args[0] = syscalls[id](args);
  86:../../emulator/emulator.c **** 	return 0;
  87:../../emulator/emulator.c **** }
  88:../../emulator/emulator.c **** 
  89:../../emulator/emulator.c **** /* EMULATOR */
  90:../../emulator/emulator.c **** #ifdef DEBUG
  91:../../emulator/emulator.c **** 
  92:../../emulator/emulator.c **** void emulator_dump_registers(Emulator *emu)
  93:../../emulator/emulator.c **** {
  94:../../emulator/emulator.c **** 	printf("PC  0x%08X %10d\n", emu->PC, emu->PC);
  95:../../emulator/emulator.c **** 	for(i32 i = 0; i < 32; ++i)
  96:../../emulator/emulator.c **** 	{
  97:../../emulator/emulator.c **** 		printf("R%d%s 0x%08X %10d\n", i, i < 10 ? " " : "",
  98:../../emulator/emulator.c **** 			emu->Registers[i], emu->Registers[i]);
  99:../../emulator/emulator.c **** 	}
 100:../../emulator/emulator.c **** 
 101:../../emulator/emulator.c **** 	printf("\n");
 102:../../emulator/emulator.c **** }
 103:../../emulator/emulator.c **** 
 104:../../emulator/emulator.c **** #endif
 105:../../emulator/emulator.c **** 
 106:../../emulator/emulator.c **** static i32 emulator_next(Emulator *emu)
 107:../../emulator/emulator.c **** {
 108:../../emulator/emulator.c **** #ifdef DEBUG
 109:../../emulator/emulator.c **** 	clock_t begin, end;
 110:../../emulator/emulator.c **** 	double time_spent;
 111:../../emulator/emulator.c **** 
 112:../../emulator/emulator.c **** 	begin = clock();
 113:../../emulator/emulator.c **** #endif
 114:../../emulator/emulator.c **** 
 115:../../emulator/emulator.c **** 	u32 instr, opcode;
 116:../../emulator/emulator.c **** 	instr = memory_lw(emu->PC);
 117:../../emulator/emulator.c **** 
 118:../../emulator/emulator.c **** 	/* r0 = Zero Register */
 119:../../emulator/emulator.c **** 	emu->Registers[0] = 0;
 120:../../emulator/emulator.c **** 
 121:../../emulator/emulator.c **** 	/* bits 7 .. 0 */
 122:../../emulator/emulator.c **** 	opcode = instr & 0x7F;
 123:../../emulator/emulator.c **** 	if((opcode & 0x03) != 0x03)
 124:../../emulator/emulator.c **** 	{
 125:../../emulator/emulator.c **** 		/* INVALID */
 126:../../emulator/emulator.c **** #ifdef DEBUG
 127:../../emulator/emulator.c **** 		printf("INVALID\n");
 128:../../emulator/emulator.c **** #endif
 129:../../emulator/emulator.c **** 		return -1;
 130:../../emulator/emulator.c **** 	}
 131:../../emulator/emulator.c **** 
 132:../../emulator/emulator.c **** 	opcode >>= 2;
 133:../../emulator/emulator.c **** 	switch(opcode)
 134:../../emulator/emulator.c **** 	{
 135:../../emulator/emulator.c **** 		case OPCODE_ECALL:
 136:../../emulator/emulator.c **** 			if(syscall(emu->Registers[17], &emu->Registers[10]))
 137:../../emulator/emulator.c **** 			{
 138:../../emulator/emulator.c **** #ifdef DEBUG
 139:../../emulator/emulator.c **** 				printf("SYSCALL ERROR\n");
 140:../../emulator/emulator.c **** #endif
 141:../../emulator/emulator.c **** 				return -1;
 142:../../emulator/emulator.c **** 			}
 143:../../emulator/emulator.c **** 			break;
 144:../../emulator/emulator.c **** 
 145:../../emulator/emulator.c **** 		case OPCODE_LOAD:
 146:../../emulator/emulator.c **** 		{
 147:../../emulator/emulator.c **** 			i32 offset;
 148:../../emulator/emulator.c **** 			u32 rd, rs1, funct3, imm;
 149:../../emulator/emulator.c **** 			rd = (instr >> 7) & 0x1F;
 150:../../emulator/emulator.c **** 			funct3 = (instr >> 12) & 0x07;
 151:../../emulator/emulator.c **** 			rs1 = (instr >> 15) & 0x1F;
 152:../../emulator/emulator.c **** 			imm = (instr >> 20);
 153:../../emulator/emulator.c **** 			offset = sext(12, imm);
 154:../../emulator/emulator.c **** 			switch(funct3)
 155:../../emulator/emulator.c **** 			{
 156:../../emulator/emulator.c **** 				case 0:
 157:../../emulator/emulator.c **** 					/* LB */
 158:../../emulator/emulator.c **** #ifdef DEBUG
 159:../../emulator/emulator.c **** 					printf("lb r%d, r%d%+d\n", rd, rs1, offset);
 160:../../emulator/emulator.c **** #endif
 161:../../emulator/emulator.c **** 					emu->Registers[rd] = memory_lb(emu->Registers[rs1] + offset);
 162:../../emulator/emulator.c **** 					break;
 163:../../emulator/emulator.c **** 
 164:../../emulator/emulator.c **** 				case 1:
 165:../../emulator/emulator.c **** 					/* LH */
 166:../../emulator/emulator.c **** #ifdef DEBUG
 167:../../emulator/emulator.c **** 					printf("lh r%d, r%d%+d\n", rd, rs1, offset);
 168:../../emulator/emulator.c **** #endif
 169:../../emulator/emulator.c **** 					emu->Registers[rd] = memory_lh(emu->Registers[rs1] + offset);
 170:../../emulator/emulator.c **** 					break;
 171:../../emulator/emulator.c **** 
 172:../../emulator/emulator.c **** 				case 2:
 173:../../emulator/emulator.c **** 					/* LW */
 174:../../emulator/emulator.c **** #ifdef DEBUG
 175:../../emulator/emulator.c **** 					printf("lw r%d, r%d%+d\n", rd, rs1, offset);
 176:../../emulator/emulator.c **** #endif
 177:../../emulator/emulator.c **** 					emu->Registers[rd] = memory_lw(emu->Registers[rs1] + offset);
 178:../../emulator/emulator.c **** 					break;
 179:../../emulator/emulator.c **** 
 180:../../emulator/emulator.c **** 				case 4:
 181:../../emulator/emulator.c **** 					/* LBU */
 182:../../emulator/emulator.c **** #ifdef DEBUG
 183:../../emulator/emulator.c **** 					printf("lbu r%d, r%d%+d\n", rd, rs1, offset);
 184:../../emulator/emulator.c **** #endif
 185:../../emulator/emulator.c **** 					emu->Registers[rd] = memory_lbu(emu->Registers[rs1] + offset);
 186:../../emulator/emulator.c **** 					break;
 187:../../emulator/emulator.c **** 
 188:../../emulator/emulator.c **** 				case 5:
 189:../../emulator/emulator.c **** 					/* LHU */
 190:../../emulator/emulator.c **** #ifdef DEBUG
 191:../../emulator/emulator.c **** 					printf("lhu r%d, r%d%+d\n", rd, rs1, offset);
 192:../../emulator/emulator.c **** #endif
 193:../../emulator/emulator.c **** 					emu->Registers[rd] = memory_lhu(emu->Registers[rs1] + offset);
 194:../../emulator/emulator.c **** 					break;
 195:../../emulator/emulator.c **** 
 196:../../emulator/emulator.c **** 				default:
 197:../../emulator/emulator.c **** 					/* INVALID */
 198:../../emulator/emulator.c **** #ifdef DEBUG
 199:../../emulator/emulator.c **** 					printf("INVALID\n");
 200:../../emulator/emulator.c **** #endif
 201:../../emulator/emulator.c **** 					return -1;
 202:../../emulator/emulator.c **** 			}
 203:../../emulator/emulator.c **** 			break;
 204:../../emulator/emulator.c **** 		}
 205:../../emulator/emulator.c **** 
 206:../../emulator/emulator.c **** 		case OPCODE_IMM:
 207:../../emulator/emulator.c **** 		{
 208:../../emulator/emulator.c **** 			u32 rd, rs1, funct3, imm;
 209:../../emulator/emulator.c **** 			rd = (instr >> 7) & 0x1F;
 210:../../emulator/emulator.c **** 			funct3 = (instr >> 12) & 0x07;
 211:../../emulator/emulator.c **** 			rs1 = (instr >> 15) & 0x1F;
 212:../../emulator/emulator.c **** 			imm = (instr >> 20);
 213:../../emulator/emulator.c **** 			switch(funct3)
 214:../../emulator/emulator.c **** 			{
 215:../../emulator/emulator.c **** 				case 0:
 216:../../emulator/emulator.c **** 					/* ADDI */
 217:../../emulator/emulator.c **** 					imm = sext(12, imm);
 218:../../emulator/emulator.c **** #ifdef DEBUG
 219:../../emulator/emulator.c **** 					printf("addi r%d, r%d, %d\n", rd, rs1, imm);
 220:../../emulator/emulator.c **** #endif
 221:../../emulator/emulator.c **** 					emu->Registers[rd] = emu->Registers[rs1] + imm;
 222:../../emulator/emulator.c **** 					break;
 223:../../emulator/emulator.c **** 
 224:../../emulator/emulator.c **** 				case 1:
 225:../../emulator/emulator.c **** 					/* SLLI */
 226:../../emulator/emulator.c **** 					imm &= 0x1F;
 227:../../emulator/emulator.c **** #ifdef DEBUG
 228:../../emulator/emulator.c **** 					printf("slli r%d, r%d, %d\n", rd, rs1, imm);
 229:../../emulator/emulator.c **** #endif
 230:../../emulator/emulator.c **** 					emu->Registers[rd] = emu->Registers[rs1] << imm;
 231:../../emulator/emulator.c **** 					break;
 232:../../emulator/emulator.c **** 
 233:../../emulator/emulator.c **** 				case 2:
 234:../../emulator/emulator.c **** 					/* SLTI */
 235:../../emulator/emulator.c **** 					imm = sext(12, imm);
 236:../../emulator/emulator.c **** #ifdef DEBUG
 237:../../emulator/emulator.c **** 					printf("slti r%d, r%d, %d\n", rd, rs1, imm);
 238:../../emulator/emulator.c **** #endif
 239:../../emulator/emulator.c **** 					emu->Registers[rd] = (i32)emu->Registers[rs1] < (i32)imm;
 240:../../emulator/emulator.c **** 					break;
 241:../../emulator/emulator.c **** 
 242:../../emulator/emulator.c **** 				case 3:
 243:../../emulator/emulator.c **** 					/* SLTIU */
 244:../../emulator/emulator.c **** #ifdef DEBUG
 245:../../emulator/emulator.c **** 					printf("sltiu r%d, r%d, %d\n", rd, rs1, imm);
 246:../../emulator/emulator.c **** #endif
 247:../../emulator/emulator.c **** 					emu->Registers[rd] = emu->Registers[rs1] < imm;
 248:../../emulator/emulator.c **** 					break;
 249:../../emulator/emulator.c **** 
 250:../../emulator/emulator.c **** 				case 4:
 251:../../emulator/emulator.c **** 					/* XORI */
 252:../../emulator/emulator.c **** 					imm = sext(12, imm);
 253:../../emulator/emulator.c **** #ifdef DEBUG
 254:../../emulator/emulator.c **** 					printf("xori r%d, r%d, 0x%08X\n", rd, rs1, imm);
 255:../../emulator/emulator.c **** #endif
 256:../../emulator/emulator.c **** 					emu->Registers[rd] = emu->Registers[rs1] ^ imm;
 257:../../emulator/emulator.c **** 					break;
 258:../../emulator/emulator.c **** 
 259:../../emulator/emulator.c **** 				case 5:
 260:../../emulator/emulator.c **** 					if(imm >> 5)
 261:../../emulator/emulator.c **** 					{
 262:../../emulator/emulator.c **** 						/* SRAI */
 263:../../emulator/emulator.c **** 						imm &= 0x1F;
 264:../../emulator/emulator.c **** #ifdef DEBUG
 265:../../emulator/emulator.c **** 						printf("srai r%d, r%d, %d\n", rd, rs1, imm);
 266:../../emulator/emulator.c **** #endif
 267:../../emulator/emulator.c **** 						emu->Registers[rd] = (i32)emu->Registers[rs1] >> imm;
 268:../../emulator/emulator.c **** 					}
 269:../../emulator/emulator.c **** 					else
 270:../../emulator/emulator.c **** 					{
 271:../../emulator/emulator.c **** 						/* SRLI */
 272:../../emulator/emulator.c **** 						imm &= 0x1F;
 273:../../emulator/emulator.c **** #ifdef DEBUG
 274:../../emulator/emulator.c **** 						printf("srli r%d, r%d, %d\n", rd, rs1, imm);
 275:../../emulator/emulator.c **** #endif
 276:../../emulator/emulator.c **** 						emu->Registers[rd] = emu->Registers[rs1] >> imm;
 277:../../emulator/emulator.c **** 					}
 278:../../emulator/emulator.c **** 					break;
 279:../../emulator/emulator.c **** 
 280:../../emulator/emulator.c **** 				case 6:
 281:../../emulator/emulator.c **** 					/* ORI */
 282:../../emulator/emulator.c **** 					imm = sext(12, imm);
 283:../../emulator/emulator.c **** #ifdef DEBUG
 284:../../emulator/emulator.c **** 					printf("ori r%d, r%d, 0x%08X\n", rd, rs1, imm);
 285:../../emulator/emulator.c **** #endif
 286:../../emulator/emulator.c **** 					emu->Registers[rd] = emu->Registers[rs1] | imm;
 287:../../emulator/emulator.c **** 					break;
 288:../../emulator/emulator.c **** 
 289:../../emulator/emulator.c **** 				case 7:
 290:../../emulator/emulator.c **** 					/* ANDI */
 291:../../emulator/emulator.c **** 					imm = sext(12, imm);
 292:../../emulator/emulator.c **** #ifdef DEBUG
 293:../../emulator/emulator.c **** 					printf("andi r%d, r%d, 0x%08X\n", rd, rs1, imm);
 294:../../emulator/emulator.c **** #endif
 295:../../emulator/emulator.c **** 					emu->Registers[rd] = emu->Registers[rs1] & imm;
 296:../../emulator/emulator.c **** 					break;
 297:../../emulator/emulator.c **** 			}
 298:../../emulator/emulator.c **** 			break;
 299:../../emulator/emulator.c **** 		}
 300:../../emulator/emulator.c **** 
 301:../../emulator/emulator.c **** 		case OPCODE_AUIPC:
 302:../../emulator/emulator.c **** 		{
 303:../../emulator/emulator.c **** 			u32 rd, imm;
 304:../../emulator/emulator.c **** 			rd = (instr >> 7) & 0x1F;
 305:../../emulator/emulator.c **** 			imm = (instr >> 12);
 306:../../emulator/emulator.c **** #ifdef DEBUG
 307:../../emulator/emulator.c **** 			printf("auipc r%d, 0x%08X\n", rd, imm);
 308:../../emulator/emulator.c **** #endif
 309:../../emulator/emulator.c **** 			emu->Registers[rd] = emu->PC + (imm << 12);
 310:../../emulator/emulator.c **** 			break;
 311:../../emulator/emulator.c **** 		}
 312:../../emulator/emulator.c **** 
 313:../../emulator/emulator.c **** 		case OPCODE_STORE:
 314:../../emulator/emulator.c **** 		{
 315:../../emulator/emulator.c **** 			i32 offset;
 316:../../emulator/emulator.c **** 			u32 imm, rs1, rs2, funct3;
 317:../../emulator/emulator.c **** 			funct3 = (instr >> 12) & 0x07;
 318:../../emulator/emulator.c **** 			rs1 = (instr >> 15) & 0x1F;
 319:../../emulator/emulator.c **** 			rs2 = (instr >> 20) & 0x1F;
 320:../../emulator/emulator.c **** 			imm = ((instr & 0xF80) >> 7) | ((instr & 0xFE000000) >> 20);
 321:../../emulator/emulator.c **** 			offset = sext(12, imm);
 322:../../emulator/emulator.c **** 			switch(funct3)
 323:../../emulator/emulator.c **** 			{
 324:../../emulator/emulator.c **** 				case 0:
 325:../../emulator/emulator.c **** 					/* SB */
 326:../../emulator/emulator.c **** #ifdef DEBUG
 327:../../emulator/emulator.c **** 					printf("sb r%d%+d, r%d\n", rs1, offset, rs2);
 328:../../emulator/emulator.c **** #endif
 329:../../emulator/emulator.c **** 					memory_sb(emu->Registers[rs1] + offset, emu->Registers[rs2]);
 330:../../emulator/emulator.c **** 					break;
 331:../../emulator/emulator.c **** 
 332:../../emulator/emulator.c **** 				case 1:
 333:../../emulator/emulator.c **** 					/* SH */
 334:../../emulator/emulator.c **** #ifdef DEBUG
 335:../../emulator/emulator.c **** 					printf("sh r%d%+d, r%d\n", rs1, offset, rs2);
 336:../../emulator/emulator.c **** #endif
 337:../../emulator/emulator.c **** 					memory_sh(emu->Registers[rs1] + offset, emu->Registers[rs2]);
 338:../../emulator/emulator.c **** 					break;
 339:../../emulator/emulator.c **** 
 340:../../emulator/emulator.c **** 				case 2:
 341:../../emulator/emulator.c **** 					/* SW */
 342:../../emulator/emulator.c **** #ifdef DEBUG
 343:../../emulator/emulator.c **** 					printf("sw r%d%+d, r%d\n", rs1, offset, rs2);
 344:../../emulator/emulator.c **** #endif
 345:../../emulator/emulator.c **** 					memory_sw(emu->Registers[rs1] + offset, emu->Registers[rs2]);
 346:../../emulator/emulator.c **** 					break;
 347:../../emulator/emulator.c **** 
 348:../../emulator/emulator.c **** 				default:
 349:../../emulator/emulator.c **** 					/* INVALID */
 350:../../emulator/emulator.c **** #ifdef DEBUG
 351:../../emulator/emulator.c **** 					printf("INVALID\n");
 352:../../emulator/emulator.c **** #endif
 353:../../emulator/emulator.c **** 					return -1;
 354:../../emulator/emulator.c **** 			}
 355:../../emulator/emulator.c **** 			break;
 356:../../emulator/emulator.c **** 		}
 357:../../emulator/emulator.c **** 
 358:../../emulator/emulator.c **** 		case OPCODE_REG:
 359:../../emulator/emulator.c **** 		{
 360:../../emulator/emulator.c **** 			u32 rd, rs1, rs2, funct3, funct7;
 361:../../emulator/emulator.c **** 			rd = (instr >> 7) & 0x1F;
 362:../../emulator/emulator.c **** 			funct3 = (instr >> 12) & 0x07;
 363:../../emulator/emulator.c **** 			rs1 = (instr >> 15) & 0x1F;
 364:../../emulator/emulator.c **** 			rs2 = (instr >> 20) & 0x1F;
 365:../../emulator/emulator.c **** 			funct7 = (instr >> 25);
 366:../../emulator/emulator.c **** 			if(funct7 == 1)
 367:../../emulator/emulator.c **** 			{
 368:../../emulator/emulator.c **** 				/* Multiplication Extension */
 369:../../emulator/emulator.c **** 				switch(funct3)
 370:../../emulator/emulator.c **** 				{
 371:../../emulator/emulator.c **** 					case 0:
 372:../../emulator/emulator.c **** 						/* MUL */
 373:../../emulator/emulator.c **** #ifdef DEBUG
 374:../../emulator/emulator.c **** 						printf("mul r%d, r%d, r%d\n", rd, rs1, rs2);
 375:../../emulator/emulator.c **** #endif
 376:../../emulator/emulator.c **** 						emu->Registers[rd] = (i32)emu->Registers[rs1] * (i32)emu->Registers[rs2];
 377:../../emulator/emulator.c **** 						break;
 378:../../emulator/emulator.c **** 
 379:../../emulator/emulator.c **** 					case 1:
 380:../../emulator/emulator.c **** 						/* MULH */
 381:../../emulator/emulator.c **** #ifdef DEBUG
 382:../../emulator/emulator.c **** 						printf("mulh r%d, r%d, r%d\n", rd, rs1, rs2);
 383:../../emulator/emulator.c **** #endif
 384:../../emulator/emulator.c **** 						emu->Registers[rd] = ((i64)emu->Registers[rs1] * (i64)emu->Registers[rs2]) >> 32;
 385:../../emulator/emulator.c **** 						break;
 386:../../emulator/emulator.c **** 
 387:../../emulator/emulator.c **** 					case 2:
 388:../../emulator/emulator.c **** 						/* MULHSU */
 389:../../emulator/emulator.c **** #ifdef DEBUG
 390:../../emulator/emulator.c **** 						printf("mulhsu r%d, r%d, r%d\n", rd, rs1, rs2);
 391:../../emulator/emulator.c **** #endif
 392:../../emulator/emulator.c **** 						emu->Registers[rd] = ((i64)emu->Registers[rs1] * (u64)emu->Registers[rs2]) >> 32;
 393:../../emulator/emulator.c **** 						break;
 394:../../emulator/emulator.c **** 
 395:../../emulator/emulator.c **** 					case 3:
 396:../../emulator/emulator.c **** 						/* MULHU */
 397:../../emulator/emulator.c **** #ifdef DEBUG
 398:../../emulator/emulator.c **** 						printf("mulhu r%d, r%d, r%d\n", rd, rs1, rs2);
 399:../../emulator/emulator.c **** #endif
 400:../../emulator/emulator.c **** 						emu->Registers[rd] = ((u64)emu->Registers[rs1] * (u64)emu->Registers[rs2]) >> 32;
 401:../../emulator/emulator.c **** 						break;
 402:../../emulator/emulator.c **** 
 403:../../emulator/emulator.c **** 					case 4:
 404:../../emulator/emulator.c **** 						/* DIV */
 405:../../emulator/emulator.c **** #ifdef DEBUG
 406:../../emulator/emulator.c **** 						printf("div r%d, r%d, r%d\n", rd, rs1, rs2);
 407:../../emulator/emulator.c **** #endif
 408:../../emulator/emulator.c **** 						emu->Registers[rd] = (i32)emu->Registers[rs1] / (i32)emu->Registers[rs2];
 409:../../emulator/emulator.c **** 						break;
 410:../../emulator/emulator.c **** 
 411:../../emulator/emulator.c **** 					case 5:
 412:../../emulator/emulator.c **** 						/* DIVU */
 413:../../emulator/emulator.c **** #ifdef DEBUG
 414:../../emulator/emulator.c **** 						printf("divu r%d, r%d, r%d\n", rd, rs1, rs2);
 415:../../emulator/emulator.c **** #endif
 416:../../emulator/emulator.c **** 						emu->Registers[rd] = emu->Registers[rs1] / emu->Registers[rs2];
 417:../../emulator/emulator.c **** 						break;
 418:../../emulator/emulator.c **** 
 419:../../emulator/emulator.c **** 					case 6:
 420:../../emulator/emulator.c **** 						/* REM */
 421:../../emulator/emulator.c **** #ifdef DEBUG
 422:../../emulator/emulator.c **** 						printf("rem r%d, r%d, r%d\n", rd, rs1, rs2);
 423:../../emulator/emulator.c **** #endif
 424:../../emulator/emulator.c **** 						emu->Registers[rd] = (i32)emu->Registers[rs1] % (i32)emu->Registers[rs2];
 425:../../emulator/emulator.c **** 						break;
 426:../../emulator/emulator.c **** 
 427:../../emulator/emulator.c **** 					case 7:
 428:../../emulator/emulator.c **** 						/* REMU */
 429:../../emulator/emulator.c **** #ifdef DEBUG
 430:../../emulator/emulator.c **** 						printf("remu r%d, r%d, r%d\n", rd, rs1, rs2);
 431:../../emulator/emulator.c **** #endif
 432:../../emulator/emulator.c **** 						emu->Registers[rd] = emu->Registers[rs1] % emu->Registers[rs2];
 433:../../emulator/emulator.c **** 						break;
 434:../../emulator/emulator.c **** 				}
 435:../../emulator/emulator.c **** 			}
 436:../../emulator/emulator.c **** 			else
 437:../../emulator/emulator.c **** 			{
 438:../../emulator/emulator.c **** 				switch(funct3)
 439:../../emulator/emulator.c **** 				{
 440:../../emulator/emulator.c **** 					case 0:
 441:../../emulator/emulator.c **** 						if(funct7)
 442:../../emulator/emulator.c **** 						{
 443:../../emulator/emulator.c **** 							/* SUB */
 444:../../emulator/emulator.c **** #ifdef DEBUG
 445:../../emulator/emulator.c **** 							printf("sub r%d, r%d, r%d\n", rd, rs1, rs2);
 446:../../emulator/emulator.c **** #endif
 447:../../emulator/emulator.c **** 							emu->Registers[rd] = emu->Registers[rs1] - emu->Registers[rs2];
 448:../../emulator/emulator.c **** 						}
 449:../../emulator/emulator.c **** 						else
 450:../../emulator/emulator.c **** 						{
 451:../../emulator/emulator.c **** 							/* ADD */
 452:../../emulator/emulator.c **** #ifdef DEBUG
 453:../../emulator/emulator.c **** 							printf("add r%d, r%d, r%d\n", rd, rs1, rs2);
 454:../../emulator/emulator.c **** #endif
 455:../../emulator/emulator.c **** 							emu->Registers[rd] = emu->Registers[rs1] + emu->Registers[rs2];
 456:../../emulator/emulator.c **** 						}
 457:../../emulator/emulator.c **** 						break;
 458:../../emulator/emulator.c **** 
 459:../../emulator/emulator.c **** 					case 1:
 460:../../emulator/emulator.c **** 						/* SLL */
 461:../../emulator/emulator.c **** #ifdef DEBUG
 462:../../emulator/emulator.c **** 						printf("sll r%d, r%d, r%d\n", rd, rs1, rs2);
 463:../../emulator/emulator.c **** #endif
 464:../../emulator/emulator.c **** 						emu->Registers[rd] = emu->Registers[rs1] << (emu->Registers[rs2] & 0x1F);
 465:../../emulator/emulator.c **** 						break;
 466:../../emulator/emulator.c **** 
 467:../../emulator/emulator.c **** 					case 2:
 468:../../emulator/emulator.c **** 						/* SLT */
 469:../../emulator/emulator.c **** #ifdef DEBUG
 470:../../emulator/emulator.c **** 						printf("slt r%d, r%d, r%d\n", rd, rs1, rs2);
 471:../../emulator/emulator.c **** #endif
 472:../../emulator/emulator.c **** 						emu->Registers[rd] = (i32)emu->Registers[rs1] < (i32)emu->Registers[rs2];
 473:../../emulator/emulator.c **** 						break;
 474:../../emulator/emulator.c **** 
 475:../../emulator/emulator.c **** 					case 3:
 476:../../emulator/emulator.c **** 						/* SLTU */
 477:../../emulator/emulator.c **** #ifdef DEBUG
 478:../../emulator/emulator.c **** 						printf("sltu r%d, r%d, r%d\n", rd, rs1, rs2);
 479:../../emulator/emulator.c **** #endif
 480:../../emulator/emulator.c **** 						emu->Registers[rd] = emu->Registers[rs1] < emu->Registers[rs2];
 481:../../emulator/emulator.c **** 						break;
 482:../../emulator/emulator.c **** 
 483:../../emulator/emulator.c **** 					case 4:
 484:../../emulator/emulator.c **** 						/* XOR */
 485:../../emulator/emulator.c **** #ifdef DEBUG
 486:../../emulator/emulator.c **** 						printf("xor r%d, r%d, r%d\n", rd, rs1, rs2);
 487:../../emulator/emulator.c **** #endif
 488:../../emulator/emulator.c **** 						emu->Registers[rd] = emu->Registers[rs1] ^ emu->Registers[rs2];
 489:../../emulator/emulator.c **** 						break;
 490:../../emulator/emulator.c **** 
 491:../../emulator/emulator.c **** 					case 5:
 492:../../emulator/emulator.c **** 						if(funct7)
 493:../../emulator/emulator.c **** 						{
 494:../../emulator/emulator.c **** 							/* SRA */
 495:../../emulator/emulator.c **** #ifdef DEBUG
 496:../../emulator/emulator.c **** 							printf("srl r%d, r%d, r%d\n", rd, rs1, rs2);
 497:../../emulator/emulator.c **** #endif
 498:../../emulator/emulator.c **** 							emu->Registers[rd] = (i32)emu->Registers[rs1] >> (emu->Registers[rs2] & 0x1F);
 499:../../emulator/emulator.c **** 						}
 500:../../emulator/emulator.c **** 						else
 501:../../emulator/emulator.c **** 						{
 502:../../emulator/emulator.c **** 							/* SRL */
 503:../../emulator/emulator.c **** #ifdef DEBUG
 504:../../emulator/emulator.c **** 							printf("sra r%d, r%d, r%d\n", rd, rs1, rs2);
 505:../../emulator/emulator.c **** #endif
 506:../../emulator/emulator.c **** 							emu->Registers[rd] = emu->Registers[rs1] >> (emu->Registers[rs2] & 0x1F);
 507:../../emulator/emulator.c **** 						}
 508:../../emulator/emulator.c **** 						break;
 509:../../emulator/emulator.c **** 
 510:../../emulator/emulator.c **** 					case 6:
 511:../../emulator/emulator.c **** 						/* OR */
 512:../../emulator/emulator.c **** #ifdef DEBUG
 513:../../emulator/emulator.c **** 						printf("or r%d, r%d, r%d\n", rd, rs1, rs2);
 514:../../emulator/emulator.c **** #endif
 515:../../emulator/emulator.c **** 						emu->Registers[rd] = emu->Registers[rs1] | emu->Registers[rs2];
 516:../../emulator/emulator.c **** 						break;
 517:../../emulator/emulator.c **** 
 518:../../emulator/emulator.c **** 					case 7:
 519:../../emulator/emulator.c **** 						/* AND */
 520:../../emulator/emulator.c **** #ifdef DEBUG
 521:../../emulator/emulator.c **** 						printf("and r%d, r%d, r%d\n", rd, rs1, rs2);
 522:../../emulator/emulator.c **** #endif
 523:../../emulator/emulator.c **** 						emu->Registers[rd] = emu->Registers[rs1] & emu->Registers[rs2];
 524:../../emulator/emulator.c **** 						break;
 525:../../emulator/emulator.c **** 				}
 526:../../emulator/emulator.c **** 			}
 527:../../emulator/emulator.c **** 			break;
 528:../../emulator/emulator.c **** 		}
 529:../../emulator/emulator.c **** 
 530:../../emulator/emulator.c **** 		case OPCODE_LUI:
 531:../../emulator/emulator.c **** 		{
 532:../../emulator/emulator.c **** 			u32 rd, imm;
 533:../../emulator/emulator.c **** 			rd = (instr >> 7) & 0x1F;
 534:../../emulator/emulator.c **** 			imm = (instr >> 12);
 535:../../emulator/emulator.c **** #ifdef DEBUG
 536:../../emulator/emulator.c **** 			printf("lui r%d, 0x%08X\n", rd, imm);
 537:../../emulator/emulator.c **** #endif
 538:../../emulator/emulator.c **** 			emu->Registers[rd] = (imm << 12);
 539:../../emulator/emulator.c **** 			break;
 540:../../emulator/emulator.c **** 		}
 541:../../emulator/emulator.c **** 
 542:../../emulator/emulator.c **** 		case OPCODE_BRANCH:
 543:../../emulator/emulator.c **** 		{
 544:../../emulator/emulator.c **** 			i32 offset;
 545:../../emulator/emulator.c **** 			u32 imm, rs1, rs2, funct3;
 546:../../emulator/emulator.c **** 
 547:../../emulator/emulator.c **** 			funct3 = (instr >> 12) & 0x07;
 548:../../emulator/emulator.c **** 			rs1 = (instr >> 15) & 0x1F;
 549:../../emulator/emulator.c **** 			rs2 = (instr >> 20) & 0x1F;
 550:../../emulator/emulator.c **** 
 551:../../emulator/emulator.c **** 			imm = ((instr & 0xF00) >> 7) |
 552:../../emulator/emulator.c **** 				((instr & 0x7E000000) >> 20) |
 553:../../emulator/emulator.c **** 				((instr & 0x80) << 4) |
 554:../../emulator/emulator.c **** 				((instr & 0x80000000) >> 20);
 555:../../emulator/emulator.c **** 
 556:../../emulator/emulator.c **** 			offset = sext(12, imm);
 557:../../emulator/emulator.c **** 			switch(funct3)
 558:../../emulator/emulator.c **** 			{
 559:../../emulator/emulator.c **** 				case 0:
 560:../../emulator/emulator.c **** 					/* BEQ */
 561:../../emulator/emulator.c **** #ifdef DEBUG
 562:../../emulator/emulator.c **** 					printf("beq r%d, r%d, pc%+d\n", rs1, rs2, offset);
 563:../../emulator/emulator.c **** #endif
 564:../../emulator/emulator.c **** 					if(emu->Registers[rs1] == emu->Registers[rs2])
 565:../../emulator/emulator.c **** 					{
 566:../../emulator/emulator.c **** 						emu->PC += offset;
 567:../../emulator/emulator.c **** 						return 0;
 568:../../emulator/emulator.c **** 					}
 569:../../emulator/emulator.c **** 					break;
 570:../../emulator/emulator.c **** 
 571:../../emulator/emulator.c **** 				case 1:
 572:../../emulator/emulator.c **** 					/* BNE */
 573:../../emulator/emulator.c **** #ifdef DEBUG
 574:../../emulator/emulator.c **** 					printf("bne r%d, r%d, pc%+d\n", rs1, rs2, offset);
 575:../../emulator/emulator.c **** #endif
 576:../../emulator/emulator.c **** 					if(emu->Registers[rs1] != emu->Registers[rs2])
 577:../../emulator/emulator.c **** 					{
 578:../../emulator/emulator.c **** 						emu->PC += offset;
 579:../../emulator/emulator.c **** 						return 0;
 580:../../emulator/emulator.c **** 					}
 581:../../emulator/emulator.c **** 					break;
 582:../../emulator/emulator.c **** 
 583:../../emulator/emulator.c **** 				case 4:
 584:../../emulator/emulator.c **** 					/* BLT */
 585:../../emulator/emulator.c **** #ifdef DEBUG
 586:../../emulator/emulator.c **** 					printf("blt r%d, r%d, pc%+d\n", rs1, rs2, offset);
 587:../../emulator/emulator.c **** #endif
 588:../../emulator/emulator.c **** 					if((i32)emu->Registers[rs1] < (i32)emu->Registers[rs2])
 589:../../emulator/emulator.c **** 					{
 590:../../emulator/emulator.c **** 						emu->PC += offset;
 591:../../emulator/emulator.c **** 						return 0;
 592:../../emulator/emulator.c **** 					}
 593:../../emulator/emulator.c **** 					break;
 594:../../emulator/emulator.c **** 
 595:../../emulator/emulator.c **** 				case 5:
 596:../../emulator/emulator.c **** 					/* BGE */
 597:../../emulator/emulator.c **** #ifdef DEBUG
 598:../../emulator/emulator.c **** 					printf("bge r%d, r%d, pc%+d\n", rs1, rs2, offset);
 599:../../emulator/emulator.c **** #endif
 600:../../emulator/emulator.c **** 					if((i32)emu->Registers[rs1] >= (i32)emu->Registers[rs2])
 601:../../emulator/emulator.c **** 					{
 602:../../emulator/emulator.c **** 						emu->PC += offset;
 603:../../emulator/emulator.c **** 						return 0;
 604:../../emulator/emulator.c **** 					}
 605:../../emulator/emulator.c **** 					break;
 606:../../emulator/emulator.c **** 
 607:../../emulator/emulator.c **** 				case 6:
 608:../../emulator/emulator.c **** 					/* BLTU */
 609:../../emulator/emulator.c **** #ifdef DEBUG
 610:../../emulator/emulator.c **** 					printf("bltu r%d, r%d, pc%+d\n", rs1, rs2, offset);
 611:../../emulator/emulator.c **** #endif
 612:../../emulator/emulator.c **** 					if(emu->Registers[rs1] < emu->Registers[rs2])
 613:../../emulator/emulator.c **** 					{
 614:../../emulator/emulator.c **** 						emu->PC += offset;
 615:../../emulator/emulator.c **** 						return 0;
 616:../../emulator/emulator.c **** 					}
 617:../../emulator/emulator.c **** 					break;
 618:../../emulator/emulator.c **** 
 619:../../emulator/emulator.c **** 				case 7:
 620:../../emulator/emulator.c **** 					/* BGEU */
 621:../../emulator/emulator.c **** #ifdef DEBUG
 622:../../emulator/emulator.c **** 					printf("bgeu r%d, r%d, pc%+d\n", rs1, rs2, offset);
 623:../../emulator/emulator.c **** #endif
 624:../../emulator/emulator.c **** 					if(emu->Registers[rs1] >= emu->Registers[rs2])
 625:../../emulator/emulator.c **** 					{
 626:../../emulator/emulator.c **** 						emu->PC += offset;
 627:../../emulator/emulator.c **** 						return 0;
 628:../../emulator/emulator.c **** 					}
 629:../../emulator/emulator.c **** 					break;
 630:../../emulator/emulator.c **** 
 631:../../emulator/emulator.c **** 				default:
 632:../../emulator/emulator.c **** 					/* INVALID */
 633:../../emulator/emulator.c **** #ifdef DEBUG
 634:../../emulator/emulator.c **** 					printf("INVALID\n");
 635:../../emulator/emulator.c **** #endif
 636:../../emulator/emulator.c **** 					return -1;
 637:../../emulator/emulator.c **** 			}
 638:../../emulator/emulator.c **** 			break;
 639:../../emulator/emulator.c **** 		}
 640:../../emulator/emulator.c **** 
 641:../../emulator/emulator.c **** 		case OPCODE_JAL:
 642:../../emulator/emulator.c **** 		{
 643:../../emulator/emulator.c **** 			i32 offset;
 644:../../emulator/emulator.c **** 			u32 rd, imm;
 645:../../emulator/emulator.c **** 			rd = (instr >> 7) & 0x1F;
 646:../../emulator/emulator.c **** 
 647:../../emulator/emulator.c **** 			imm = ((instr & 0x80000000) >> 12) |
 648:../../emulator/emulator.c **** 					(instr & 0xFF000) |
 649:../../emulator/emulator.c **** 					((instr & 0x100000) >> 9) |
 650:../../emulator/emulator.c **** 					((instr & 0x7FE00000) >> 20);
 651:../../emulator/emulator.c **** 
 652:../../emulator/emulator.c **** 			offset = sext(20, imm);
 653:../../emulator/emulator.c **** #ifdef DEBUG
 654:../../emulator/emulator.c **** 			printf("jal r%d, pc%+d\n", rd, offset);
 655:../../emulator/emulator.c **** #endif
 656:../../emulator/emulator.c **** 			emu->Registers[rd] = emu->PC + 4;
 657:../../emulator/emulator.c **** 			emu->PC += offset;
 658:../../emulator/emulator.c **** 			return 0;
 659:../../emulator/emulator.c **** 		}
 660:../../emulator/emulator.c **** 
 661:../../emulator/emulator.c **** 		case OPCODE_JALR:
 662:../../emulator/emulator.c **** 		{
 663:../../emulator/emulator.c **** 			i32 offset;
 664:../../emulator/emulator.c **** 			u32 rd, rs1, imm;
 665:../../emulator/emulator.c **** 			rd = (instr >> 7) & 0x1F;
 666:../../emulator/emulator.c **** 			rs1 = (instr >> 15) & 0x1F;
 667:../../emulator/emulator.c **** 			imm = (instr >> 20) & ~1;
 668:../../emulator/emulator.c **** 
 669:../../emulator/emulator.c **** 			offset = sext(12, imm);
 670:../../emulator/emulator.c **** #ifdef DEBUG
 671:../../emulator/emulator.c **** 			printf("jalr r%d, r%d%+d\n", rd, rs1, offset);
 672:../../emulator/emulator.c **** #endif
 673:../../emulator/emulator.c **** 			emu->Registers[rd] = emu->PC + 4;
 674:../../emulator/emulator.c **** 			emu->PC = emu->Registers[rs1] + offset;
 675:../../emulator/emulator.c **** 			return 0;
 676:../../emulator/emulator.c **** 		}
 677:../../emulator/emulator.c **** 
 678:../../emulator/emulator.c **** 		default:
 679:../../emulator/emulator.c **** 			/* INVALID */
 680:../../emulator/emulator.c **** #ifdef DEBUG
 681:../../emulator/emulator.c **** 			printf("INVALID\n");
 682:../../emulator/emulator.c **** #endif
 683:../../emulator/emulator.c **** 			return -1;
 684:../../emulator/emulator.c **** 	}
 685:../../emulator/emulator.c **** 
 686:../../emulator/emulator.c **** #ifdef DEBUG
 687:../../emulator/emulator.c **** 	end = clock();
 688:../../emulator/emulator.c **** 	time_spent = (double)(end - begin) / CLOCKS_PER_SEC;
 689:../../emulator/emulator.c **** 	printf("time spent = %f\n", time_spent);
 690:../../emulator/emulator.c **** #endif
 691:../../emulator/emulator.c **** 
 692:../../emulator/emulator.c **** 	emu->PC += 4;
 693:../../emulator/emulator.c **** 	return 0;
 694:../../emulator/emulator.c **** }
 695:../../emulator/emulator.c **** 
 696:../../emulator/emulator.c **** #define BOLDRED   "\033[1m\033[31m"
 697:../../emulator/emulator.c **** #define RESET     "\033[0m"
 698:../../emulator/emulator.c **** 
 699:../../emulator/emulator.c **** i32 emulator_call(Emulator *emu, u32 addr, u32 *args, u32 num, u32 sp, u32 max_instr)
 700:../../emulator/emulator.c **** {
  48               		.loc 1 700 1 is_stmt 1 view -0
  49               		.cfi_startproc
  50               		.loc 1 700 1 is_stmt 0 view .LVU8
  51 000e 2F92      		push r2
  52               		.cfi_def_cfa_offset 3
  53               		.cfi_offset 2, -2
  54 0010 3F92      		push r3
  55               		.cfi_def_cfa_offset 4
  56               		.cfi_offset 3, -3
  57 0012 4F92      		push r4
  58               		.cfi_def_cfa_offset 5
  59               		.cfi_offset 4, -4
  60 0014 5F92      		push r5
  61               		.cfi_def_cfa_offset 6
  62               		.cfi_offset 5, -5
  63 0016 6F92      		push r6
  64               		.cfi_def_cfa_offset 7
  65               		.cfi_offset 6, -6
  66 0018 7F92      		push r7
  67               		.cfi_def_cfa_offset 8
  68               		.cfi_offset 7, -7
  69 001a 8F92      		push r8
  70               		.cfi_def_cfa_offset 9
  71               		.cfi_offset 8, -8
  72 001c 9F92      		push r9
  73               		.cfi_def_cfa_offset 10
  74               		.cfi_offset 9, -9
  75 001e AF92      		push r10
  76               		.cfi_def_cfa_offset 11
  77               		.cfi_offset 10, -10
  78 0020 BF92      		push r11
  79               		.cfi_def_cfa_offset 12
  80               		.cfi_offset 11, -11
  81 0022 CF92      		push r12
  82               		.cfi_def_cfa_offset 13
  83               		.cfi_offset 12, -12
  84 0024 DF92      		push r13
  85               		.cfi_def_cfa_offset 14
  86               		.cfi_offset 13, -13
  87 0026 EF92      		push r14
  88               		.cfi_def_cfa_offset 15
  89               		.cfi_offset 14, -14
  90 0028 FF92      		push r15
  91               		.cfi_def_cfa_offset 16
  92               		.cfi_offset 15, -15
  93 002a 0F93      		push r16
  94               		.cfi_def_cfa_offset 17
  95               		.cfi_offset 16, -16
  96 002c 1F93      		push r17
  97               		.cfi_def_cfa_offset 18
  98               		.cfi_offset 17, -17
  99 002e CF93      		push r28
 100               		.cfi_def_cfa_offset 19
 101               		.cfi_offset 28, -18
 102 0030 DF93      		push r29
 103               		.cfi_def_cfa_offset 20
 104               		.cfi_offset 29, -19
 105 0032 CDB7      		in r28,__SP_L__
 106 0034 DEB7      		in r29,__SP_H__
 107               		.cfi_def_cfa_register 28
 108 0036 6097      		sbiw r28,16
 109               		.cfi_def_cfa_offset 36
 110 0038 0FB6      		in __tmp_reg__,__SREG__
 111 003a F894      		cli
 112 003c DEBF      		out __SP_H__,r29
 113 003e 0FBE      		out __SREG__,__tmp_reg__
 114 0040 CDBF      		out __SP_L__,r28
 115               	/* prologue: function */
 116               	/* frame size = 16 */
 117               	/* stack size = 34 */
 118               	.L__stack_usage = 34
 119 0042 4C01      		movw r8,r24
 701:../../emulator/emulator.c **** 	u32 i;
 120               		.loc 1 701 2 is_stmt 1 view .LVU9
 702:../../emulator/emulator.c **** 
 703:../../emulator/emulator.c **** 	/* Initialize Stack Pointer at end of memory */
 704:../../emulator/emulator.c **** 	emu->Registers[2] = sp;
 121               		.loc 1 704 2 view .LVU10
 122               		.loc 1 704 20 is_stmt 0 view .LVU11
 123 0044 FC01      		movw r30,r24
 124 0046 A486      		std Z+12,r10
 125 0048 B586      		std Z+13,r11
 126 004a C686      		std Z+14,r12
 127 004c D786      		std Z+15,r13
 705:../../emulator/emulator.c **** 
 706:../../emulator/emulator.c **** 	emu->PC = addr;
 128               		.loc 1 706 2 is_stmt 1 view .LVU12
 129               		.loc 1 706 10 is_stmt 0 view .LVU13
 130 004e 4083      		st Z,r20
 131 0050 5183      		std Z+1,r21
 132 0052 6283      		std Z+2,r22
 133 0054 7383      		std Z+3,r23
 707:../../emulator/emulator.c **** 	memcpy(&emu->Registers[10],
 134               		.loc 1 707 2 is_stmt 1 view .LVU14
 135               		.loc 1 707 9 is_stmt 0 view .LVU15
 136 0056 5C01      		movw r10,r24
 137               	.LVL3:
 138               		.loc 1 707 9 view .LVU16
 139 0058 FCE2      		ldi r31,44
 140 005a AF0E      		add r10,r31
 141 005c B11C      		adc r11,__zero_reg__
 142               		.loc 1 707 2 view .LVU17
 143 005e A701      		movw r20,r14
 144               	.LVL4:
 145               		.loc 1 707 2 view .LVU18
 146 0060 440F      		lsl r20
 147 0062 551F      		rol r21
 148 0064 440F      		lsl r20
 149 0066 551F      		rol r21
 150 0068 B901      		movw r22,r18
 151 006a C501      		movw r24,r10
 152               	.LVL5:
 153               		.loc 1 707 2 view .LVU19
 154 006c 0E94 0000 		call memcpy
 155               	.LVL6:
 708:../../emulator/emulator.c **** 		args, num * sizeof(*emu->Registers));
 709:../../emulator/emulator.c **** 
 710:../../emulator/emulator.c **** 	_finished = false;
 156               		.loc 1 710 2 is_stmt 1 view .LVU20
 157               		.loc 1 710 12 is_stmt 0 view .LVU21
 158 0070 1092 0000 		sts _finished,__zero_reg__
 711:../../emulator/emulator.c **** 	for(i = 0; i < max_instr; ++i)
 159               		.loc 1 711 2 is_stmt 1 view .LVU22
 160               	.LVL7:
 161               		.loc 1 711 8 is_stmt 0 view .LVU23
 162 0074 1D82      		std Y+5,__zero_reg__
 163 0076 1E82      		std Y+6,__zero_reg__
 164 0078 1F82      		std Y+7,__zero_reg__
 165 007a 1886      		std Y+8,__zero_reg__
 166               	.LBB89:
 167               	.LBB90:
 136:../../emulator/emulator.c **** 			{
 168               		.loc 1 136 7 view .LVU24
 169 007c 1401      		movw r2,r8
 170 007e 08E4      		ldi r16,72
 171 0080 200E      		add r2,r16
 172 0082 311C      		adc r3,__zero_reg__
 173               	.LVL8:
 174               	.L3:
 136:../../emulator/emulator.c **** 			{
 175               		.loc 1 136 7 view .LVU25
 176               	.LBE90:
 177               	.LBE89:
 178               		.loc 1 711 15 is_stmt 1 discriminator 1 view .LVU26
 179 0084 4D80      		ldd r4,Y+5
 180 0086 5E80      		ldd r5,Y+6
 181 0088 6F80      		ldd r6,Y+7
 182 008a 7884      		ldd r7,Y+8
 183 008c CDA0      		ldd r12,Y+37
 184 008e DEA0      		ldd r13,Y+38
 185 0090 EFA0      		ldd r14,Y+39
 186 0092 F8A4      		ldd r15,Y+40
 187 0094 4C14      		cp r4,r12
 188 0096 5D04      		cpc r5,r13
 189 0098 6E04      		cpc r6,r14
 190 009a 7F04      		cpc r7,r15
 191 009c 01F4      		brne .L68
 712:../../emulator/emulator.c **** 	{
 713:../../emulator/emulator.c **** 		emulator_next(emu);
 714:../../emulator/emulator.c **** 		if(_finished)
 715:../../emulator/emulator.c **** 		{
 716:../../emulator/emulator.c **** 			return 0;
 717:../../emulator/emulator.c **** 		}
 718:../../emulator/emulator.c **** 	}
 719:../../emulator/emulator.c **** 
 720:../../emulator/emulator.c **** 	/* TODO */
 721:../../emulator/emulator.c **** 	fprintf(stderr, BOLDRED "INSTRUCTION LIMIT EXCEEDED!\n" RESET);
 192               		.loc 1 721 2 view .LVU27
 193 009e 80E0      		ldi r24,lo8(.LC0)
 194 00a0 90E0      		ldi r25,hi8(.LC0)
 195 00a2 9F93      		push r25
 196               	.LVL9:
 197               		.loc 1 721 2 is_stmt 0 view .LVU28
 198 00a4 8F93      		push r24
 199 00a6 8091 0000 		lds r24,__iob+5
 200 00aa 8F93      		push r24
 201 00ac 8091 0000 		lds r24,__iob+4
 202 00b0 8F93      		push r24
 203 00b2 0E94 0000 		call fprintf
 204               	.LVL10:
 722:../../emulator/emulator.c **** 	exit(1);
 205               		.loc 1 722 2 is_stmt 1 view .LVU29
 206 00b6 81E0      		ldi r24,lo8(1)
 207 00b8 90E0      		ldi r25,0
 208 00ba 0E94 0000 		call exit
 209               	.LVL11:
 210               	.L68:
 713:../../emulator/emulator.c **** 		if(_finished)
 211               		.loc 1 713 3 view .LVU30
 212               	.LBB158:
 213               	.LBI89:
 106:../../emulator/emulator.c **** {
 214               		.loc 1 106 12 view .LVU31
 215               	.LBB156:
 115:../../emulator/emulator.c **** 	instr = memory_lw(emu->PC);
 216               		.loc 1 115 2 view .LVU32
 116:../../emulator/emulator.c **** 
 217               		.loc 1 116 2 view .LVU33
 116:../../emulator/emulator.c **** 
 218               		.loc 1 116 10 is_stmt 0 view .LVU34
 219 00be D401      		movw r26,r8
 220 00c0 2D91      		ld r18,X+
 221 00c2 3D91      		ld r19,X+
 222 00c4 4D91      		ld r20,X+
 223 00c6 5C91      		ld r21,X
 224 00c8 2983      		std Y+1,r18
 225 00ca 3A83      		std Y+2,r19
 226 00cc 4B83      		std Y+3,r20
 227 00ce 5C83      		std Y+4,r21
 228 00d0 CA01      		movw r24,r20
 229 00d2 B901      		movw r22,r18
 230 00d4 0E94 0000 		call memory_lw
 231               	.LVL12:
 232 00d8 462F      		mov r20,r22
 233 00da 572F      		mov r21,r23
 234 00dc BC01      		movw r22,r24
 235               	.LVL13:
 119:../../emulator/emulator.c **** 
 236               		.loc 1 119 2 is_stmt 1 view .LVU35
 119:../../emulator/emulator.c **** 
 237               		.loc 1 119 20 is_stmt 0 view .LVU36
 238 00de F401      		movw r30,r8
 239 00e0 1482      		std Z+4,__zero_reg__
 240 00e2 1582      		std Z+5,__zero_reg__
 241 00e4 1682      		std Z+6,__zero_reg__
 242 00e6 1782      		std Z+7,__zero_reg__
 122:../../emulator/emulator.c **** 	if((opcode & 0x03) != 0x03)
 243               		.loc 1 122 2 is_stmt 1 view .LVU37
 244               	.LVL14:
 123:../../emulator/emulator.c **** 	{
 245               		.loc 1 123 2 view .LVU38
 123:../../emulator/emulator.c **** 	{
 246               		.loc 1 123 13 is_stmt 0 view .LVU39
 247 00e8 DB01      		movw r26,r22
 248 00ea CA01      		movw r24,r20
 249 00ec 8370      		andi r24,3
 250 00ee 9927      		clr r25
 251 00f0 AA27      		clr r26
 252 00f2 BB27      		clr r27
 123:../../emulator/emulator.c **** 	{
 253               		.loc 1 123 4 view .LVU40
 254 00f4 0397      		sbiw r24,3
 255 00f6 A105      		cpc r26,__zero_reg__
 256 00f8 B105      		cpc r27,__zero_reg__
 257 00fa 01F0      		breq .+2
 258 00fc 00C0      		rjmp .L4
 132:../../emulator/emulator.c **** 	switch(opcode)
 259               		.loc 1 132 2 is_stmt 1 view .LVU41
 260               	.LVL15:
 133:../../emulator/emulator.c **** 	{
 261               		.loc 1 133 2 view .LVU42
 132:../../emulator/emulator.c **** 	switch(opcode)
 262               		.loc 1 132 9 is_stmt 0 view .LVU43
 263 00fe DB01      		movw r26,r22
 264 0100 CA01      		movw r24,r20
 265 0102 12E0      		ldi r17,2
 266               		1:
 267 0104 B695      		lsr r27
 268 0106 A795      		ror r26
 269 0108 9795      		ror r25
 270 010a 8795      		ror r24
 271 010c 1A95      		dec r17
 272 010e 01F4      		brne 1b
 273 0110 8F71      		andi r24,31
 274 0112 9927      		clr r25
 275 0114 AA27      		clr r26
 276 0116 BB27      		clr r27
 277               	.LVL16:
 133:../../emulator/emulator.c **** 	{
 278               		.loc 1 133 2 view .LVU44
 279 0118 8D31      		cpi r24,29
 280 011a 9105      		cpc r25,__zero_reg__
 281 011c A105      		cpc r26,__zero_reg__
 282 011e B105      		cpc r27,__zero_reg__
 283 0120 00F0      		brlo .+2
 284 0122 00C0      		rjmp .L4
 285 0124 FC01      		movw r30,r24
 286 0126 E050      		subi r30,lo8(-(gs(.L6)))
 287 0128 F040      		sbci r31,hi8(-(gs(.L6)))
 288 012a 0C94 0000 		jmp __tablejump2__
 289               		.section	.jumptables.gcc.emulator_call,"a",@progbits
 290               		.p2align	1
 291               	.L6:
 292 0000 0000      		.word gs(.L15)
 293 0002 0000      		.word gs(.L4)
 294 0004 0000      		.word gs(.L4)
 295 0006 0000      		.word gs(.L4)
 296 0008 0000      		.word gs(.L14)
 297 000a 0000      		.word gs(.L13)
 298 000c 0000      		.word gs(.L4)
 299 000e 0000      		.word gs(.L4)
 300 0010 0000      		.word gs(.L12)
 301 0012 0000      		.word gs(.L4)
 302 0014 0000      		.word gs(.L4)
 303 0016 0000      		.word gs(.L4)
 304 0018 0000      		.word gs(.L11)
 305 001a 0000      		.word gs(.L10)
 306 001c 0000      		.word gs(.L4)
 307 001e 0000      		.word gs(.L4)
 308 0020 0000      		.word gs(.L4)
 309 0022 0000      		.word gs(.L4)
 310 0024 0000      		.word gs(.L4)
 311 0026 0000      		.word gs(.L4)
 312 0028 0000      		.word gs(.L4)
 313 002a 0000      		.word gs(.L4)
 314 002c 0000      		.word gs(.L4)
 315 002e 0000      		.word gs(.L4)
 316 0030 0000      		.word gs(.L9)
 317 0032 0000      		.word gs(.L8)
 318 0034 0000      		.word gs(.L4)
 319 0036 0000      		.word gs(.L7)
 320 0038 0000      		.word gs(.L5)
 321               		.text
 322               	.L5:
 136:../../emulator/emulator.c **** 			{
 323               		.loc 1 136 4 is_stmt 1 view .LVU45
 136:../../emulator/emulator.c **** 			{
 324               		.loc 1 136 7 is_stmt 0 view .LVU46
 325 012e F101      		movw r30,r2
 326 0130 8081      		ld r24,Z
 327 0132 9181      		ldd r25,Z+1
 328 0134 A281      		ldd r26,Z+2
 329 0136 B381      		ldd r27,Z+3
 330               	.LVL17:
 331               	.LBB91:
 332               	.LBI91:
  78:../../emulator/emulator.c **** {
 333               		.loc 1 78 12 is_stmt 1 view .LVU47
 334               	.LBB92:
  80:../../emulator/emulator.c **** 	{
 335               		.loc 1 80 2 view .LVU48
  80:../../emulator/emulator.c **** 	{
 336               		.loc 1 80 4 is_stmt 0 view .LVU49
 337 0138 8931      		cpi r24,25
 338 013a 9105      		cpc r25,__zero_reg__
 339 013c A105      		cpc r26,__zero_reg__
 340 013e B105      		cpc r27,__zero_reg__
 341 0140 00F0      		brlo .+2
 342 0142 00C0      		rjmp .L4
  85:../../emulator/emulator.c **** 	return 0;
 343               		.loc 1 85 2 is_stmt 1 view .LVU50
  85:../../emulator/emulator.c **** 	return 0;
 344               		.loc 1 85 20 is_stmt 0 view .LVU51
 345 0144 880F      		lsl r24
 346 0146 991F      		rol r25
 347               	.LVL18:
  85:../../emulator/emulator.c **** 	return 0;
 348               		.loc 1 85 20 view .LVU52
 349 0148 FC01      		movw r30,r24
 350 014a E050      		subi r30,lo8(-(syscalls))
 351 014c F040      		sbci r31,hi8(-(syscalls))
  85:../../emulator/emulator.c **** 	return 0;
 352               		.loc 1 85 12 view .LVU53
 353 014e 0190      		ld __tmp_reg__,Z+
 354 0150 F081      		ld r31,Z
 355 0152 E02D      		mov r30,__tmp_reg__
 356 0154 C501      		movw r24,r10
 357 0156 0995      		icall
 358               	.LVL19:
  85:../../emulator/emulator.c **** 	return 0;
 359               		.loc 1 85 12 view .LVU54
 360 0158 D401      		movw r26,r8
 361 015a 9C96      		adiw r26,44
 362 015c 6D93      		st X+,r22
 363 015e 7D93      		st X+,r23
 364 0160 8D93      		st X+,r24
 365 0162 9C93      		st X,r25
 366 0164 9F97      		sbiw r26,44+3
  86:../../emulator/emulator.c **** }
 367               		.loc 1 86 2 is_stmt 1 view .LVU55
 368               	.LVL20:
 369               	.L16:
  86:../../emulator/emulator.c **** }
 370               		.loc 1 86 2 is_stmt 0 view .LVU56
 371               	.LBE92:
 372               	.LBE91:
 692:../../emulator/emulator.c **** 	return 0;
 373               		.loc 1 692 2 is_stmt 1 view .LVU57
 692:../../emulator/emulator.c **** 	return 0;
 374               		.loc 1 692 10 is_stmt 0 view .LVU58
 375 0166 F401      		movw r30,r8
 376 0168 8081      		ld r24,Z
 377 016a 9181      		ldd r25,Z+1
 378 016c A281      		ldd r26,Z+2
 379 016e B381      		ldd r27,Z+3
 380 0170 0496      		adiw r24,4
 381 0172 A11D      		adc r26,__zero_reg__
 382 0174 B11D      		adc r27,__zero_reg__
 383 0176 00C0      		rjmp .L81
 384               	.LVL21:
 385               	.L15:
 386               	.LBB93:
 147:../../emulator/emulator.c **** 			u32 rd, rs1, funct3, imm;
 387               		.loc 1 147 4 is_stmt 1 view .LVU59
 148:../../emulator/emulator.c **** 			rd = (instr >> 7) & 0x1F;
 388               		.loc 1 148 4 view .LVU60
 149:../../emulator/emulator.c **** 			funct3 = (instr >> 12) & 0x07;
 389               		.loc 1 149 4 view .LVU61
 149:../../emulator/emulator.c **** 			funct3 = (instr >> 12) & 0x07;
 390               		.loc 1 149 16 is_stmt 0 view .LVU62
 391 0178 6A01      		movw r12,r20
 392 017a 7B01      		movw r14,r22
 393 017c 27E0      		ldi r18,7
 394               		1:
 395 017e F694      		lsr r15
 396 0180 E794      		ror r14
 397 0182 D794      		ror r13
 398 0184 C794      		ror r12
 399 0186 2A95      		dec r18
 400 0188 01F4      		brne 1b
 149:../../emulator/emulator.c **** 			funct3 = (instr >> 12) & 0x07;
 401               		.loc 1 149 7 view .LVU63
 402 018a BFE1      		ldi r27,31
 403 018c CB22      		and r12,r27
 404 018e DD24      		clr r13
 405 0190 EE24      		clr r14
 406 0192 FF24      		clr r15
 150:../../emulator/emulator.c **** 			rs1 = (instr >> 15) & 0x1F;
 407               		.loc 1 150 4 is_stmt 1 view .LVU64
 150:../../emulator/emulator.c **** 			rs1 = (instr >> 15) & 0x1F;
 408               		.loc 1 150 20 is_stmt 0 view .LVU65
 409 0194 2A01      		movw r4,r20
 410 0196 3B01      		movw r6,r22
 411               	.LVL22:
 150:../../emulator/emulator.c **** 			rs1 = (instr >> 15) & 0x1F;
 412               		.loc 1 150 20 view .LVU66
 413 0198 3CE0      		ldi r19,12
 414               		1:
 415 019a 7694      		lsr r7
 416 019c 6794      		ror r6
 417 019e 5794      		ror r5
 418 01a0 4794      		ror r4
 419 01a2 3A95      		dec r19
 420 01a4 01F4      		brne 1b
 150:../../emulator/emulator.c **** 			rs1 = (instr >> 15) & 0x1F;
 421               		.loc 1 150 11 view .LVU67
 422 01a6 E7E0      		ldi r30,7
 423 01a8 4E22      		and r4,r30
 424 01aa 5524      		clr r5
 425 01ac 6624      		clr r6
 426 01ae 7724      		clr r7
 427               	.LVL23:
 151:../../emulator/emulator.c **** 			imm = (instr >> 20);
 428               		.loc 1 151 4 is_stmt 1 view .LVU68
 151:../../emulator/emulator.c **** 			imm = (instr >> 20);
 429               		.loc 1 151 17 is_stmt 0 view .LVU69
 430 01b0 DB01      		movw r26,r22
 431 01b2 CA01      		movw r24,r20
 432               	.LVL24:
 151:../../emulator/emulator.c **** 			imm = (instr >> 20);
 433               		.loc 1 151 17 view .LVU70
 434 01b4 EFE0      		ldi r30,15
 435               		1:
 436 01b6 B695      		lsr r27
 437 01b8 A795      		ror r26
 438 01ba 9795      		ror r25
 439 01bc 8795      		ror r24
 440 01be EA95      		dec r30
 441 01c0 01F4      		brne 1b
 151:../../emulator/emulator.c **** 			imm = (instr >> 20);
 442               		.loc 1 151 8 view .LVU71
 443 01c2 8F71      		andi r24,31
 444 01c4 9927      		clr r25
 445 01c6 AA27      		clr r26
 446 01c8 BB27      		clr r27
 152:../../emulator/emulator.c **** 			offset = sext(12, imm);
 447               		.loc 1 152 4 is_stmt 1 view .LVU72
 448               	.LVL25:
 153:../../emulator/emulator.c **** 			switch(funct3)
 449               		.loc 1 153 4 view .LVU73
 450               	.LBB94:
 451               	.LBI94:
  26:../../emulator/emulator.c **** {
 452               		.loc 1 26 19 view .LVU74
 453               	.LBB95:
  28:../../emulator/emulator.c **** 	return (value ^ m) - m;
 454               		.loc 1 28 2 view .LVU75
  29:../../emulator/emulator.c **** }
 455               		.loc 1 29 2 view .LVU76
 456               	.LBE95:
 457               	.LBE94:
 152:../../emulator/emulator.c **** 			offset = sext(12, imm);
 458               		.loc 1 152 8 is_stmt 0 view .LVU77
 459 01ca F4E1      		ldi r31,20
 460               		1:
 461 01cc 7695      		lsr r23
 462 01ce 6795      		ror r22
 463 01d0 5795      		ror r21
 464 01d2 4795      		ror r20
 465 01d4 FA95      		dec r31
 466 01d6 01F4      		brne 1b
 467               	.LVL26:
 468               	.LBB97:
 469               	.LBB96:
  29:../../emulator/emulator.c **** }
 470               		.loc 1 29 16 view .LVU78
 471 01d8 F8E0      		ldi r31,8
 472 01da 5F27      		eor r21,r31
 473               	.LVL27:
  29:../../emulator/emulator.c **** }
 474               		.loc 1 29 21 view .LVU79
 475 01dc 5850      		subi r21,8
 476 01de 6109      		sbc r22,__zero_reg__
 477 01e0 7109      		sbc r23,__zero_reg__
 478               	.LVL28:
  29:../../emulator/emulator.c **** }
 479               		.loc 1 29 21 view .LVU80
 480               	.LBE96:
 481               	.LBE97:
 154:../../emulator/emulator.c **** 			{
 482               		.loc 1 154 4 is_stmt 1 view .LVU81
 483 01e2 02E0      		ldi r16,2
 484 01e4 4016      		cp r4,r16
 485 01e6 5104      		cpc r5,__zero_reg__
 486 01e8 6104      		cpc r6,__zero_reg__
 487 01ea 7104      		cpc r7,__zero_reg__
 488 01ec 01F4      		brne .+2
 489 01ee 00C0      		rjmp .L17
 490 01f0 00F4      		brsh .L18
 491 01f2 0196      		adiw r24,1
 492 01f4 8601      		movw r16,r12
 493 01f6 0F5F      		subi r16,-1
 494 01f8 1F4F      		sbci r17,-1
 495 01fa 4528      		or r4,r5
 496 01fc 4628      		or r4,r6
 497 01fe 4728      		or r4,r7
 498 0200 01F0      		breq .+2
 499 0202 00C0      		rjmp .L69
 161:../../emulator/emulator.c **** 					break;
 500               		.loc 1 161 6 view .LVU82
 161:../../emulator/emulator.c **** 					break;
 501               		.loc 1 161 51 is_stmt 0 view .LVU83
 502 0204 FC01      		movw r30,r24
 503 0206 EE0F      		lsl r30
 504 0208 FF1F      		rol r31
 505 020a EE0F      		lsl r30
 506 020c FF1F      		rol r31
 507 020e E80D      		add r30,r8
 508 0210 F91D      		adc r31,r9
 161:../../emulator/emulator.c **** 					break;
 509               		.loc 1 161 27 view .LVU84
 510 0212 8081      		ld r24,Z
 511 0214 9181      		ldd r25,Z+1
 512 0216 A281      		ldd r26,Z+2
 513 0218 B381      		ldd r27,Z+3
 514 021a 2A01      		movw r4,r20
 515 021c 3B01      		movw r6,r22
 516               	.LVL29:
 161:../../emulator/emulator.c **** 					break;
 517               		.loc 1 161 27 view .LVU85
 518 021e 480E      		add r4,r24
 519 0220 591E      		adc r5,r25
 520 0222 6A1E      		adc r6,r26
 521 0224 7B1E      		adc r7,r27
 522 0226 C301      		movw r24,r6
 523 0228 B201      		movw r22,r4
 524 022a 0E94 0000 		call memory_lb
 525               	.LVL30:
 526               	.L72:
 169:../../emulator/emulator.c **** 					break;
 527               		.loc 1 169 27 view .LVU86
 528 022e 6983      		std Y+1,r22
 529 0230 7A83      		std Y+2,r23
 530 0232 8B83      		std Y+3,r24
 531 0234 9C83      		std Y+4,r25
 169:../../emulator/emulator.c **** 					break;
 532               		.loc 1 169 25 view .LVU87
 533 0236 F801      		movw r30,r16
 534               	.L73:
 169:../../emulator/emulator.c **** 					break;
 535               		.loc 1 169 25 view .LVU88
 536 0238 EE0F      		lsl r30
 537 023a FF1F      		rol r31
 538 023c EE0F      		lsl r30
 539 023e FF1F      		rol r31
 540 0240 E80D      		add r30,r8
 541 0242 F91D      		adc r31,r9
 542               	.LVL31:
 543               	.L78:
 169:../../emulator/emulator.c **** 					break;
 544               		.loc 1 169 25 view .LVU89
 545 0244 6083      		st Z,r22
 546 0246 7183      		std Z+1,r23
 547 0248 8283      		std Z+2,r24
 548 024a 9383      		std Z+3,r25
 170:../../emulator/emulator.c **** 
 549               		.loc 1 170 6 is_stmt 1 view .LVU90
 550 024c 00C0      		rjmp .L16
 551               	.LVL32:
 552               	.L18:
 170:../../emulator/emulator.c **** 
 553               		.loc 1 170 6 is_stmt 0 view .LVU91
 554 024e 24E0      		ldi r18,4
 555 0250 4216      		cp r4,r18
 556 0252 5104      		cpc r5,__zero_reg__
 557 0254 6104      		cpc r6,__zero_reg__
 558 0256 7104      		cpc r7,__zero_reg__
 559 0258 01F4      		brne .+2
 560 025a 00C0      		rjmp .L21
 561 025c 35E0      		ldi r19,5
 562 025e 4316      		cp r4,r19
 563 0260 5104      		cpc r5,__zero_reg__
 564 0262 6104      		cpc r6,__zero_reg__
 565 0264 7104      		cpc r7,__zero_reg__
 566 0266 01F4      		brne .+2
 567 0268 00C0      		rjmp .L22
 568               	.LVL33:
 569               	.L4:
 170:../../emulator/emulator.c **** 
 570               		.loc 1 170 6 view .LVU92
 571               	.LBE93:
 572               	.LBE156:
 573               	.LBE158:
 714:../../emulator/emulator.c **** 		{
 574               		.loc 1 714 3 is_stmt 1 view .LVU93
 714:../../emulator/emulator.c **** 		{
 575               		.loc 1 714 5 is_stmt 0 view .LVU94
 576 026a 8091 0000 		lds r24,_finished
 577 026e 8111      		cpse r24,__zero_reg__
 578 0270 00C0      		rjmp .L71
 711:../../emulator/emulator.c **** 	{
 579               		.loc 1 711 28 is_stmt 1 discriminator 2 view .LVU95
 580 0272 0D81      		ldd r16,Y+5
 581 0274 1E81      		ldd r17,Y+6
 582 0276 2F81      		ldd r18,Y+7
 583 0278 3885      		ldd r19,Y+8
 584 027a 0F5F      		subi r16,-1
 585 027c 1F4F      		sbci r17,-1
 586 027e 2F4F      		sbci r18,-1
 587 0280 3F4F      		sbci r19,-1
 588 0282 0D83      		std Y+5,r16
 589 0284 1E83      		std Y+6,r17
 590 0286 2F83      		std Y+7,r18
 591 0288 3887      		std Y+8,r19
 592               	.LVL34:
 711:../../emulator/emulator.c **** 	{
 593               		.loc 1 711 28 is_stmt 0 discriminator 2 view .LVU96
 594 028a 00C0      		rjmp .L3
 595               	.LVL35:
 596               	.L69:
 597               	.LBB159:
 598               	.LBB157:
 599               	.LBB98:
 169:../../emulator/emulator.c **** 					break;
 600               		.loc 1 169 6 is_stmt 1 view .LVU97
 169:../../emulator/emulator.c **** 					break;
 601               		.loc 1 169 51 is_stmt 0 view .LVU98
 602 028c FC01      		movw r30,r24
 603 028e EE0F      		lsl r30
 604 0290 FF1F      		rol r31
 605 0292 EE0F      		lsl r30
 606 0294 FF1F      		rol r31
 607 0296 E80D      		add r30,r8
 608 0298 F91D      		adc r31,r9
 169:../../emulator/emulator.c **** 					break;
 609               		.loc 1 169 27 view .LVU99
 610 029a 8081      		ld r24,Z
 611 029c 9181      		ldd r25,Z+1
 612 029e A281      		ldd r26,Z+2
 613 02a0 B381      		ldd r27,Z+3
 614 02a2 6A01      		movw r12,r20
 615 02a4 7B01      		movw r14,r22
 616 02a6 C80E      		add r12,r24
 617 02a8 D91E      		adc r13,r25
 618 02aa EA1E      		adc r14,r26
 619 02ac FB1E      		adc r15,r27
 620 02ae C701      		movw r24,r14
 621 02b0 B601      		movw r22,r12
 622 02b2 0E94 0000 		call memory_lh
 623               	.LVL36:
 169:../../emulator/emulator.c **** 					break;
 624               		.loc 1 169 27 view .LVU100
 625 02b6 00C0      		rjmp .L72
 626               	.LVL37:
 627               	.L17:
 177:../../emulator/emulator.c **** 					break;
 628               		.loc 1 177 6 is_stmt 1 view .LVU101
 177:../../emulator/emulator.c **** 					break;
 629               		.loc 1 177 51 is_stmt 0 view .LVU102
 630 02b8 FC01      		movw r30,r24
 631 02ba 3196      		adiw r30,1
 632 02bc EE0F      		lsl r30
 633 02be FF1F      		rol r31
 634 02c0 EE0F      		lsl r30
 635 02c2 FF1F      		rol r31
 636 02c4 E80D      		add r30,r8
 637 02c6 F91D      		adc r31,r9
 177:../../emulator/emulator.c **** 					break;
 638               		.loc 1 177 27 view .LVU103
 639 02c8 8081      		ld r24,Z
 640 02ca 9181      		ldd r25,Z+1
 641 02cc A281      		ldd r26,Z+2
 642 02ce B381      		ldd r27,Z+3
 643 02d0 8A01      		movw r16,r20
 644 02d2 9B01      		movw r18,r22
 645 02d4 080F      		add r16,r24
 646 02d6 191F      		adc r17,r25
 647 02d8 2A1F      		adc r18,r26
 648 02da 3B1F      		adc r19,r27
 649 02dc C901      		movw r24,r18
 650 02de B801      		movw r22,r16
 651 02e0 0E94 0000 		call memory_lw
 652               	.LVL38:
 653               	.L82:
 185:../../emulator/emulator.c **** 					break;
 654               		.loc 1 185 27 view .LVU104
 655 02e4 6983      		std Y+1,r22
 656 02e6 7A83      		std Y+2,r23
 657 02e8 8B83      		std Y+3,r24
 658 02ea 9C83      		std Y+4,r25
 185:../../emulator/emulator.c **** 					break;
 659               		.loc 1 185 25 view .LVU105
 660 02ec F601      		movw r30,r12
 661 02ee 3196      		adiw r30,1
 662 02f0 00C0      		rjmp .L73
 663               	.LVL39:
 664               	.L21:
 185:../../emulator/emulator.c **** 					break;
 665               		.loc 1 185 6 is_stmt 1 view .LVU106
 185:../../emulator/emulator.c **** 					break;
 666               		.loc 1 185 52 is_stmt 0 view .LVU107
 667 02f2 FC01      		movw r30,r24
 668 02f4 3196      		adiw r30,1
 669 02f6 EE0F      		lsl r30
 670 02f8 FF1F      		rol r31
 671 02fa EE0F      		lsl r30
 672 02fc FF1F      		rol r31
 673 02fe E80D      		add r30,r8
 674 0300 F91D      		adc r31,r9
 185:../../emulator/emulator.c **** 					break;
 675               		.loc 1 185 27 view .LVU108
 676 0302 8081      		ld r24,Z
 677 0304 9181      		ldd r25,Z+1
 678 0306 A281      		ldd r26,Z+2
 679 0308 B381      		ldd r27,Z+3
 680 030a 2A01      		movw r4,r20
 681 030c 3B01      		movw r6,r22
 682               	.LVL40:
 185:../../emulator/emulator.c **** 					break;
 683               		.loc 1 185 27 view .LVU109
 684 030e 480E      		add r4,r24
 685 0310 591E      		adc r5,r25
 686 0312 6A1E      		adc r6,r26
 687 0314 7B1E      		adc r7,r27
 688 0316 C301      		movw r24,r6
 689 0318 B201      		movw r22,r4
 690 031a 0E94 0000 		call memory_lbu
 691               	.LVL41:
 185:../../emulator/emulator.c **** 					break;
 692               		.loc 1 185 27 view .LVU110
 693 031e 00C0      		rjmp .L82
 694               	.LVL42:
 695               	.L22:
 193:../../emulator/emulator.c **** 					break;
 696               		.loc 1 193 6 is_stmt 1 view .LVU111
 193:../../emulator/emulator.c **** 					break;
 697               		.loc 1 193 52 is_stmt 0 view .LVU112
 698 0320 FC01      		movw r30,r24
 699 0322 3196      		adiw r30,1
 700 0324 EE0F      		lsl r30
 701 0326 FF1F      		rol r31
 702 0328 EE0F      		lsl r30
 703 032a FF1F      		rol r31
 704 032c E80D      		add r30,r8
 705 032e F91D      		adc r31,r9
 193:../../emulator/emulator.c **** 					break;
 706               		.loc 1 193 27 view .LVU113
 707 0330 8081      		ld r24,Z
 708 0332 9181      		ldd r25,Z+1
 709 0334 A281      		ldd r26,Z+2
 710 0336 B381      		ldd r27,Z+3
 711 0338 8A01      		movw r16,r20
 712 033a 9B01      		movw r18,r22
 713 033c 080F      		add r16,r24
 714 033e 191F      		adc r17,r25
 715 0340 2A1F      		adc r18,r26
 716 0342 3B1F      		adc r19,r27
 717 0344 C901      		movw r24,r18
 718 0346 B801      		movw r22,r16
 719 0348 0E94 0000 		call memory_lhu
 720               	.LVL43:
 193:../../emulator/emulator.c **** 					break;
 721               		.loc 1 193 27 view .LVU114
 722 034c 00C0      		rjmp .L82
 723               	.LVL44:
 724               	.L14:
 193:../../emulator/emulator.c **** 					break;
 725               		.loc 1 193 27 view .LVU115
 726               	.LBE98:
 727               	.LBB99:
 208:../../emulator/emulator.c **** 			rd = (instr >> 7) & 0x1F;
 728               		.loc 1 208 4 is_stmt 1 view .LVU116
 209:../../emulator/emulator.c **** 			funct3 = (instr >> 12) & 0x07;
 729               		.loc 1 209 4 view .LVU117
 209:../../emulator/emulator.c **** 			funct3 = (instr >> 12) & 0x07;
 730               		.loc 1 209 16 is_stmt 0 view .LVU118
 731 034e DB01      		movw r26,r22
 732 0350 CA01      		movw r24,r20
 733               	.LVL45:
 209:../../emulator/emulator.c **** 			funct3 = (instr >> 12) & 0x07;
 734               		.loc 1 209 16 view .LVU119
 735 0352 E7E0      		ldi r30,7
 736               		1:
 737 0354 B695      		lsr r27
 738 0356 A795      		ror r26
 739 0358 9795      		ror r25
 740 035a 8795      		ror r24
 741 035c EA95      		dec r30
 742 035e 01F4      		brne 1b
 209:../../emulator/emulator.c **** 			funct3 = (instr >> 12) & 0x07;
 743               		.loc 1 209 7 view .LVU120
 744 0360 8F71      		andi r24,31
 745 0362 9927      		clr r25
 746 0364 AA27      		clr r26
 747 0366 BB27      		clr r27
 210:../../emulator/emulator.c **** 			rs1 = (instr >> 15) & 0x1F;
 748               		.loc 1 210 4 is_stmt 1 view .LVU121
 749               	.LVL46:
 211:../../emulator/emulator.c **** 			imm = (instr >> 20);
 750               		.loc 1 211 4 view .LVU122
 212:../../emulator/emulator.c **** 			switch(funct3)
 751               		.loc 1 212 4 view .LVU123
 212:../../emulator/emulator.c **** 			switch(funct3)
 752               		.loc 1 212 8 is_stmt 0 view .LVU124
 753 0368 8A01      		movw r16,r20
 754 036a 9B01      		movw r18,r22
 755 036c F4E1      		ldi r31,20
 756               		1:
 757 036e 3695      		lsr r19
 758 0370 2795      		ror r18
 759 0372 1795      		ror r17
 760 0374 0795      		ror r16
 761 0376 FA95      		dec r31
 762 0378 01F4      		brne 1b
 763               	.LVL47:
 213:../../emulator/emulator.c **** 			{
 764               		.loc 1 213 4 is_stmt 1 view .LVU125
 211:../../emulator/emulator.c **** 			imm = (instr >> 20);
 765               		.loc 1 211 17 is_stmt 0 view .LVU126
 766 037a 6A01      		movw r12,r20
 767 037c 7B01      		movw r14,r22
 768 037e AFE0      		ldi r26,15
 769               		1:
 770 0380 F694      		lsr r15
 771 0382 E794      		ror r14
 772 0384 D794      		ror r13
 773 0386 C794      		ror r12
 774 0388 AA95      		dec r26
 775 038a 01F4      		brne 1b
 211:../../emulator/emulator.c **** 			imm = (instr >> 20);
 776               		.loc 1 211 8 view .LVU127
 777 038c EFE1      		ldi r30,31
 778 038e CE22      		and r12,r30
 779 0390 DD24      		clr r13
 780 0392 EE24      		clr r14
 781 0394 FF24      		clr r15
 782               	.LVL48:
 211:../../emulator/emulator.c **** 			imm = (instr >> 20);
 783               		.loc 1 211 8 view .LVU128
 784               	.LBE99:
 785               	.LBB120:
 161:../../emulator/emulator.c **** 					break;
 786               		.loc 1 161 51 view .LVU129
 787 0396 F601      		movw r30,r12
 788 0398 3196      		adiw r30,1
 789 039a EE0F      		lsl r30
 790 039c FF1F      		rol r31
 791 039e EE0F      		lsl r30
 792 03a0 FF1F      		rol r31
 793 03a2 E80D      		add r30,r8
 794 03a4 F91D      		adc r31,r9
 795 03a6 C080      		ld r12,Z
 796 03a8 D180      		ldd r13,Z+1
 797 03aa E280      		ldd r14,Z+2
 798 03ac F380      		ldd r15,Z+3
 799               	.LVL49:
 161:../../emulator/emulator.c **** 					break;
 800               		.loc 1 161 51 view .LVU130
 801               	.LBE120:
 802               	.LBB121:
 210:../../emulator/emulator.c **** 			rs1 = (instr >> 15) & 0x1F;
 803               		.loc 1 210 20 view .LVU131
 804 03ae 2A01      		movw r4,r20
 805 03b0 3B01      		movw r6,r22
 806               	.LVL50:
 210:../../emulator/emulator.c **** 			rs1 = (instr >> 15) & 0x1F;
 807               		.loc 1 210 20 view .LVU132
 808 03b2 ECE0      		ldi r30,12
 809               		1:
 810 03b4 7694      		lsr r7
 811 03b6 6794      		ror r6
 812 03b8 5794      		ror r5
 813 03ba 4794      		ror r4
 814 03bc EA95      		dec r30
 815 03be 01F4      		brne 1b
 210:../../emulator/emulator.c **** 			rs1 = (instr >> 15) & 0x1F;
 816               		.loc 1 210 11 view .LVU133
 817 03c0 F7E0      		ldi r31,7
 818 03c2 4F22      		and r4,r31
 819 03c4 5524      		clr r5
 820 03c6 6624      		clr r6
 821 03c8 7724      		clr r7
 822               	.LVL51:
 210:../../emulator/emulator.c **** 			rs1 = (instr >> 15) & 0x1F;
 823               		.loc 1 210 11 view .LVU134
 824 03ca E1E0      		ldi r30,1
 825 03cc 4E1A      		sub r4,r30
 826 03ce 5108      		sbc r5,__zero_reg__
 827 03d0 6108      		sbc r6,__zero_reg__
 828 03d2 7108      		sbc r7,__zero_reg__
 829               	.LVL52:
 210:../../emulator/emulator.c **** 			rs1 = (instr >> 15) & 0x1F;
 830               		.loc 1 210 11 view .LVU135
 831 03d4 0196      		adiw r24,1
 832 03d6 F7E0      		ldi r31,7
 833 03d8 4F16      		cp r4,r31
 834 03da 5104      		cpc r5,__zero_reg__
 835 03dc 6104      		cpc r6,__zero_reg__
 836 03de 7104      		cpc r7,__zero_reg__
 837 03e0 00F4      		brsh .L23
 838 03e2 F201      		movw r30,r4
 839 03e4 E050      		subi r30,lo8(-(gs(.L25)))
 840 03e6 F040      		sbci r31,hi8(-(gs(.L25)))
 841 03e8 0C94 0000 		jmp __tablejump2__
 842               		.section	.jumptables.gcc.emulator_call,"a",@progbits
 843               		.p2align	1
 844               	.L25:
 845 003a 0000      		.word gs(.L31)
 846 003c 0000      		.word gs(.L30)
 847 003e 0000      		.word gs(.L29)
 848 0040 0000      		.word gs(.L28)
 849 0042 0000      		.word gs(.L27)
 850 0044 0000      		.word gs(.L26)
 851 0046 0000      		.word gs(.L24)
 852               		.text
 853               	.L23:
 217:../../emulator/emulator.c **** #ifdef DEBUG
 854               		.loc 1 217 6 is_stmt 1 view .LVU136
 855               	.LVL53:
 856               	.LBB100:
 857               	.LBI100:
  26:../../emulator/emulator.c **** {
 858               		.loc 1 26 19 view .LVU137
 859               	.LBB101:
  28:../../emulator/emulator.c **** 	return (value ^ m) - m;
 860               		.loc 1 28 2 view .LVU138
  29:../../emulator/emulator.c **** }
 861               		.loc 1 29 2 view .LVU139
  29:../../emulator/emulator.c **** }
 862               		.loc 1 29 2 is_stmt 0 view .LVU140
 863               	.LBE101:
 864               	.LBE100:
 221:../../emulator/emulator.c **** 					break;
 865               		.loc 1 221 6 is_stmt 1 view .LVU141
 221:../../emulator/emulator.c **** 					break;
 866               		.loc 1 221 25 is_stmt 0 view .LVU142
 867 03ec FC01      		movw r30,r24
 868 03ee EE0F      		lsl r30
 869 03f0 FF1F      		rol r31
 870 03f2 EE0F      		lsl r30
 871 03f4 FF1F      		rol r31
 872 03f6 E80D      		add r30,r8
 873 03f8 F91D      		adc r31,r9
 874               	.LBB103:
 875               	.LBB102:
  29:../../emulator/emulator.c **** }
 876               		.loc 1 29 16 view .LVU143
 877 03fa 48E0      		ldi r20,8
 878 03fc 1427      		eor r17,r20
 879               	.LVL54:
  29:../../emulator/emulator.c **** }
 880               		.loc 1 29 21 view .LVU144
 881 03fe 1850      		subi r17,8
 882 0400 2109      		sbc r18,__zero_reg__
 883 0402 3109      		sbc r19,__zero_reg__
 884               	.LVL55:
  29:../../emulator/emulator.c **** }
 885               		.loc 1 29 21 view .LVU145
 886               	.LBE102:
 887               	.LBE103:
 221:../../emulator/emulator.c **** 					break;
 888               		.loc 1 221 47 view .LVU146
 889 0404 0C0D      		add r16,r12
 890 0406 1D1D      		adc r17,r13
 891 0408 2E1D      		adc r18,r14
 892 040a 3F1D      		adc r19,r15
 893               	.LVL56:
 894               	.L74:
 256:../../emulator/emulator.c **** 					break;
 895               		.loc 1 256 25 view .LVU147
 896 040c 0083      		st Z,r16
 897 040e 1183      		std Z+1,r17
 898 0410 2283      		std Z+2,r18
 899 0412 3383      		std Z+3,r19
 257:../../emulator/emulator.c **** 
 900               		.loc 1 257 6 is_stmt 1 view .LVU148
 901 0414 00C0      		rjmp .L16
 902               	.LVL57:
 903               	.L31:
 226:../../emulator/emulator.c **** #ifdef DEBUG
 904               		.loc 1 226 6 view .LVU149
 230:../../emulator/emulator.c **** 					break;
 905               		.loc 1 230 6 view .LVU150
 230:../../emulator/emulator.c **** 					break;
 906               		.loc 1 230 25 is_stmt 0 view .LVU151
 907 0416 FC01      		movw r30,r24
 908 0418 EE0F      		lsl r30
 909 041a FF1F      		rol r31
 910 041c EE0F      		lsl r30
 911 041e FF1F      		rol r31
 912               	.LVL58:
 230:../../emulator/emulator.c **** 					break;
 913               		.loc 1 230 25 view .LVU152
 914 0420 E80D      		add r30,r8
 915 0422 F91D      		adc r31,r9
 226:../../emulator/emulator.c **** #ifdef DEBUG
 916               		.loc 1 226 10 view .LVU153
 917 0424 0F71      		andi r16,31
 918 0426 1127      		clr r17
 919 0428 2227      		clr r18
 920 042a 3327      		clr r19
 921               	.LVL59:
 230:../../emulator/emulator.c **** 					break;
 922               		.loc 1 230 47 view .LVU154
 923 042c 00C0      		rjmp 2f
 924               		1:
 925 042e CC0C      		lsl r12
 926 0430 DD1C      		rol r13
 927 0432 EE1C      		rol r14
 928 0434 FF1C      		rol r15
 929               		2:
 930 0436 0A95      		dec r16
 931 0438 02F4      		brpl 1b
 932               	.LVL60:
 933               	.L75:
 267:../../emulator/emulator.c **** 					}
 934               		.loc 1 267 26 view .LVU155
 935 043a C082      		st Z,r12
 936 043c D182      		std Z+1,r13
 937 043e E282      		std Z+2,r14
 938 0440 F382      		std Z+3,r15
 939 0442 00C0      		rjmp .L16
 940               	.LVL61:
 941               	.L30:
 235:../../emulator/emulator.c **** #ifdef DEBUG
 942               		.loc 1 235 6 is_stmt 1 view .LVU156
 943               	.LBB104:
 944               	.LBI104:
  26:../../emulator/emulator.c **** {
 945               		.loc 1 26 19 view .LVU157
 946               	.LBB105:
  28:../../emulator/emulator.c **** 	return (value ^ m) - m;
 947               		.loc 1 28 2 view .LVU158
  29:../../emulator/emulator.c **** }
 948               		.loc 1 29 2 view .LVU159
  29:../../emulator/emulator.c **** }
 949               		.loc 1 29 2 is_stmt 0 view .LVU160
 950               	.LBE105:
 951               	.LBE104:
 239:../../emulator/emulator.c **** 					break;
 952               		.loc 1 239 6 is_stmt 1 view .LVU161
 239:../../emulator/emulator.c **** 					break;
 953               		.loc 1 239 25 is_stmt 0 view .LVU162
 954 0444 FC01      		movw r30,r24
 955 0446 EE0F      		lsl r30
 956 0448 FF1F      		rol r31
 957 044a EE0F      		lsl r30
 958 044c FF1F      		rol r31
 959 044e E80D      		add r30,r8
 960 0450 F91D      		adc r31,r9
 961               	.LBB107:
 962               	.LBB106:
  29:../../emulator/emulator.c **** }
 963               		.loc 1 29 16 view .LVU163
 964 0452 58E0      		ldi r21,8
 965 0454 1527      		eor r17,r21
 966               	.LVL62:
  29:../../emulator/emulator.c **** }
 967               		.loc 1 29 21 view .LVU164
 968 0456 1850      		subi r17,8
 969 0458 2109      		sbc r18,__zero_reg__
 970 045a 3109      		sbc r19,__zero_reg__
 971               	.LVL63:
  29:../../emulator/emulator.c **** }
 972               		.loc 1 29 21 view .LVU165
 973               	.LBE106:
 974               	.LBE107:
 239:../../emulator/emulator.c **** 					break;
 975               		.loc 1 239 52 view .LVU166
 976 045c 41E0      		ldi r20,lo8(1)
 977 045e 50E0      		ldi r21,0
 978 0460 60E0      		ldi r22,0
 979 0462 70E0      		ldi r23,0
 980               	.LVL64:
 239:../../emulator/emulator.c **** 					break;
 981               		.loc 1 239 52 view .LVU167
 982 0464 C016      		cp r12,r16
 983 0466 D106      		cpc r13,r17
 984 0468 E206      		cpc r14,r18
 985 046a F306      		cpc r15,r19
 986 046c 04F0      		brlt .L76
 987               	.L84:
 247:../../emulator/emulator.c **** 					break;
 988               		.loc 1 247 47 view .LVU168
 989 046e 40E0      		ldi r20,0
 990 0470 50E0      		ldi r21,0
 991 0472 BA01      		movw r22,r20
 992 0474 00C0      		rjmp .L76
 993               	.LVL65:
 994               	.L29:
 247:../../emulator/emulator.c **** 					break;
 995               		.loc 1 247 6 is_stmt 1 view .LVU169
 247:../../emulator/emulator.c **** 					break;
 996               		.loc 1 247 25 is_stmt 0 view .LVU170
 997 0476 FC01      		movw r30,r24
 998 0478 EE0F      		lsl r30
 999 047a FF1F      		rol r31
 1000 047c EE0F      		lsl r30
 1001 047e FF1F      		rol r31
 1002 0480 E80D      		add r30,r8
 1003 0482 F91D      		adc r31,r9
 247:../../emulator/emulator.c **** 					break;
 1004               		.loc 1 247 47 view .LVU171
 1005 0484 41E0      		ldi r20,lo8(1)
 1006 0486 50E0      		ldi r21,0
 1007 0488 60E0      		ldi r22,0
 1008 048a 70E0      		ldi r23,0
 1009               	.LVL66:
 247:../../emulator/emulator.c **** 					break;
 1010               		.loc 1 247 47 view .LVU172
 1011 048c C016      		cp r12,r16
 1012 048e D106      		cpc r13,r17
 1013 0490 E206      		cpc r14,r18
 1014 0492 F306      		cpc r15,r19
 1015 0494 00F4      		brsh .L84
 1016               	.LVL67:
 1017               	.L76:
 247:../../emulator/emulator.c **** 					break;
 1018               		.loc 1 247 47 view .LVU173
 1019               	.LBE121:
 1020               	.LBB122:
 538:../../emulator/emulator.c **** 			break;
 1021               		.loc 1 538 23 view .LVU174
 1022 0496 4083      		st Z,r20
 1023 0498 5183      		std Z+1,r21
 1024 049a 6283      		std Z+2,r22
 1025 049c 7383      		std Z+3,r23
 539:../../emulator/emulator.c **** 		}
 1026               		.loc 1 539 4 is_stmt 1 view .LVU175
 1027 049e 00C0      		rjmp .L16
 1028               	.LVL68:
 1029               	.L28:
 539:../../emulator/emulator.c **** 		}
 1030               		.loc 1 539 4 is_stmt 0 view .LVU176
 1031               	.LBE122:
 1032               	.LBB123:
 252:../../emulator/emulator.c **** #ifdef DEBUG
 1033               		.loc 1 252 6 is_stmt 1 view .LVU177
 1034               	.LBB108:
 1035               	.LBI108:
  26:../../emulator/emulator.c **** {
 1036               		.loc 1 26 19 view .LVU178
 1037               	.LBB109:
  28:../../emulator/emulator.c **** 	return (value ^ m) - m;
 1038               		.loc 1 28 2 view .LVU179
  29:../../emulator/emulator.c **** }
 1039               		.loc 1 29 2 view .LVU180
  29:../../emulator/emulator.c **** }
 1040               		.loc 1 29 2 is_stmt 0 view .LVU181
 1041               	.LBE109:
 1042               	.LBE108:
 256:../../emulator/emulator.c **** 					break;
 1043               		.loc 1 256 6 is_stmt 1 view .LVU182
 256:../../emulator/emulator.c **** 					break;
 1044               		.loc 1 256 25 is_stmt 0 view .LVU183
 1045 04a0 FC01      		movw r30,r24
 1046 04a2 EE0F      		lsl r30
 1047 04a4 FF1F      		rol r31
 1048 04a6 EE0F      		lsl r30
 1049 04a8 FF1F      		rol r31
 1050 04aa E80D      		add r30,r8
 1051 04ac F91D      		adc r31,r9
 1052               	.LBB111:
 1053               	.LBB110:
  29:../../emulator/emulator.c **** }
 1054               		.loc 1 29 16 view .LVU184
 1055 04ae 88E0      		ldi r24,8
 1056 04b0 1827      		eor r17,r24
 1057               	.LVL69:
  29:../../emulator/emulator.c **** }
 1058               		.loc 1 29 21 view .LVU185
 1059 04b2 1850      		subi r17,8
 1060 04b4 2109      		sbc r18,__zero_reg__
 1061 04b6 3109      		sbc r19,__zero_reg__
 1062               	.LVL70:
  29:../../emulator/emulator.c **** }
 1063               		.loc 1 29 21 view .LVU186
 1064               	.LBE110:
 1065               	.LBE111:
 256:../../emulator/emulator.c **** 					break;
 1066               		.loc 1 256 47 view .LVU187
 1067 04b8 0C25      		eor r16,r12
 1068 04ba 1D25      		eor r17,r13
 1069 04bc 2E25      		eor r18,r14
 1070 04be 3F25      		eor r19,r15
 1071               	.LVL71:
 256:../../emulator/emulator.c **** 					break;
 1072               		.loc 1 256 47 view .LVU188
 1073 04c0 00C0      		rjmp .L74
 1074               	.LVL72:
 1075               	.L27:
 260:../../emulator/emulator.c **** 					{
 1076               		.loc 1 260 6 is_stmt 1 view .LVU189
 260:../../emulator/emulator.c **** 					{
 1077               		.loc 1 260 13 is_stmt 0 view .LVU190
 1078 04c2 E9E1      		ldi r30,25
 1079               		1:
 1080 04c4 7695      		lsr r23
 1081 04c6 6795      		ror r22
 1082 04c8 5795      		ror r21
 1083 04ca 4795      		ror r20
 1084 04cc EA95      		dec r30
 1085 04ce 01F4      		brne 1b
 1086               	.LVL73:
 267:../../emulator/emulator.c **** 					}
 1087               		.loc 1 267 26 view .LVU191
 1088 04d0 FC01      		movw r30,r24
 1089 04d2 EE0F      		lsl r30
 1090 04d4 FF1F      		rol r31
 1091 04d6 EE0F      		lsl r30
 1092 04d8 FF1F      		rol r31
 1093 04da E80D      		add r30,r8
 1094 04dc F91D      		adc r31,r9
 260:../../emulator/emulator.c **** 					{
 1095               		.loc 1 260 8 view .LVU192
 1096 04de 452B      		or r20,r21
 1097 04e0 462B      		or r20,r22
 1098 04e2 472B      		or r20,r23
 1099 04e4 01F0      		breq .L34
 263:../../emulator/emulator.c **** #ifdef DEBUG
 1100               		.loc 1 263 7 is_stmt 1 view .LVU193
 1101               	.LVL74:
 267:../../emulator/emulator.c **** 					}
 1102               		.loc 1 267 7 view .LVU194
 263:../../emulator/emulator.c **** #ifdef DEBUG
 1103               		.loc 1 263 11 is_stmt 0 view .LVU195
 1104 04e6 0F71      		andi r16,31
 1105 04e8 1127      		clr r17
 1106 04ea 2227      		clr r18
 1107 04ec 3327      		clr r19
 1108               	.LVL75:
 267:../../emulator/emulator.c **** 					}
 1109               		.loc 1 267 53 view .LVU196
 1110 04ee 00C0      		rjmp 2f
 1111               		1:
 1112 04f0 F594      		asr r15
 1113 04f2 E794      		ror r14
 1114 04f4 D794      		ror r13
 1115 04f6 C794      		ror r12
 1116               		2:
 1117 04f8 0A95      		dec r16
 1118 04fa 02F4      		brpl 1b
 1119 04fc 00C0      		rjmp .L75
 1120               	.L34:
 272:../../emulator/emulator.c **** #ifdef DEBUG
 1121               		.loc 1 272 7 is_stmt 1 view .LVU197
 1122               	.LVL76:
 276:../../emulator/emulator.c **** 					}
 1123               		.loc 1 276 7 view .LVU198
 276:../../emulator/emulator.c **** 					}
 1124               		.loc 1 276 48 is_stmt 0 view .LVU199
 1125 04fe 00C0      		rjmp 2f
 1126               		1:
 1127 0500 F694      		lsr r15
 1128 0502 E794      		ror r14
 1129 0504 D794      		ror r13
 1130 0506 C794      		ror r12
 1131               		2:
 1132 0508 0A95      		dec r16
 1133 050a 02F4      		brpl 1b
 1134 050c 00C0      		rjmp .L75
 1135               	.LVL77:
 1136               	.L26:
 282:../../emulator/emulator.c **** #ifdef DEBUG
 1137               		.loc 1 282 6 is_stmt 1 view .LVU200
 1138               	.LBB112:
 1139               	.LBI112:
  26:../../emulator/emulator.c **** {
 1140               		.loc 1 26 19 view .LVU201
 1141               	.LBB113:
  28:../../emulator/emulator.c **** 	return (value ^ m) - m;
 1142               		.loc 1 28 2 view .LVU202
  29:../../emulator/emulator.c **** }
 1143               		.loc 1 29 2 view .LVU203
  29:../../emulator/emulator.c **** }
 1144               		.loc 1 29 2 is_stmt 0 view .LVU204
 1145               	.LBE113:
 1146               	.LBE112:
 286:../../emulator/emulator.c **** 					break;
 1147               		.loc 1 286 6 is_stmt 1 view .LVU205
 286:../../emulator/emulator.c **** 					break;
 1148               		.loc 1 286 25 is_stmt 0 view .LVU206
 1149 050e FC01      		movw r30,r24
 1150 0510 EE0F      		lsl r30
 1151 0512 FF1F      		rol r31
 1152 0514 EE0F      		lsl r30
 1153 0516 FF1F      		rol r31
 1154 0518 E80D      		add r30,r8
 1155 051a F91D      		adc r31,r9
 1156               	.LBB115:
 1157               	.LBB114:
  29:../../emulator/emulator.c **** }
 1158               		.loc 1 29 16 view .LVU207
 1159 051c 98E0      		ldi r25,8
 1160 051e 1927      		eor r17,r25
 1161               	.LVL78:
  29:../../emulator/emulator.c **** }
 1162               		.loc 1 29 21 view .LVU208
 1163 0520 1850      		subi r17,8
 1164 0522 2109      		sbc r18,__zero_reg__
 1165 0524 3109      		sbc r19,__zero_reg__
 1166               	.LVL79:
  29:../../emulator/emulator.c **** }
 1167               		.loc 1 29 21 view .LVU209
 1168               	.LBE114:
 1169               	.LBE115:
 286:../../emulator/emulator.c **** 					break;
 1170               		.loc 1 286 47 view .LVU210
 1171 0526 0C29      		or r16,r12
 1172 0528 1D29      		or r17,r13
 1173 052a 2E29      		or r18,r14
 1174 052c 3F29      		or r19,r15
 1175               	.LVL80:
 286:../../emulator/emulator.c **** 					break;
 1176               		.loc 1 286 47 view .LVU211
 1177 052e 00C0      		rjmp .L74
 1178               	.LVL81:
 1179               	.L24:
 291:../../emulator/emulator.c **** #ifdef DEBUG
 1180               		.loc 1 291 6 is_stmt 1 view .LVU212
 1181               	.LBB116:
 1182               	.LBI116:
  26:../../emulator/emulator.c **** {
 1183               		.loc 1 26 19 view .LVU213
 1184               	.LBB117:
  28:../../emulator/emulator.c **** 	return (value ^ m) - m;
 1185               		.loc 1 28 2 view .LVU214
  29:../../emulator/emulator.c **** }
 1186               		.loc 1 29 2 view .LVU215
  29:../../emulator/emulator.c **** }
 1187               		.loc 1 29 2 is_stmt 0 view .LVU216
 1188               	.LBE117:
 1189               	.LBE116:
 295:../../emulator/emulator.c **** 					break;
 1190               		.loc 1 295 6 is_stmt 1 view .LVU217
 295:../../emulator/emulator.c **** 					break;
 1191               		.loc 1 295 25 is_stmt 0 view .LVU218
 1192 0530 FC01      		movw r30,r24
 1193 0532 EE0F      		lsl r30
 1194 0534 FF1F      		rol r31
 1195 0536 EE0F      		lsl r30
 1196 0538 FF1F      		rol r31
 1197 053a E80D      		add r30,r8
 1198 053c F91D      		adc r31,r9
 1199               	.LBB119:
 1200               	.LBB118:
  29:../../emulator/emulator.c **** }
 1201               		.loc 1 29 16 view .LVU219
 1202 053e A8E0      		ldi r26,8
 1203 0540 1A27      		eor r17,r26
 1204               	.LVL82:
  29:../../emulator/emulator.c **** }
 1205               		.loc 1 29 21 view .LVU220
 1206 0542 1850      		subi r17,8
 1207 0544 2109      		sbc r18,__zero_reg__
 1208 0546 3109      		sbc r19,__zero_reg__
 1209               	.LVL83:
  29:../../emulator/emulator.c **** }
 1210               		.loc 1 29 21 view .LVU221
 1211               	.LBE118:
 1212               	.LBE119:
 295:../../emulator/emulator.c **** 					break;
 1213               		.loc 1 295 47 view .LVU222
 1214 0548 0C21      		and r16,r12
 1215 054a 1D21      		and r17,r13
 1216 054c 2E21      		and r18,r14
 1217 054e 3F21      		and r19,r15
 1218               	.LVL84:
 295:../../emulator/emulator.c **** 					break;
 1219               		.loc 1 295 47 view .LVU223
 1220 0550 00C0      		rjmp .L74
 1221               	.LVL85:
 1222               	.L13:
 295:../../emulator/emulator.c **** 					break;
 1223               		.loc 1 295 47 view .LVU224
 1224               	.LBE123:
 1225               	.LBB124:
 303:../../emulator/emulator.c **** 			rd = (instr >> 7) & 0x1F;
 1226               		.loc 1 303 4 is_stmt 1 view .LVU225
 304:../../emulator/emulator.c **** 			imm = (instr >> 12);
 1227               		.loc 1 304 4 view .LVU226
 305:../../emulator/emulator.c **** #ifdef DEBUG
 1228               		.loc 1 305 4 view .LVU227
 309:../../emulator/emulator.c **** 			break;
 1229               		.loc 1 309 4 view .LVU228
 304:../../emulator/emulator.c **** 			imm = (instr >> 12);
 1230               		.loc 1 304 16 is_stmt 0 view .LVU229
 1231 0552 DB01      		movw r26,r22
 1232 0554 CA01      		movw r24,r20
 1233               	.LVL86:
 304:../../emulator/emulator.c **** 			imm = (instr >> 12);
 1234               		.loc 1 304 16 view .LVU230
 1235 0556 17E0      		ldi r17,7
 1236               		1:
 1237 0558 B695      		lsr r27
 1238 055a A795      		ror r26
 1239 055c 9795      		ror r25
 1240 055e 8795      		ror r24
 1241 0560 1A95      		dec r17
 1242 0562 01F4      		brne 1b
 304:../../emulator/emulator.c **** 			imm = (instr >> 12);
 1243               		.loc 1 304 7 view .LVU231
 1244 0564 8F71      		andi r24,31
 1245 0566 9927      		clr r25
 1246 0568 AA27      		clr r26
 1247 056a BB27      		clr r27
 1248               	.LVL87:
 309:../../emulator/emulator.c **** 			break;
 1249               		.loc 1 309 23 view .LVU232
 1250 056c FC01      		movw r30,r24
 1251 056e 3196      		adiw r30,1
 1252 0570 EE0F      		lsl r30
 1253 0572 FF1F      		rol r31
 1254 0574 EE0F      		lsl r30
 1255 0576 FF1F      		rol r31
 1256 0578 9F01      		movw r18,r30
 1257 057a 280D      		add r18,r8
 1258 057c 391D      		adc r19,r9
 309:../../emulator/emulator.c **** 			break;
 1259               		.loc 1 309 40 view .LVU233
 1260 057e DB01      		movw r26,r22
 1261 0580 CA01      		movw r24,r20
 1262               	.LVL88:
 309:../../emulator/emulator.c **** 			break;
 1263               		.loc 1 309 40 view .LVU234
 1264 0582 8827      		clr r24
 1265 0584 907F      		andi r25,240
 309:../../emulator/emulator.c **** 			break;
 1266               		.loc 1 309 33 view .LVU235
 1267 0586 F401      		movw r30,r8
 1268 0588 4081      		ld r20,Z
 1269 058a 5181      		ldd r21,Z+1
 1270 058c 6281      		ldd r22,Z+2
 1271 058e 7381      		ldd r23,Z+3
 1272               	.LVL89:
 309:../../emulator/emulator.c **** 			break;
 1273               		.loc 1 309 33 view .LVU236
 1274 0590 840F      		add r24,r20
 1275 0592 951F      		adc r25,r21
 1276 0594 A61F      		adc r26,r22
 1277 0596 B71F      		adc r27,r23
 309:../../emulator/emulator.c **** 			break;
 1278               		.loc 1 309 23 view .LVU237
 1279 0598 F901      		movw r30,r18
 1280               	.LVL90:
 1281               	.L77:
 309:../../emulator/emulator.c **** 			break;
 1282               		.loc 1 309 23 view .LVU238
 1283               	.LBE124:
 1284               	.LBB125:
 523:../../emulator/emulator.c **** 						break;
 1285               		.loc 1 523 26 view .LVU239
 1286 059a 8083      		st Z,r24
 1287 059c 9183      		std Z+1,r25
 1288 059e A283      		std Z+2,r26
 1289 05a0 B383      		std Z+3,r27
 524:../../emulator/emulator.c **** 				}
 1290               		.loc 1 524 7 is_stmt 1 view .LVU240
 1291 05a2 00C0      		rjmp .L16
 1292               	.LVL91:
 1293               	.L12:
 524:../../emulator/emulator.c **** 				}
 1294               		.loc 1 524 7 is_stmt 0 view .LVU241
 1295               	.LBE125:
 1296               	.LBB126:
 315:../../emulator/emulator.c **** 			u32 imm, rs1, rs2, funct3;
 1297               		.loc 1 315 4 is_stmt 1 view .LVU242
 316:../../emulator/emulator.c **** 			funct3 = (instr >> 12) & 0x07;
 1298               		.loc 1 316 4 view .LVU243
 317:../../emulator/emulator.c **** 			rs1 = (instr >> 15) & 0x1F;
 1299               		.loc 1 317 4 view .LVU244
 317:../../emulator/emulator.c **** 			rs1 = (instr >> 15) & 0x1F;
 1300               		.loc 1 317 20 is_stmt 0 view .LVU245
 1301 05a4 6A01      		movw r12,r20
 1302 05a6 7B01      		movw r14,r22
 1303 05a8 ECE0      		ldi r30,12
 1304               		1:
 1305 05aa F694      		lsr r15
 1306 05ac E794      		ror r14
 1307 05ae D794      		ror r13
 1308 05b0 C794      		ror r12
 1309 05b2 EA95      		dec r30
 1310 05b4 01F4      		brne 1b
 317:../../emulator/emulator.c **** 			rs1 = (instr >> 15) & 0x1F;
 1311               		.loc 1 317 11 view .LVU246
 1312 05b6 F7E0      		ldi r31,7
 1313 05b8 CF22      		and r12,r31
 1314 05ba DD24      		clr r13
 1315 05bc EE24      		clr r14
 1316 05be FF24      		clr r15
 1317               	.LVL92:
 318:../../emulator/emulator.c **** 			rs2 = (instr >> 20) & 0x1F;
 1318               		.loc 1 318 4 is_stmt 1 view .LVU247
 318:../../emulator/emulator.c **** 			rs2 = (instr >> 20) & 0x1F;
 1319               		.loc 1 318 17 is_stmt 0 view .LVU248
 1320 05c0 DB01      		movw r26,r22
 1321 05c2 CA01      		movw r24,r20
 1322               	.LVL93:
 318:../../emulator/emulator.c **** 			rs2 = (instr >> 20) & 0x1F;
 1323               		.loc 1 318 17 view .LVU249
 1324 05c4 FFE0      		ldi r31,15
 1325               		1:
 1326 05c6 B695      		lsr r27
 1327 05c8 A795      		ror r26
 1328 05ca 9795      		ror r25
 1329 05cc 8795      		ror r24
 1330 05ce FA95      		dec r31
 1331 05d0 01F4      		brne 1b
 318:../../emulator/emulator.c **** 			rs2 = (instr >> 20) & 0x1F;
 1332               		.loc 1 318 8 view .LVU250
 1333 05d2 8F71      		andi r24,31
 1334 05d4 9927      		clr r25
 1335 05d6 AA27      		clr r26
 1336 05d8 BB27      		clr r27
 319:../../emulator/emulator.c **** 			imm = ((instr & 0xF80) >> 7) | ((instr & 0xFE000000) >> 20);
 1337               		.loc 1 319 4 is_stmt 1 view .LVU251
 319:../../emulator/emulator.c **** 			imm = ((instr & 0xF80) >> 7) | ((instr & 0xFE000000) >> 20);
 1338               		.loc 1 319 17 is_stmt 0 view .LVU252
 1339 05da 2A01      		movw r4,r20
 1340 05dc 3B01      		movw r6,r22
 1341               	.LVL94:
 319:../../emulator/emulator.c **** 			imm = ((instr & 0xF80) >> 7) | ((instr & 0xFE000000) >> 20);
 1342               		.loc 1 319 17 view .LVU253
 1343 05de A4E1      		ldi r26,20
 1344               		1:
 1345 05e0 7694      		lsr r7
 1346 05e2 6794      		ror r6
 1347 05e4 5794      		ror r5
 1348 05e6 4794      		ror r4
 1349 05e8 AA95      		dec r26
 1350 05ea 01F4      		brne 1b
 319:../../emulator/emulator.c **** 			imm = ((instr & 0xF80) >> 7) | ((instr & 0xFE000000) >> 20);
 1351               		.loc 1 319 8 view .LVU254
 1352 05ec 9301      		movw r18,r6
 1353 05ee 8201      		movw r16,r4
 1354 05f0 0F71      		andi r16,31
 1355 05f2 1127      		clr r17
 1356 05f4 2227      		clr r18
 1357 05f6 3327      		clr r19
 320:../../emulator/emulator.c **** 			offset = sext(12, imm);
 1358               		.loc 1 320 4 is_stmt 1 view .LVU255
 1359               	.LVL95:
 321:../../emulator/emulator.c **** 			switch(funct3)
 1360               		.loc 1 321 4 view .LVU256
 1361               	.LBB127:
 1362               	.LBI127:
  26:../../emulator/emulator.c **** {
 1363               		.loc 1 26 19 view .LVU257
 1364               	.LBB128:
  28:../../emulator/emulator.c **** 	return (value ^ m) - m;
 1365               		.loc 1 28 2 view .LVU258
  29:../../emulator/emulator.c **** }
 1366               		.loc 1 29 2 view .LVU259
 1367               	.LBE128:
 1368               	.LBE127:
 320:../../emulator/emulator.c **** 			offset = sext(12, imm);
 1369               		.loc 1 320 27 is_stmt 0 view .LVU260
 1370 05f8 B7E0      		ldi r27,7
 1371               		1:
 1372 05fa 7695      		lsr r23
 1373 05fc 6795      		ror r22
 1374 05fe 5795      		ror r21
 1375 0600 4795      		ror r20
 1376 0602 BA95      		dec r27
 1377 0604 01F4      		brne 1b
 1378               	.LVL96:
 320:../../emulator/emulator.c **** 			offset = sext(12, imm);
 1379               		.loc 1 320 27 view .LVU261
 1380 0606 4F71      		andi r20,31
 1381 0608 5527      		clr r21
 1382 060a 6627      		clr r22
 1383 060c 7727      		clr r23
 320:../../emulator/emulator.c **** 			offset = sext(12, imm);
 1384               		.loc 1 320 57 view .LVU262
 1385 060e E0EE      		ldi r30,224
 1386 0610 4E22      		and r4,r30
 1387 0612 EFE0      		ldi r30,15
 1388 0614 5E22      		and r5,r30
 1389 0616 6624      		clr r6
 1390 0618 7724      		clr r7
 320:../../emulator/emulator.c **** 			offset = sext(12, imm);
 1391               		.loc 1 320 8 view .LVU263
 1392 061a 4429      		or r20,r4
 1393 061c 5529      		or r21,r5
 1394 061e 6629      		or r22,r6
 1395 0620 7729      		or r23,r7
 1396               	.LVL97:
 1397               	.LBB130:
 1398               	.LBB129:
  29:../../emulator/emulator.c **** }
 1399               		.loc 1 29 16 view .LVU264
 1400 0622 F8E0      		ldi r31,8
 1401 0624 5F27      		eor r21,r31
 1402               	.LVL98:
  29:../../emulator/emulator.c **** }
 1403               		.loc 1 29 21 view .LVU265
 1404 0626 2A01      		movw r4,r20
 1405 0628 3B01      		movw r6,r22
 1406 062a E8E0      		ldi r30,8
 1407 062c 5E1A      		sub r5,r30
 1408 062e 6108      		sbc r6,__zero_reg__
 1409 0630 7108      		sbc r7,__zero_reg__
 1410               	.LVL99:
  29:../../emulator/emulator.c **** }
 1411               		.loc 1 29 21 view .LVU266
 1412               	.LBE129:
 1413               	.LBE130:
 322:../../emulator/emulator.c **** 			{
 1414               		.loc 1 322 4 is_stmt 1 view .LVU267
 1415 0632 F1E0      		ldi r31,1
 1416 0634 CF16      		cp r12,r31
 1417 0636 D104      		cpc r13,__zero_reg__
 1418 0638 E104      		cpc r14,__zero_reg__
 1419 063a F104      		cpc r15,__zero_reg__
 1420 063c 01F0      		breq .L35
 1421 063e 42E0      		ldi r20,2
 1422 0640 C416      		cp r12,r20
 1423 0642 D104      		cpc r13,__zero_reg__
 1424 0644 E104      		cpc r14,__zero_reg__
 1425 0646 F104      		cpc r15,__zero_reg__
 1426               	.LVL100:
 322:../../emulator/emulator.c **** 			{
 1427               		.loc 1 322 4 is_stmt 0 view .LVU268
 1428 0648 01F4      		brne .+2
 1429 064a 00C0      		rjmp .L36
 1430 064c CD28      		or r12,r13
 1431 064e CE28      		or r12,r14
 1432 0650 CF28      		or r12,r15
 1433 0652 01F0      		breq .+2
 1434 0654 00C0      		rjmp .L4
 329:../../emulator/emulator.c **** 					break;
 1435               		.loc 1 329 6 is_stmt 1 view .LVU269
 1436 0656 F801      		movw r30,r16
 1437 0658 3196      		adiw r30,1
 1438 065a EE0F      		lsl r30
 1439 065c FF1F      		rol r31
 1440 065e EE0F      		lsl r30
 1441 0660 FF1F      		rol r31
 1442 0662 E80D      		add r30,r8
 1443 0664 F91D      		adc r31,r9
 1444 0666 2081      		ld r18,Z
 1445 0668 3181      		ldd r19,Z+1
 1446 066a 4281      		ldd r20,Z+2
 1447 066c 5381      		ldd r21,Z+3
 329:../../emulator/emulator.c **** 					break;
 1448               		.loc 1 329 30 is_stmt 0 view .LVU270
 1449 066e FC01      		movw r30,r24
 1450 0670 3196      		adiw r30,1
 1451 0672 EE0F      		lsl r30
 1452 0674 FF1F      		rol r31
 1453 0676 EE0F      		lsl r30
 1454 0678 FF1F      		rol r31
 1455 067a E80D      		add r30,r8
 1456 067c F91D      		adc r31,r9
 329:../../emulator/emulator.c **** 					break;
 1457               		.loc 1 329 6 view .LVU271
 1458 067e 8081      		ld r24,Z
 1459 0680 9181      		ldd r25,Z+1
 1460 0682 A281      		ldd r26,Z+2
 1461 0684 B381      		ldd r27,Z+3
 1462 0686 7301      		movw r14,r6
 1463 0688 6201      		movw r12,r4
 1464               	.LVL101:
 329:../../emulator/emulator.c **** 					break;
 1465               		.loc 1 329 6 view .LVU272
 1466 068a C80E      		add r12,r24
 1467 068c D91E      		adc r13,r25
 1468 068e EA1E      		adc r14,r26
 1469 0690 FB1E      		adc r15,r27
 1470 0692 C982      		std Y+1,r12
 1471 0694 DA82      		std Y+2,r13
 1472 0696 EB82      		std Y+3,r14
 1473 0698 FC82      		std Y+4,r15
 1474 069a C701      		movw r24,r14
 1475 069c B601      		movw r22,r12
 1476 069e 0E94 0000 		call memory_sb
 1477               	.LVL102:
 330:../../emulator/emulator.c **** 
 1478               		.loc 1 330 6 is_stmt 1 view .LVU273
 1479 06a2 00C0      		rjmp .L16
 1480               	.LVL103:
 1481               	.L35:
 337:../../emulator/emulator.c **** 					break;
 1482               		.loc 1 337 6 view .LVU274
 1483 06a4 F801      		movw r30,r16
 1484 06a6 3196      		adiw r30,1
 1485 06a8 EE0F      		lsl r30
 1486 06aa FF1F      		rol r31
 1487 06ac EE0F      		lsl r30
 1488 06ae FF1F      		rol r31
 1489 06b0 E80D      		add r30,r8
 1490 06b2 F91D      		adc r31,r9
 1491 06b4 2081      		ld r18,Z
 1492 06b6 3181      		ldd r19,Z+1
 1493 06b8 4281      		ldd r20,Z+2
 1494 06ba 5381      		ldd r21,Z+3
 337:../../emulator/emulator.c **** 					break;
 1495               		.loc 1 337 30 is_stmt 0 view .LVU275
 1496 06bc FC01      		movw r30,r24
 1497 06be 3196      		adiw r30,1
 1498 06c0 EE0F      		lsl r30
 1499 06c2 FF1F      		rol r31
 1500 06c4 EE0F      		lsl r30
 1501 06c6 FF1F      		rol r31
 1502 06c8 E80D      		add r30,r8
 1503 06ca F91D      		adc r31,r9
 337:../../emulator/emulator.c **** 					break;
 1504               		.loc 1 337 6 view .LVU276
 1505 06cc 8081      		ld r24,Z
 1506 06ce 9181      		ldd r25,Z+1
 1507 06d0 A281      		ldd r26,Z+2
 1508 06d2 B381      		ldd r27,Z+3
 1509 06d4 8301      		movw r16,r6
 1510 06d6 7201      		movw r14,r4
 1511 06d8 E80E      		add r14,r24
 1512 06da F91E      		adc r15,r25
 1513 06dc 0A1F      		adc r16,r26
 1514 06de 1B1F      		adc r17,r27
 1515 06e0 E982      		std Y+1,r14
 1516 06e2 FA82      		std Y+2,r15
 1517 06e4 0B83      		std Y+3,r16
 1518 06e6 1C83      		std Y+4,r17
 1519 06e8 C801      		movw r24,r16
 1520 06ea B701      		movw r22,r14
 1521 06ec 0E94 0000 		call memory_sh
 1522               	.LVL104:
 338:../../emulator/emulator.c **** 
 1523               		.loc 1 338 6 is_stmt 1 view .LVU277
 1524 06f0 00C0      		rjmp .L16
 1525               	.L36:
 345:../../emulator/emulator.c **** 					break;
 1526               		.loc 1 345 6 view .LVU278
 1527 06f2 F801      		movw r30,r16
 1528 06f4 3196      		adiw r30,1
 1529 06f6 EE0F      		lsl r30
 1530 06f8 FF1F      		rol r31
 1531 06fa EE0F      		lsl r30
 1532 06fc FF1F      		rol r31
 1533 06fe E80D      		add r30,r8
 1534 0700 F91D      		adc r31,r9
 1535 0702 2081      		ld r18,Z
 1536 0704 3181      		ldd r19,Z+1
 1537 0706 4281      		ldd r20,Z+2
 1538 0708 5381      		ldd r21,Z+3
 345:../../emulator/emulator.c **** 					break;
 1539               		.loc 1 345 30 is_stmt 0 view .LVU279
 1540 070a FC01      		movw r30,r24
 1541 070c 3196      		adiw r30,1
 1542 070e EE0F      		lsl r30
 1543 0710 FF1F      		rol r31
 1544 0712 EE0F      		lsl r30
 1545 0714 FF1F      		rol r31
 1546 0716 E80D      		add r30,r8
 1547 0718 F91D      		adc r31,r9
 345:../../emulator/emulator.c **** 					break;
 1548               		.loc 1 345 6 view .LVU280
 1549 071a 8081      		ld r24,Z
 1550 071c 9181      		ldd r25,Z+1
 1551 071e A281      		ldd r26,Z+2
 1552 0720 B381      		ldd r27,Z+3
 1553 0722 7301      		movw r14,r6
 1554 0724 6201      		movw r12,r4
 1555               	.LVL105:
 345:../../emulator/emulator.c **** 					break;
 1556               		.loc 1 345 6 view .LVU281
 1557 0726 C80E      		add r12,r24
 1558 0728 D91E      		adc r13,r25
 1559 072a EA1E      		adc r14,r26
 1560 072c FB1E      		adc r15,r27
 1561 072e C982      		std Y+1,r12
 1562 0730 DA82      		std Y+2,r13
 1563 0732 EB82      		std Y+3,r14
 1564 0734 FC82      		std Y+4,r15
 1565 0736 C701      		movw r24,r14
 1566 0738 B601      		movw r22,r12
 1567 073a 0E94 0000 		call memory_sw
 1568               	.LVL106:
 346:../../emulator/emulator.c **** 
 1569               		.loc 1 346 6 is_stmt 1 view .LVU282
 1570 073e 00C0      		rjmp .L16
 1571               	.LVL107:
 1572               	.L11:
 346:../../emulator/emulator.c **** 
 1573               		.loc 1 346 6 is_stmt 0 view .LVU283
 1574               	.LBE126:
 1575               	.LBB131:
 360:../../emulator/emulator.c **** 			rd = (instr >> 7) & 0x1F;
 1576               		.loc 1 360 4 is_stmt 1 view .LVU284
 361:../../emulator/emulator.c **** 			funct3 = (instr >> 12) & 0x07;
 1577               		.loc 1 361 4 view .LVU285
 361:../../emulator/emulator.c **** 			funct3 = (instr >> 12) & 0x07;
 1578               		.loc 1 361 16 is_stmt 0 view .LVU286
 1579 0740 DB01      		movw r26,r22
 1580 0742 CA01      		movw r24,r20
 1581               	.LVL108:
 361:../../emulator/emulator.c **** 			funct3 = (instr >> 12) & 0x07;
 1582               		.loc 1 361 16 view .LVU287
 1583 0744 27E0      		ldi r18,7
 1584               		1:
 1585 0746 B695      		lsr r27
 1586 0748 A795      		ror r26
 1587 074a 9795      		ror r25
 1588 074c 8795      		ror r24
 1589 074e 2A95      		dec r18
 1590 0750 01F4      		brne 1b
 361:../../emulator/emulator.c **** 			funct3 = (instr >> 12) & 0x07;
 1591               		.loc 1 361 7 view .LVU288
 1592 0752 8F71      		andi r24,31
 1593 0754 9927      		clr r25
 1594 0756 AA27      		clr r26
 1595 0758 BB27      		clr r27
 362:../../emulator/emulator.c **** 			rs1 = (instr >> 15) & 0x1F;
 1596               		.loc 1 362 4 is_stmt 1 view .LVU289
 362:../../emulator/emulator.c **** 			rs1 = (instr >> 15) & 0x1F;
 1597               		.loc 1 362 20 is_stmt 0 view .LVU290
 1598 075a 8A01      		movw r16,r20
 1599 075c 9B01      		movw r18,r22
 1600 075e ECE0      		ldi r30,12
 1601               		1:
 1602 0760 3695      		lsr r19
 1603 0762 2795      		ror r18
 1604 0764 1795      		ror r17
 1605 0766 0795      		ror r16
 1606 0768 EA95      		dec r30
 1607 076a 01F4      		brne 1b
 362:../../emulator/emulator.c **** 			rs1 = (instr >> 15) & 0x1F;
 1608               		.loc 1 362 11 view .LVU291
 1609 076c 0770      		andi r16,7
 1610 076e 1127      		clr r17
 1611 0770 2227      		clr r18
 1612 0772 3327      		clr r19
 1613               	.LVL109:
 363:../../emulator/emulator.c **** 			rs2 = (instr >> 20) & 0x1F;
 1614               		.loc 1 363 4 is_stmt 1 view .LVU292
 364:../../emulator/emulator.c **** 			funct7 = (instr >> 25);
 1615               		.loc 1 364 4 view .LVU293
 365:../../emulator/emulator.c **** 			if(funct7 == 1)
 1616               		.loc 1 365 4 view .LVU294
 365:../../emulator/emulator.c **** 			if(funct7 == 1)
 1617               		.loc 1 365 11 is_stmt 0 view .LVU295
 1618 0774 6A01      		movw r12,r20
 1619 0776 7B01      		movw r14,r22
 1620 0778 F9E1      		ldi r31,25
 1621               		1:
 1622 077a F694      		lsr r15
 1623 077c E794      		ror r14
 1624 077e D794      		ror r13
 1625 0780 C794      		ror r12
 1626 0782 FA95      		dec r31
 1627 0784 01F4      		brne 1b
 1628               	.LVL110:
 366:../../emulator/emulator.c **** 			{
 1629               		.loc 1 366 4 is_stmt 1 view .LVU296
 363:../../emulator/emulator.c **** 			rs2 = (instr >> 20) & 0x1F;
 1630               		.loc 1 363 17 is_stmt 0 view .LVU297
 1631 0786 2A01      		movw r4,r20
 1632 0788 3B01      		movw r6,r22
 1633               	.LVL111:
 363:../../emulator/emulator.c **** 			rs2 = (instr >> 20) & 0x1F;
 1634               		.loc 1 363 17 view .LVU298
 1635 078a AFE0      		ldi r26,15
 1636               		1:
 1637 078c 7694      		lsr r7
 1638 078e 6794      		ror r6
 1639 0790 5794      		ror r5
 1640 0792 4794      		ror r4
 1641 0794 AA95      		dec r26
 1642 0796 01F4      		brne 1b
 363:../../emulator/emulator.c **** 			rs2 = (instr >> 20) & 0x1F;
 1643               		.loc 1 363 8 view .LVU299
 1644 0798 EFE1      		ldi r30,31
 1645 079a 4E22      		and r4,r30
 1646 079c 5524      		clr r5
 1647 079e 6624      		clr r6
 1648 07a0 7724      		clr r7
 1649               	.LVL112:
 363:../../emulator/emulator.c **** 			rs2 = (instr >> 20) & 0x1F;
 1650               		.loc 1 363 8 view .LVU300
 1651               	.LBE131:
 1652               	.LBB132:
 161:../../emulator/emulator.c **** 					break;
 1653               		.loc 1 161 51 view .LVU301
 1654 07a2 F201      		movw r30,r4
 1655 07a4 3196      		adiw r30,1
 1656 07a6 EE0F      		lsl r30
 1657 07a8 FF1F      		rol r31
 1658 07aa EE0F      		lsl r30
 1659 07ac FF1F      		rol r31
 1660 07ae E80D      		add r30,r8
 1661 07b0 F91D      		adc r31,r9
 1662 07b2 4080      		ld r4,Z
 1663 07b4 5180      		ldd r5,Z+1
 1664 07b6 6280      		ldd r6,Z+2
 1665 07b8 7380      		ldd r7,Z+3
 1666               	.LVL113:
 161:../../emulator/emulator.c **** 					break;
 1667               		.loc 1 161 51 view .LVU302
 1668 07ba 4982      		std Y+1,r4
 1669 07bc 5A82      		std Y+2,r5
 1670 07be 6B82      		std Y+3,r6
 1671 07c0 7C82      		std Y+4,r7
 1672               	.LBE132:
 1673               	.LBB133:
 364:../../emulator/emulator.c **** 			funct7 = (instr >> 25);
 1674               		.loc 1 364 17 view .LVU303
 1675 07c2 E4E1      		ldi r30,20
 1676               		1:
 1677 07c4 7695      		lsr r23
 1678 07c6 6795      		ror r22
 1679 07c8 5795      		ror r21
 1680 07ca 4795      		ror r20
 1681 07cc EA95      		dec r30
 1682 07ce 01F4      		brne 1b
 1683               	.LVL114:
 364:../../emulator/emulator.c **** 			funct7 = (instr >> 25);
 1684               		.loc 1 364 8 view .LVU304
 1685 07d0 4F71      		andi r20,31
 1686 07d2 5527      		clr r21
 1687 07d4 6627      		clr r22
 1688 07d6 7727      		clr r23
 1689               	.LVL115:
 364:../../emulator/emulator.c **** 			funct7 = (instr >> 25);
 1690               		.loc 1 364 8 view .LVU305
 1691               	.LBE133:
 1692               	.LBB134:
 329:../../emulator/emulator.c **** 					break;
 1693               		.loc 1 329 6 view .LVU306
 1694 07d8 FA01      		movw r30,r20
 1695 07da 3196      		adiw r30,1
 1696 07dc EE0F      		lsl r30
 1697 07de FF1F      		rol r31
 1698 07e0 EE0F      		lsl r30
 1699 07e2 FF1F      		rol r31
 1700 07e4 E80D      		add r30,r8
 1701 07e6 F91D      		adc r31,r9
 1702 07e8 4080      		ld r4,Z
 1703 07ea 5180      		ldd r5,Z+1
 1704 07ec 6280      		ldd r6,Z+2
 1705 07ee 7380      		ldd r7,Z+3
 1706 07f0 0150      		subi r16,1
 1707 07f2 1109      		sbc r17,__zero_reg__
 1708 07f4 2109      		sbc r18,__zero_reg__
 1709 07f6 3109      		sbc r19,__zero_reg__
 1710               	.LVL116:
 329:../../emulator/emulator.c **** 					break;
 1711               		.loc 1 329 6 view .LVU307
 1712 07f8 0196      		adiw r24,1
 1713               	.LBE134:
 1714               	.LBB135:
 366:../../emulator/emulator.c **** 			{
 1715               		.loc 1 366 6 view .LVU308
 1716 07fa 41E0      		ldi r20,1
 1717 07fc C416      		cp r12,r20
 1718 07fe D104      		cpc r13,__zero_reg__
 1719 0800 E104      		cpc r14,__zero_reg__
 1720 0802 F104      		cpc r15,__zero_reg__
 1721               	.LVL117:
 366:../../emulator/emulator.c **** 			{
 1722               		.loc 1 366 6 view .LVU309
 1723 0804 01F0      		breq .+2
 1724 0806 00C0      		rjmp .L37
 369:../../emulator/emulator.c **** 				{
 1725               		.loc 1 369 5 is_stmt 1 view .LVU310
 1726 0808 0730      		cpi r16,7
 1727 080a 1105      		cpc r17,__zero_reg__
 1728 080c 2105      		cpc r18,__zero_reg__
 1729 080e 3105      		cpc r19,__zero_reg__
 1730 0810 00F4      		brsh .L38
 1731 0812 0050      		subi r16,lo8(-(gs(.L40)))
 1732 0814 1040      		sbci r17,hi8(-(gs(.L40)))
 1733               	.LVL118:
 369:../../emulator/emulator.c **** 				{
 1734               		.loc 1 369 5 is_stmt 0 view .LVU311
 1735 0816 F801      		movw r30,r16
 432:../../emulator/emulator.c **** 						break;
 1736               		.loc 1 432 26 view .LVU312
 1737 0818 7C01      		movw r14,r24
 1738 081a EE0C      		lsl r14
 1739 081c FF1C      		rol r15
 1740 081e EE0C      		lsl r14
 1741 0820 FF1C      		rol r15
 1742 0822 E80C      		add r14,r8
 1743 0824 F91C      		adc r15,r9
 432:../../emulator/emulator.c **** 						break;
 1744               		.loc 1 432 48 view .LVU313
 1745 0826 6981      		ldd r22,Y+1
 1746 0828 7A81      		ldd r23,Y+2
 1747 082a 8B81      		ldd r24,Y+3
 1748 082c 9C81      		ldd r25,Y+4
 1749 082e A301      		movw r20,r6
 1750 0830 9201      		movw r18,r4
 1751 0832 0C94 0000 		jmp __tablejump2__
 1752               		.section	.jumptables.gcc.emulator_call,"a",@progbits
 1753               		.p2align	1
 1754               	.L40:
 1755 0048 0000      		.word gs(.L46)
 1756 004a 0000      		.word gs(.L45)
 1757 004c 0000      		.word gs(.L44)
 1758 004e 0000      		.word gs(.L43)
 1759 0050 0000      		.word gs(.L42)
 1760 0052 0000      		.word gs(.L41)
 1761 0054 0000      		.word gs(.L39)
 1762               		.text
 1763               	.LVL119:
 1764               	.L38:
 376:../../emulator/emulator.c **** 						break;
 1765               		.loc 1 376 7 is_stmt 1 view .LVU314
 376:../../emulator/emulator.c **** 						break;
 1766               		.loc 1 376 26 is_stmt 0 view .LVU315
 1767 0836 FC01      		movw r30,r24
 1768 0838 EE0F      		lsl r30
 1769 083a FF1F      		rol r31
 1770 083c EE0F      		lsl r30
 1771 083e FF1F      		rol r31
 1772 0840 E80D      		add r30,r8
 1773 0842 F91D      		adc r31,r9
 376:../../emulator/emulator.c **** 						break;
 1774               		.loc 1 376 53 view .LVU316
 1775 0844 2981      		ldd r18,Y+1
 1776 0846 3A81      		ldd r19,Y+2
 1777 0848 4B81      		ldd r20,Y+3
 1778 084a 5C81      		ldd r21,Y+4
 1779 084c C301      		movw r24,r6
 1780 084e B201      		movw r22,r4
 1781 0850 0E94 0000 		call __mulsi3
 1782 0854 00C0      		rjmp .L78
 1783               	.LVL120:
 1784               	.L46:
 384:../../emulator/emulator.c **** 						break;
 1785               		.loc 1 384 7 is_stmt 1 view .LVU317
 384:../../emulator/emulator.c **** 						break;
 1786               		.loc 1 384 54 is_stmt 0 view .LVU318
 1787 0856 0E94 0000 		call __umulsidi3
 384:../../emulator/emulator.c **** 						break;
 1788               		.loc 1 384 82 view .LVU319
 1789 085a 00E2      		ldi r16,lo8(32)
 1790 085c 0E94 0000 		call __ashrdi3
 1791               	.L79:
 400:../../emulator/emulator.c **** 						break;
 1792               		.loc 1 400 26 view .LVU320
 1793 0860 D701      		movw r26,r14
 1794 0862 2C93      		st X,r18
 1795 0864 1196      		adiw r26,1
 1796 0866 3C93      		st X,r19
 1797 0868 1197      		sbiw r26,1
 1798 086a 1296      		adiw r26,2
 1799 086c 4C93      		st X,r20
 1800 086e 1297      		sbiw r26,2
 1801 0870 1396      		adiw r26,3
 1802 0872 5C93      		st X,r21
 401:../../emulator/emulator.c **** 
 1803               		.loc 1 401 7 is_stmt 1 view .LVU321
 1804 0874 00C0      		rjmp .L16
 1805               	.L45:
 392:../../emulator/emulator.c **** 						break;
 1806               		.loc 1 392 7 view .LVU322
 392:../../emulator/emulator.c **** 						break;
 1807               		.loc 1 392 54 is_stmt 0 view .LVU323
 1808 0876 0E94 0000 		call __umulsidi3
 392:../../emulator/emulator.c **** 						break;
 1809               		.loc 1 392 82 view .LVU324
 1810 087a 00E2      		ldi r16,lo8(32)
 1811 087c 0E94 0000 		call __lshrdi3
 392:../../emulator/emulator.c **** 						break;
 1812               		.loc 1 392 26 view .LVU325
 1813 0880 F701      		movw r30,r14
 1814 0882 2083      		st Z,r18
 1815 0884 3183      		std Z+1,r19
 1816 0886 4283      		std Z+2,r20
 1817 0888 5383      		std Z+3,r21
 393:../../emulator/emulator.c **** 
 1818               		.loc 1 393 7 is_stmt 1 view .LVU326
 1819 088a 00C0      		rjmp .L16
 1820               	.L44:
 400:../../emulator/emulator.c **** 						break;
 1821               		.loc 1 400 7 view .LVU327
 400:../../emulator/emulator.c **** 						break;
 1822               		.loc 1 400 54 is_stmt 0 view .LVU328
 1823 088c 0E94 0000 		call __umulsidi3
 400:../../emulator/emulator.c **** 						break;
 1824               		.loc 1 400 82 view .LVU329
 1825 0890 00E2      		ldi r16,lo8(32)
 1826 0892 0E94 0000 		call __lshrdi3
 1827 0896 00C0      		rjmp .L79
 1828               	.L43:
 408:../../emulator/emulator.c **** 						break;
 1829               		.loc 1 408 7 is_stmt 1 view .LVU330
 408:../../emulator/emulator.c **** 						break;
 1830               		.loc 1 408 53 is_stmt 0 view .LVU331
 1831 0898 0E94 0000 		call __divmodsi4
 408:../../emulator/emulator.c **** 						break;
 1832               		.loc 1 408 26 view .LVU332
 1833 089c F701      		movw r30,r14
 1834 089e 2083      		st Z,r18
 1835 08a0 3183      		std Z+1,r19
 1836 08a2 4283      		std Z+2,r20
 1837 08a4 5383      		std Z+3,r21
 409:../../emulator/emulator.c **** 
 1838               		.loc 1 409 7 is_stmt 1 view .LVU333
 1839 08a6 00C0      		rjmp .L16
 1840               	.L42:
 416:../../emulator/emulator.c **** 						break;
 1841               		.loc 1 416 7 view .LVU334
 416:../../emulator/emulator.c **** 						break;
 1842               		.loc 1 416 48 is_stmt 0 view .LVU335
 1843 08a8 0E94 0000 		call __udivmodsi4
 416:../../emulator/emulator.c **** 						break;
 1844               		.loc 1 416 26 view .LVU336
 1845 08ac D701      		movw r26,r14
 1846 08ae 2D93      		st X+,r18
 1847 08b0 3D93      		st X+,r19
 1848 08b2 4D93      		st X+,r20
 1849 08b4 5C93      		st X,r21
 1850 08b6 1397      		sbiw r26,3
 417:../../emulator/emulator.c **** 
 1851               		.loc 1 417 7 is_stmt 1 view .LVU337
 1852 08b8 00C0      		rjmp .L16
 1853               	.L41:
 424:../../emulator/emulator.c **** 						break;
 1854               		.loc 1 424 7 view .LVU338
 424:../../emulator/emulator.c **** 						break;
 1855               		.loc 1 424 53 is_stmt 0 view .LVU339
 1856 08ba 0E94 0000 		call __divmodsi4
 1857 08be F701      		movw r30,r14
 1858 08c0 00C0      		rjmp .L78
 1859               	.L39:
 432:../../emulator/emulator.c **** 						break;
 1860               		.loc 1 432 7 is_stmt 1 view .LVU340
 432:../../emulator/emulator.c **** 						break;
 1861               		.loc 1 432 48 is_stmt 0 view .LVU341
 1862 08c2 0E94 0000 		call __udivmodsi4
 1863 08c6 D701      		movw r26,r14
 1864 08c8 6D93      		st X+,r22
 1865 08ca 7D93      		st X+,r23
 1866 08cc 8D93      		st X+,r24
 1867 08ce 9C93      		st X,r25
 1868 08d0 1397      		sbiw r26,3
 433:../../emulator/emulator.c **** 				}
 1869               		.loc 1 433 7 is_stmt 1 view .LVU342
 1870 08d2 00C0      		rjmp .L16
 1871               	.LVL121:
 1872               	.L37:
 438:../../emulator/emulator.c **** 				{
 1873               		.loc 1 438 5 view .LVU343
 1874 08d4 0730      		cpi r16,7
 1875 08d6 1105      		cpc r17,__zero_reg__
 1876 08d8 2105      		cpc r18,__zero_reg__
 1877 08da 3105      		cpc r19,__zero_reg__
 1878 08dc 00F4      		brsh .L47
 1879 08de 0050      		subi r16,lo8(-(gs(.L49)))
 1880 08e0 1040      		sbci r17,hi8(-(gs(.L49)))
 1881               	.LVL122:
 438:../../emulator/emulator.c **** 				{
 1882               		.loc 1 438 5 is_stmt 0 view .LVU344
 1883 08e2 F801      		movw r30,r16
 1884 08e4 0C94 0000 		jmp __tablejump2__
 1885               		.section	.jumptables.gcc.emulator_call,"a",@progbits
 1886               		.p2align	1
 1887               	.L49:
 1888 0056 0000      		.word gs(.L55)
 1889 0058 0000      		.word gs(.L54)
 1890 005a 0000      		.word gs(.L53)
 1891 005c 0000      		.word gs(.L52)
 1892 005e 0000      		.word gs(.L51)
 1893 0060 0000      		.word gs(.L50)
 1894 0062 0000      		.word gs(.L48)
 1895               		.text
 1896               	.LVL123:
 1897               	.L47:
 441:../../emulator/emulator.c **** 						{
 1898               		.loc 1 441 7 is_stmt 1 view .LVU345
 447:../../emulator/emulator.c **** 						}
 1899               		.loc 1 447 27 is_stmt 0 view .LVU346
 1900 08e8 FC01      		movw r30,r24
 1901 08ea EE0F      		lsl r30
 1902 08ec FF1F      		rol r31
 1903 08ee EE0F      		lsl r30
 1904 08f0 FF1F      		rol r31
 1905               	.LVL124:
 447:../../emulator/emulator.c **** 						}
 1906               		.loc 1 447 27 view .LVU347
 1907 08f2 E80D      		add r30,r8
 1908 08f4 F91D      		adc r31,r9
 447:../../emulator/emulator.c **** 						}
 1909               		.loc 1 447 49 view .LVU348
 1910 08f6 8981      		ldd r24,Y+1
 1911 08f8 9A81      		ldd r25,Y+2
 1912 08fa AB81      		ldd r26,Y+3
 1913 08fc BC81      		ldd r27,Y+4
 441:../../emulator/emulator.c **** 						{
 1914               		.loc 1 441 9 view .LVU349
 1915 08fe CD28      		or r12,r13
 1916 0900 CE28      		or r12,r14
 1917 0902 CF28      		or r12,r15
 1918 0904 01F0      		breq .L56
 447:../../emulator/emulator.c **** 						}
 1919               		.loc 1 447 8 is_stmt 1 view .LVU350
 447:../../emulator/emulator.c **** 						}
 1920               		.loc 1 447 49 is_stmt 0 view .LVU351
 1921 0906 8419      		sub r24,r4
 1922 0908 9509      		sbc r25,r5
 1923 090a A609      		sbc r26,r6
 1924 090c B709      		sbc r27,r7
 1925 090e 00C0      		rjmp .L77
 1926               	.L56:
 455:../../emulator/emulator.c **** 						}
 1927               		.loc 1 455 8 is_stmt 1 view .LVU352
 455:../../emulator/emulator.c **** 						}
 1928               		.loc 1 455 49 is_stmt 0 view .LVU353
 1929 0910 840D      		add r24,r4
 1930 0912 951D      		adc r25,r5
 1931 0914 A61D      		adc r26,r6
 1932 0916 B71D      		adc r27,r7
 1933 0918 00C0      		rjmp .L77
 1934               	.L55:
 464:../../emulator/emulator.c **** 						break;
 1935               		.loc 1 464 7 is_stmt 1 view .LVU354
 464:../../emulator/emulator.c **** 						break;
 1936               		.loc 1 464 26 is_stmt 0 view .LVU355
 1937 091a FC01      		movw r30,r24
 1938 091c EE0F      		lsl r30
 1939 091e FF1F      		rol r31
 1940 0920 EE0F      		lsl r30
 1941 0922 FF1F      		rol r31
 1942 0924 E80D      		add r30,r8
 1943 0926 F91D      		adc r31,r9
 464:../../emulator/emulator.c **** 						break;
 1944               		.loc 1 464 72 view .LVU356
 1945 0928 0FE1      		ldi r16,31
 1946 092a 4022      		and r4,r16
 1947 092c 5524      		clr r5
 464:../../emulator/emulator.c **** 						break;
 1948               		.loc 1 464 48 view .LVU357
 1949 092e 8981      		ldd r24,Y+1
 1950 0930 9A81      		ldd r25,Y+2
 1951 0932 AB81      		ldd r26,Y+3
 1952 0934 BC81      		ldd r27,Y+4
 1953 0936 00C0      		rjmp 2f
 1954               		1:
 1955 0938 880F      		lsl r24
 1956 093a 991F      		rol r25
 1957 093c AA1F      		rol r26
 1958 093e BB1F      		rol r27
 1959               		2:
 1960 0940 4A94      		dec r4
 1961 0942 02F4      		brpl 1b
 1962 0944 00C0      		rjmp .L77
 1963               	.L54:
 472:../../emulator/emulator.c **** 						break;
 1964               		.loc 1 472 7 is_stmt 1 view .LVU358
 472:../../emulator/emulator.c **** 						break;
 1965               		.loc 1 472 26 is_stmt 0 view .LVU359
 1966 0946 FC01      		movw r30,r24
 1967 0948 EE0F      		lsl r30
 1968 094a FF1F      		rol r31
 1969 094c EE0F      		lsl r30
 1970 094e FF1F      		rol r31
 1971 0950 E80D      		add r30,r8
 1972 0952 F91D      		adc r31,r9
 472:../../emulator/emulator.c **** 						break;
 1973               		.loc 1 472 53 view .LVU360
 1974 0954 81E0      		ldi r24,lo8(1)
 1975 0956 90E0      		ldi r25,0
 1976 0958 A0E0      		ldi r26,0
 1977 095a B0E0      		ldi r27,0
 1978 095c 2981      		ldd r18,Y+1
 1979 095e 3A81      		ldd r19,Y+2
 1980 0960 4B81      		ldd r20,Y+3
 1981 0962 5C81      		ldd r21,Y+4
 1982 0964 2415      		cp r18,r4
 1983 0966 3505      		cpc r19,r5
 1984 0968 4605      		cpc r20,r6
 1985 096a 5705      		cpc r21,r7
 1986 096c 04F4      		brge .+2
 1987 096e 00C0      		rjmp .L77
 1988               	.LVL125:
 1989               	.L83:
 480:../../emulator/emulator.c **** 						break;
 1990               		.loc 1 480 48 view .LVU361
 1991 0970 80E0      		ldi r24,0
 1992 0972 90E0      		ldi r25,0
 1993 0974 DC01      		movw r26,r24
 1994 0976 00C0      		rjmp .L77
 1995               	.LVL126:
 1996               	.L53:
 480:../../emulator/emulator.c **** 						break;
 1997               		.loc 1 480 7 is_stmt 1 view .LVU362
 480:../../emulator/emulator.c **** 						break;
 1998               		.loc 1 480 26 is_stmt 0 view .LVU363
 1999 0978 FC01      		movw r30,r24
 2000 097a EE0F      		lsl r30
 2001 097c FF1F      		rol r31
 2002 097e EE0F      		lsl r30
 2003 0980 FF1F      		rol r31
 2004 0982 E80D      		add r30,r8
 2005 0984 F91D      		adc r31,r9
 480:../../emulator/emulator.c **** 						break;
 2006               		.loc 1 480 48 view .LVU364
 2007 0986 81E0      		ldi r24,lo8(1)
 2008 0988 90E0      		ldi r25,0
 2009 098a A0E0      		ldi r26,0
 2010 098c B0E0      		ldi r27,0
 2011 098e C980      		ldd r12,Y+1
 2012 0990 DA80      		ldd r13,Y+2
 2013 0992 EB80      		ldd r14,Y+3
 2014 0994 FC80      		ldd r15,Y+4
 2015               	.LVL127:
 480:../../emulator/emulator.c **** 						break;
 2016               		.loc 1 480 48 view .LVU365
 2017 0996 C414      		cp r12,r4
 2018 0998 D504      		cpc r13,r5
 2019 099a E604      		cpc r14,r6
 2020 099c F704      		cpc r15,r7
 2021 099e 00F4      		brsh .+2
 2022 09a0 00C0      		rjmp .L77
 2023 09a2 00C0      		rjmp .L83
 2024               	.LVL128:
 2025               	.L52:
 488:../../emulator/emulator.c **** 						break;
 2026               		.loc 1 488 7 is_stmt 1 view .LVU366
 488:../../emulator/emulator.c **** 						break;
 2027               		.loc 1 488 26 is_stmt 0 view .LVU367
 2028 09a4 FC01      		movw r30,r24
 2029 09a6 EE0F      		lsl r30
 2030 09a8 FF1F      		rol r31
 2031 09aa EE0F      		lsl r30
 2032 09ac FF1F      		rol r31
 2033 09ae E80D      		add r30,r8
 2034 09b0 F91D      		adc r31,r9
 488:../../emulator/emulator.c **** 						break;
 2035               		.loc 1 488 48 view .LVU368
 2036 09b2 8981      		ldd r24,Y+1
 2037 09b4 9A81      		ldd r25,Y+2
 2038 09b6 AB81      		ldd r26,Y+3
 2039 09b8 BC81      		ldd r27,Y+4
 2040 09ba 8425      		eor r24,r4
 2041 09bc 9525      		eor r25,r5
 2042 09be A625      		eor r26,r6
 2043 09c0 B725      		eor r27,r7
 2044 09c2 00C0      		rjmp .L77
 2045               	.L51:
 492:../../emulator/emulator.c **** 						{
 2046               		.loc 1 492 7 is_stmt 1 view .LVU369
 498:../../emulator/emulator.c **** 						}
 2047               		.loc 1 498 78 is_stmt 0 view .LVU370
 2048 09c4 0FE1      		ldi r16,31
 2049 09c6 4022      		and r4,r16
 2050 09c8 5524      		clr r5
 498:../../emulator/emulator.c **** 						}
 2051               		.loc 1 498 27 view .LVU371
 2052 09ca FC01      		movw r30,r24
 2053 09cc EE0F      		lsl r30
 2054 09ce FF1F      		rol r31
 2055 09d0 EE0F      		lsl r30
 2056 09d2 FF1F      		rol r31
 2057 09d4 E80D      		add r30,r8
 2058 09d6 F91D      		adc r31,r9
 498:../../emulator/emulator.c **** 						}
 2059               		.loc 1 498 54 view .LVU372
 2060 09d8 8981      		ldd r24,Y+1
 2061 09da 9A81      		ldd r25,Y+2
 2062 09dc AB81      		ldd r26,Y+3
 2063 09de BC81      		ldd r27,Y+4
 492:../../emulator/emulator.c **** 						{
 2064               		.loc 1 492 9 view .LVU373
 2065 09e0 CD28      		or r12,r13
 2066 09e2 CE28      		or r12,r14
 2067 09e4 CF28      		or r12,r15
 2068 09e6 01F0      		breq .L59
 498:../../emulator/emulator.c **** 						}
 2069               		.loc 1 498 8 is_stmt 1 view .LVU374
 498:../../emulator/emulator.c **** 						}
 2070               		.loc 1 498 54 is_stmt 0 view .LVU375
 2071 09e8 00C0      		rjmp 2f
 2072               		1:
 2073 09ea B595      		asr r27
 2074 09ec A795      		ror r26
 2075 09ee 9795      		ror r25
 2076 09f0 8795      		ror r24
 2077               		2:
 2078 09f2 4A94      		dec r4
 2079 09f4 02F4      		brpl 1b
 2080 09f6 00C0      		rjmp .L77
 2081               	.L59:
 506:../../emulator/emulator.c **** 						}
 2082               		.loc 1 506 8 is_stmt 1 view .LVU376
 506:../../emulator/emulator.c **** 						}
 2083               		.loc 1 506 49 is_stmt 0 view .LVU377
 2084 09f8 00C0      		rjmp 2f
 2085               		1:
 2086 09fa B695      		lsr r27
 2087 09fc A795      		ror r26
 2088 09fe 9795      		ror r25
 2089 0a00 8795      		ror r24
 2090               		2:
 2091 0a02 4A94      		dec r4
 2092 0a04 02F4      		brpl 1b
 2093 0a06 00C0      		rjmp .L77
 2094               	.L50:
 515:../../emulator/emulator.c **** 						break;
 2095               		.loc 1 515 7 is_stmt 1 view .LVU378
 515:../../emulator/emulator.c **** 						break;
 2096               		.loc 1 515 26 is_stmt 0 view .LVU379
 2097 0a08 FC01      		movw r30,r24
 2098 0a0a EE0F      		lsl r30
 2099 0a0c FF1F      		rol r31
 2100 0a0e EE0F      		lsl r30
 2101 0a10 FF1F      		rol r31
 2102 0a12 E80D      		add r30,r8
 2103 0a14 F91D      		adc r31,r9
 515:../../emulator/emulator.c **** 						break;
 2104               		.loc 1 515 48 view .LVU380
 2105 0a16 8981      		ldd r24,Y+1
 2106 0a18 9A81      		ldd r25,Y+2
 2107 0a1a AB81      		ldd r26,Y+3
 2108 0a1c BC81      		ldd r27,Y+4
 2109 0a1e 8429      		or r24,r4
 2110 0a20 9529      		or r25,r5
 2111 0a22 A629      		or r26,r6
 2112 0a24 B729      		or r27,r7
 2113 0a26 00C0      		rjmp .L77
 2114               	.L48:
 523:../../emulator/emulator.c **** 						break;
 2115               		.loc 1 523 7 is_stmt 1 view .LVU381
 523:../../emulator/emulator.c **** 						break;
 2116               		.loc 1 523 26 is_stmt 0 view .LVU382
 2117 0a28 FC01      		movw r30,r24
 2118 0a2a EE0F      		lsl r30
 2119 0a2c FF1F      		rol r31
 2120 0a2e EE0F      		lsl r30
 2121 0a30 FF1F      		rol r31
 2122 0a32 E80D      		add r30,r8
 2123 0a34 F91D      		adc r31,r9
 523:../../emulator/emulator.c **** 						break;
 2124               		.loc 1 523 48 view .LVU383
 2125 0a36 8981      		ldd r24,Y+1
 2126 0a38 9A81      		ldd r25,Y+2
 2127 0a3a AB81      		ldd r26,Y+3
 2128 0a3c BC81      		ldd r27,Y+4
 2129 0a3e 8421      		and r24,r4
 2130 0a40 9521      		and r25,r5
 2131 0a42 A621      		and r26,r6
 2132 0a44 B721      		and r27,r7
 2133 0a46 00C0      		rjmp .L77
 2134               	.LVL129:
 2135               	.L10:
 523:../../emulator/emulator.c **** 						break;
 2136               		.loc 1 523 48 view .LVU384
 2137               	.LBE135:
 2138               	.LBB136:
 532:../../emulator/emulator.c **** 			rd = (instr >> 7) & 0x1F;
 2139               		.loc 1 532 4 is_stmt 1 view .LVU385
 533:../../emulator/emulator.c **** 			imm = (instr >> 12);
 2140               		.loc 1 533 4 view .LVU386
 534:../../emulator/emulator.c **** #ifdef DEBUG
 2141               		.loc 1 534 4 view .LVU387
 538:../../emulator/emulator.c **** 			break;
 2142               		.loc 1 538 4 view .LVU388
 533:../../emulator/emulator.c **** 			imm = (instr >> 12);
 2143               		.loc 1 533 16 is_stmt 0 view .LVU389
 2144 0a48 DB01      		movw r26,r22
 2145 0a4a CA01      		movw r24,r20
 2146               	.LVL130:
 533:../../emulator/emulator.c **** 			imm = (instr >> 12);
 2147               		.loc 1 533 16 view .LVU390
 2148 0a4c 27E0      		ldi r18,7
 2149               		1:
 2150 0a4e B695      		lsr r27
 2151 0a50 A795      		ror r26
 2152 0a52 9795      		ror r25
 2153 0a54 8795      		ror r24
 2154 0a56 2A95      		dec r18
 2155 0a58 01F4      		brne 1b
 533:../../emulator/emulator.c **** 			imm = (instr >> 12);
 2156               		.loc 1 533 7 view .LVU391
 2157 0a5a 8F71      		andi r24,31
 2158 0a5c 9927      		clr r25
 2159 0a5e AA27      		clr r26
 2160 0a60 BB27      		clr r27
 2161               	.LVL131:
 538:../../emulator/emulator.c **** 			break;
 2162               		.loc 1 538 23 view .LVU392
 2163 0a62 FC01      		movw r30,r24
 2164 0a64 3196      		adiw r30,1
 2165 0a66 EE0F      		lsl r30
 2166 0a68 FF1F      		rol r31
 2167 0a6a EE0F      		lsl r30
 2168 0a6c FF1F      		rol r31
 2169 0a6e E80D      		add r30,r8
 2170 0a70 F91D      		adc r31,r9
 538:../../emulator/emulator.c **** 			break;
 2171               		.loc 1 538 30 view .LVU393
 2172 0a72 4427      		clr r20
 2173 0a74 507F      		andi r21,240
 2174               	.LVL132:
 538:../../emulator/emulator.c **** 			break;
 2175               		.loc 1 538 30 view .LVU394
 2176 0a76 00C0      		rjmp .L76
 2177               	.LVL133:
 2178               	.L9:
 538:../../emulator/emulator.c **** 			break;
 2179               		.loc 1 538 30 view .LVU395
 2180               	.LBE136:
 2181               	.LBB137:
 544:../../emulator/emulator.c **** 			u32 imm, rs1, rs2, funct3;
 2182               		.loc 1 544 4 is_stmt 1 view .LVU396
 545:../../emulator/emulator.c **** 
 2183               		.loc 1 545 4 view .LVU397
 547:../../emulator/emulator.c **** 			rs1 = (instr >> 15) & 0x1F;
 2184               		.loc 1 547 4 view .LVU398
 547:../../emulator/emulator.c **** 			rs1 = (instr >> 15) & 0x1F;
 2185               		.loc 1 547 20 is_stmt 0 view .LVU399
 2186 0a78 8A01      		movw r16,r20
 2187 0a7a 9B01      		movw r18,r22
 2188 0a7c ECE0      		ldi r30,12
 2189               		1:
 2190 0a7e 3695      		lsr r19
 2191 0a80 2795      		ror r18
 2192 0a82 1795      		ror r17
 2193 0a84 0795      		ror r16
 2194 0a86 EA95      		dec r30
 2195 0a88 01F4      		brne 1b
 547:../../emulator/emulator.c **** 			rs1 = (instr >> 15) & 0x1F;
 2196               		.loc 1 547 11 view .LVU400
 2197 0a8a 0770      		andi r16,7
 2198 0a8c 1127      		clr r17
 2199 0a8e 2227      		clr r18
 2200 0a90 3327      		clr r19
 2201               	.LVL134:
 548:../../emulator/emulator.c **** 			rs2 = (instr >> 20) & 0x1F;
 2202               		.loc 1 548 4 is_stmt 1 view .LVU401
 548:../../emulator/emulator.c **** 			rs2 = (instr >> 20) & 0x1F;
 2203               		.loc 1 548 17 is_stmt 0 view .LVU402
 2204 0a92 6A01      		movw r12,r20
 2205 0a94 7B01      		movw r14,r22
 2206 0a96 FFE0      		ldi r31,15
 2207               		1:
 2208 0a98 F694      		lsr r15
 2209 0a9a E794      		ror r14
 2210 0a9c D794      		ror r13
 2211 0a9e C794      		ror r12
 2212 0aa0 FA95      		dec r31
 2213 0aa2 01F4      		brne 1b
 548:../../emulator/emulator.c **** 			rs2 = (instr >> 20) & 0x1F;
 2214               		.loc 1 548 8 view .LVU403
 2215 0aa4 D701      		movw r26,r14
 2216 0aa6 C601      		movw r24,r12
 2217               	.LVL135:
 548:../../emulator/emulator.c **** 			rs2 = (instr >> 20) & 0x1F;
 2218               		.loc 1 548 8 view .LVU404
 2219 0aa8 8F71      		andi r24,31
 2220 0aaa 9927      		clr r25
 2221 0aac AA27      		clr r26
 2222 0aae BB27      		clr r27
 2223 0ab0 8D87      		std Y+13,r24
 2224 0ab2 9E87      		std Y+14,r25
 2225 0ab4 AF87      		std Y+15,r26
 2226 0ab6 B88B      		std Y+16,r27
 2227               	.LVL136:
 549:../../emulator/emulator.c **** 
 2228               		.loc 1 549 4 is_stmt 1 view .LVU405
 549:../../emulator/emulator.c **** 
 2229               		.loc 1 549 17 is_stmt 0 view .LVU406
 2230 0ab8 6A01      		movw r12,r20
 2231 0aba 7B01      		movw r14,r22
 2232 0abc A4E1      		ldi r26,20
 2233               		1:
 2234 0abe F694      		lsr r15
 2235 0ac0 E794      		ror r14
 2236 0ac2 D794      		ror r13
 2237 0ac4 C794      		ror r12
 2238 0ac6 AA95      		dec r26
 2239 0ac8 01F4      		brne 1b
 549:../../emulator/emulator.c **** 
 2240               		.loc 1 549 8 view .LVU407
 2241 0aca D701      		movw r26,r14
 2242 0acc C601      		movw r24,r12
 2243               	.LVL137:
 549:../../emulator/emulator.c **** 
 2244               		.loc 1 549 8 view .LVU408
 2245 0ace 8F71      		andi r24,31
 2246 0ad0 9927      		clr r25
 2247 0ad2 AA27      		clr r26
 2248 0ad4 BB27      		clr r27
 2249 0ad6 8983      		std Y+1,r24
 2250 0ad8 9A83      		std Y+2,r25
 2251 0ada AB83      		std Y+3,r26
 2252 0adc BC83      		std Y+4,r27
 2253               	.LVL138:
 551:../../emulator/emulator.c **** 				((instr & 0x7E000000) >> 20) |
 2254               		.loc 1 551 4 is_stmt 1 view .LVU409
 556:../../emulator/emulator.c **** 			switch(funct3)
 2255               		.loc 1 556 4 view .LVU410
 2256               	.LBB138:
 2257               	.LBI138:
  26:../../emulator/emulator.c **** {
 2258               		.loc 1 26 19 view .LVU411
 2259               	.LBB139:
  28:../../emulator/emulator.c **** 	return (value ^ m) - m;
 2260               		.loc 1 28 2 view .LVU412
  29:../../emulator/emulator.c **** }
 2261               		.loc 1 29 2 view .LVU413
 2262               	.LBE139:
 2263               	.LBE138:
 551:../../emulator/emulator.c **** 				((instr & 0x7E000000) >> 20) |
 2264               		.loc 1 551 27 is_stmt 0 view .LVU414
 2265 0ade 2A01      		movw r4,r20
 2266 0ae0 3B01      		movw r6,r22
 2267               	.LVL139:
 551:../../emulator/emulator.c **** 				((instr & 0x7E000000) >> 20) |
 2268               		.loc 1 551 27 view .LVU415
 2269 0ae2 B7E0      		ldi r27,7
 2270               		1:
 2271 0ae4 7694      		lsr r7
 2272 0ae6 6794      		ror r6
 2273 0ae8 5794      		ror r5
 2274 0aea 4794      		ror r4
 2275 0aec BA95      		dec r27
 2276 0aee 01F4      		brne 1b
 2277 0af0 9EE1      		ldi r25,30
 2278 0af2 4922      		and r4,r25
 2279 0af4 5524      		clr r5
 2280 0af6 6624      		clr r6
 2281 0af8 7724      		clr r7
 552:../../emulator/emulator.c **** 				((instr & 0x80) << 4) |
 2282               		.loc 1 552 27 view .LVU416
 2283 0afa D701      		movw r26,r14
 2284 0afc C601      		movw r24,r12
 2285               	.LVL140:
 552:../../emulator/emulator.c **** 				((instr & 0x80) << 4) |
 2286               		.loc 1 552 27 view .LVU417
 2287 0afe 807E      		andi r24,224
 2288 0b00 9770      		andi r25,7
 2289 0b02 AA27      		clr r26
 2290 0b04 BB27      		clr r27
 551:../../emulator/emulator.c **** 				((instr & 0x7E000000) >> 20) |
 2291               		.loc 1 551 33 view .LVU418
 2292 0b06 482A      		or r4,r24
 2293 0b08 592A      		or r5,r25
 2294 0b0a 6A2A      		or r6,r26
 2295 0b0c 7B2A      		or r7,r27
 553:../../emulator/emulator.c **** 				((instr & 0x80000000) >> 20);
 2296               		.loc 1 553 21 view .LVU419
 2297 0b0e 84E0      		ldi r24,4
 2298               		1:
 2299 0b10 440F      		lsl r20
 2300 0b12 551F      		rol r21
 2301 0b14 661F      		rol r22
 2302 0b16 771F      		rol r23
 2303 0b18 8A95      		dec r24
 2304 0b1a 01F4      		brne 1b
 2305               	.LVL141:
 553:../../emulator/emulator.c **** 				((instr & 0x80000000) >> 20);
 2306               		.loc 1 553 21 view .LVU420
 2307 0b1c 4427      		clr r20
 2308 0b1e 5870      		andi r21,8
 2309 0b20 6627      		clr r22
 2310 0b22 7727      		clr r23
 552:../../emulator/emulator.c **** 				((instr & 0x80) << 4) |
 2311               		.loc 1 552 34 view .LVU421
 2312 0b24 4429      		or r20,r4
 2313 0b26 5529      		or r21,r5
 2314 0b28 6629      		or r22,r6
 2315 0b2a 7729      		or r23,r7
 554:../../emulator/emulator.c **** 
 2316               		.loc 1 554 27 view .LVU422
 2317 0b2c CC24      		clr r12
 2318 0b2e 98E0      		ldi r25,8
 2319 0b30 D922      		and r13,r25
 2320 0b32 EE24      		clr r14
 2321 0b34 FF24      		clr r15
 551:../../emulator/emulator.c **** 				((instr & 0x7E000000) >> 20) |
 2322               		.loc 1 551 8 view .LVU423
 2323 0b36 4C29      		or r20,r12
 2324 0b38 5D29      		or r21,r13
 2325 0b3a 6E29      		or r22,r14
 2326 0b3c 7F29      		or r23,r15
 2327               	.LBB141:
 2328               	.LBB140:
  29:../../emulator/emulator.c **** }
 2329               		.loc 1 29 16 view .LVU424
 2330 0b3e A8E0      		ldi r26,8
 2331 0b40 5A27      		eor r21,r26
  29:../../emulator/emulator.c **** }
 2332               		.loc 1 29 21 view .LVU425
 2333 0b42 2A01      		movw r4,r20
 2334 0b44 3B01      		movw r6,r22
 2335 0b46 B8E0      		ldi r27,8
 2336 0b48 5B1A      		sub r5,r27
 2337 0b4a 6108      		sbc r6,__zero_reg__
 2338 0b4c 7108      		sbc r7,__zero_reg__
 2339               	.LVL142:
  29:../../emulator/emulator.c **** }
 2340               		.loc 1 29 21 view .LVU426
 2341               	.LBE140:
 2342               	.LBE141:
 557:../../emulator/emulator.c **** 			{
 2343               		.loc 1 557 4 is_stmt 1 view .LVU427
 2344 0b4e 0530      		cpi r16,5
 2345 0b50 1105      		cpc r17,__zero_reg__
 2346 0b52 2105      		cpc r18,__zero_reg__
 2347 0b54 3105      		cpc r19,__zero_reg__
 2348 0b56 01F4      		brne .+2
 2349 0b58 00C0      		rjmp .L60
 2350 0b5a 00F0      		brlo .+2
 2351 0b5c 00C0      		rjmp .L61
 2352 0b5e 0130      		cpi r16,1
 2353 0b60 1105      		cpc r17,__zero_reg__
 2354 0b62 2105      		cpc r18,__zero_reg__
 2355 0b64 3105      		cpc r19,__zero_reg__
 2356 0b66 01F4      		brne .+2
 2357 0b68 00C0      		rjmp .L62
 2358 0b6a 0430      		cpi r16,4
 2359 0b6c 1105      		cpc r17,__zero_reg__
 2360 0b6e 2105      		cpc r18,__zero_reg__
 2361 0b70 3105      		cpc r19,__zero_reg__
 2362 0b72 01F4      		brne .+2
 2363 0b74 00C0      		rjmp .L63
 2364 0b76 012B      		or r16,r17
 2365 0b78 022B      		or r16,r18
 2366 0b7a 032B      		or r16,r19
 2367 0b7c 01F0      		breq .+2
 2368 0b7e 00C0      		rjmp .L4
 564:../../emulator/emulator.c **** 					{
 2369               		.loc 1 564 6 view .LVU428
 2370               	.LBE137:
 2371               	.LBB142:
 309:../../emulator/emulator.c **** 			break;
 2372               		.loc 1 309 28 is_stmt 0 view .LVU429
 2373 0b80 D401      		movw r26,r8
 2374 0b82 4D91      		ld r20,X+
 2375 0b84 5D91      		ld r21,X+
 2376 0b86 6D91      		ld r22,X+
 2377 0b88 7C91      		ld r23,X
 2378               	.LBE142:
 2379               	.LBB143:
 564:../../emulator/emulator.c **** 					{
 2380               		.loc 1 564 23 view .LVU430
 2381 0b8a AD85      		ldd r26,Y+13
 2382 0b8c BE85      		ldd r27,Y+14
 2383 0b8e 1196      		adiw r26,1
 2384 0b90 AA0F      		lsl r26
 2385 0b92 BB1F      		rol r27
 2386 0b94 AA0F      		lsl r26
 2387 0b96 BB1F      		rol r27
 2388 0b98 A80D      		add r26,r8
 2389 0b9a B91D      		adc r27,r9
 564:../../emulator/emulator.c **** 					{
 2390               		.loc 1 564 46 view .LVU431
 2391 0b9c E981      		ldd r30,Y+1
 2392 0b9e FA81      		ldd r31,Y+2
 2393 0ba0 3196      		adiw r30,1
 2394 0ba2 EE0F      		lsl r30
 2395 0ba4 FF1F      		rol r31
 2396 0ba6 EE0F      		lsl r30
 2397 0ba8 FF1F      		rol r31
 2398 0baa E80D      		add r30,r8
 2399 0bac F91D      		adc r31,r9
 564:../../emulator/emulator.c **** 					{
 2400               		.loc 1 564 8 view .LVU432
 2401 0bae 8D91      		ld r24,X+
 2402 0bb0 9D91      		ld r25,X+
 2403 0bb2 0D90      		ld __tmp_reg__,X+
 2404 0bb4 BC91      		ld r27,X
 2405 0bb6 A02D      		mov r26,__tmp_reg__
 2406 0bb8 0081      		ld r16,Z
 2407 0bba 1181      		ldd r17,Z+1
 2408 0bbc 2281      		ldd r18,Z+2
 2409 0bbe 3381      		ldd r19,Z+3
 2410               	.LVL143:
 564:../../emulator/emulator.c **** 					{
 2411               		.loc 1 564 8 view .LVU433
 2412 0bc0 8017      		cp r24,r16
 2413 0bc2 9107      		cpc r25,r17
 2414 0bc4 A207      		cpc r26,r18
 2415 0bc6 B307      		cpc r27,r19
 2416 0bc8 01F0      		breq .+2
 2417 0bca 00C0      		rjmp .L16
 2418               	.L80:
 602:../../emulator/emulator.c **** 						return 0;
 2419               		.loc 1 602 7 is_stmt 1 view .LVU434
 602:../../emulator/emulator.c **** 						return 0;
 2420               		.loc 1 602 15 is_stmt 0 view .LVU435
 2421 0bcc 440D      		add r20,r4
 2422 0bce 551D      		adc r21,r5
 2423 0bd0 661D      		adc r22,r6
 2424 0bd2 771D      		adc r23,r7
 2425 0bd4 F401      		movw r30,r8
 2426 0bd6 4083      		st Z,r20
 2427 0bd8 5183      		std Z+1,r21
 2428 0bda 6283      		std Z+2,r22
 2429 0bdc 7383      		std Z+3,r23
 603:../../emulator/emulator.c **** 					}
 2430               		.loc 1 603 7 is_stmt 1 view .LVU436
 603:../../emulator/emulator.c **** 					}
 2431               		.loc 1 603 14 is_stmt 0 view .LVU437
 2432 0bde 00C0      		rjmp .L4
 2433               	.LVL144:
 2434               	.L61:
 603:../../emulator/emulator.c **** 					}
 2435               		.loc 1 603 14 view .LVU438
 2436 0be0 F401      		movw r30,r8
 2437 0be2 C080      		ld r12,Z
 2438 0be4 D180      		ldd r13,Z+1
 2439 0be6 E280      		ldd r14,Z+2
 2440 0be8 F380      		ldd r15,Z+3
 2441 0bea 8D85      		ldd r24,Y+13
 2442 0bec 9E85      		ldd r25,Y+14
 2443 0bee 0196      		adiw r24,1
 2444 0bf0 E981      		ldd r30,Y+1
 2445 0bf2 FA81      		ldd r31,Y+2
 2446 0bf4 3196      		adiw r30,1
 2447 0bf6 0630      		cpi r16,6
 2448 0bf8 1105      		cpc r17,__zero_reg__
 2449 0bfa 2105      		cpc r18,__zero_reg__
 2450 0bfc 3105      		cpc r19,__zero_reg__
 2451 0bfe 01F0      		breq .+2
 2452 0c00 00C0      		rjmp .L70
 612:../../emulator/emulator.c **** 					{
 2453               		.loc 1 612 6 is_stmt 1 view .LVU439
 612:../../emulator/emulator.c **** 					{
 2454               		.loc 1 612 23 is_stmt 0 view .LVU440
 2455 0c02 DC01      		movw r26,r24
 2456 0c04 AA0F      		lsl r26
 2457 0c06 BB1F      		rol r27
 2458 0c08 AA0F      		lsl r26
 2459 0c0a BB1F      		rol r27
 2460 0c0c A80D      		add r26,r8
 2461 0c0e B91D      		adc r27,r9
 612:../../emulator/emulator.c **** 					{
 2462               		.loc 1 612 45 view .LVU441
 2463 0c10 EE0F      		lsl r30
 2464 0c12 FF1F      		rol r31
 2465 0c14 EE0F      		lsl r30
 2466 0c16 FF1F      		rol r31
 2467 0c18 E80D      		add r30,r8
 2468 0c1a F91D      		adc r31,r9
 612:../../emulator/emulator.c **** 					{
 2469               		.loc 1 612 8 view .LVU442
 2470 0c1c 8D91      		ld r24,X+
 2471 0c1e 9D91      		ld r25,X+
 2472 0c20 0D90      		ld __tmp_reg__,X+
 2473 0c22 BC91      		ld r27,X
 2474 0c24 A02D      		mov r26,__tmp_reg__
 2475 0c26 4081      		ld r20,Z
 2476 0c28 5181      		ldd r21,Z+1
 2477 0c2a 6281      		ldd r22,Z+2
 2478 0c2c 7381      		ldd r23,Z+3
 2479 0c2e 8417      		cp r24,r20
 2480 0c30 9507      		cpc r25,r21
 2481 0c32 A607      		cpc r26,r22
 2482 0c34 B707      		cpc r27,r23
 2483 0c36 00F0      		brlo .+2
 2484 0c38 00C0      		rjmp .L16
 614:../../emulator/emulator.c **** 						return 0;
 2485               		.loc 1 614 7 is_stmt 1 view .LVU443
 614:../../emulator/emulator.c **** 						return 0;
 2486               		.loc 1 614 15 is_stmt 0 view .LVU444
 2487 0c3a C40C      		add r12,r4
 2488 0c3c D51C      		adc r13,r5
 2489 0c3e E61C      		adc r14,r6
 2490 0c40 F71C      		adc r15,r7
 2491 0c42 D401      		movw r26,r8
 2492 0c44 CD92      		st X+,r12
 2493 0c46 DD92      		st X+,r13
 2494 0c48 ED92      		st X+,r14
 2495 0c4a FC92      		st X,r15
 2496 0c4c 1397      		sbiw r26,3
 615:../../emulator/emulator.c **** 					}
 2497               		.loc 1 615 7 is_stmt 1 view .LVU445
 615:../../emulator/emulator.c **** 					}
 2498               		.loc 1 615 14 is_stmt 0 view .LVU446
 2499 0c4e 00C0      		rjmp .L4
 2500               	.L62:
 576:../../emulator/emulator.c **** 					{
 2501               		.loc 1 576 6 is_stmt 1 view .LVU447
 2502               	.LBE143:
 2503               	.LBB144:
 309:../../emulator/emulator.c **** 			break;
 2504               		.loc 1 309 28 is_stmt 0 view .LVU448
 2505 0c50 D401      		movw r26,r8
 2506 0c52 4D91      		ld r20,X+
 2507 0c54 5D91      		ld r21,X+
 2508 0c56 6D91      		ld r22,X+
 2509 0c58 7C91      		ld r23,X
 2510               	.LBE144:
 2511               	.LBB145:
 576:../../emulator/emulator.c **** 					{
 2512               		.loc 1 576 23 view .LVU449
 2513 0c5a AD85      		ldd r26,Y+13
 2514 0c5c BE85      		ldd r27,Y+14
 2515 0c5e 1196      		adiw r26,1
 2516 0c60 AA0F      		lsl r26
 2517 0c62 BB1F      		rol r27
 2518 0c64 AA0F      		lsl r26
 2519 0c66 BB1F      		rol r27
 2520               	.LVL145:
 576:../../emulator/emulator.c **** 					{
 2521               		.loc 1 576 23 view .LVU450
 2522 0c68 A80D      		add r26,r8
 2523 0c6a B91D      		adc r27,r9
 576:../../emulator/emulator.c **** 					{
 2524               		.loc 1 576 46 view .LVU451
 2525 0c6c E981      		ldd r30,Y+1
 2526 0c6e FA81      		ldd r31,Y+2
 2527 0c70 3196      		adiw r30,1
 2528 0c72 EE0F      		lsl r30
 2529 0c74 FF1F      		rol r31
 2530 0c76 EE0F      		lsl r30
 2531 0c78 FF1F      		rol r31
 2532 0c7a E80D      		add r30,r8
 2533 0c7c F91D      		adc r31,r9
 576:../../emulator/emulator.c **** 					{
 2534               		.loc 1 576 8 view .LVU452
 2535 0c7e 8D91      		ld r24,X+
 2536 0c80 9D91      		ld r25,X+
 2537 0c82 0D90      		ld __tmp_reg__,X+
 2538 0c84 BC91      		ld r27,X
 2539 0c86 A02D      		mov r26,__tmp_reg__
 2540 0c88 0081      		ld r16,Z
 2541 0c8a 1181      		ldd r17,Z+1
 2542 0c8c 2281      		ldd r18,Z+2
 2543 0c8e 3381      		ldd r19,Z+3
 2544 0c90 8017      		cp r24,r16
 2545 0c92 9107      		cpc r25,r17
 2546 0c94 A207      		cpc r26,r18
 2547 0c96 B307      		cpc r27,r19
 2548 0c98 01F4      		brne .+2
 2549 0c9a 00C0      		rjmp .L16
 2550 0c9c 00C0      		rjmp .L80
 2551               	.LVL146:
 2552               	.L63:
 588:../../emulator/emulator.c **** 					{
 2553               		.loc 1 588 6 is_stmt 1 view .LVU453
 2554               	.LBE145:
 2555               	.LBB146:
 309:../../emulator/emulator.c **** 			break;
 2556               		.loc 1 309 28 is_stmt 0 view .LVU454
 2557 0c9e D401      		movw r26,r8
 2558 0ca0 4D91      		ld r20,X+
 2559 0ca2 5D91      		ld r21,X+
 2560 0ca4 6D91      		ld r22,X+
 2561 0ca6 7C91      		ld r23,X
 2562               	.LBE146:
 2563               	.LBB147:
 588:../../emulator/emulator.c **** 					{
 2564               		.loc 1 588 28 view .LVU455
 2565 0ca8 AD85      		ldd r26,Y+13
 2566 0caa BE85      		ldd r27,Y+14
 2567 0cac 1196      		adiw r26,1
 2568 0cae AA0F      		lsl r26
 2569 0cb0 BB1F      		rol r27
 2570 0cb2 AA0F      		lsl r26
 2571 0cb4 BB1F      		rol r27
 2572 0cb6 A80D      		add r26,r8
 2573 0cb8 B91D      		adc r27,r9
 588:../../emulator/emulator.c **** 					{
 2574               		.loc 1 588 55 view .LVU456
 2575 0cba E981      		ldd r30,Y+1
 2576 0cbc FA81      		ldd r31,Y+2
 2577 0cbe 3196      		adiw r30,1
 2578 0cc0 EE0F      		lsl r30
 2579 0cc2 FF1F      		rol r31
 2580 0cc4 EE0F      		lsl r30
 2581 0cc6 FF1F      		rol r31
 2582 0cc8 E80D      		add r30,r8
 2583 0cca F91D      		adc r31,r9
 588:../../emulator/emulator.c **** 					{
 2584               		.loc 1 588 8 view .LVU457
 2585 0ccc 8D91      		ld r24,X+
 2586 0cce 9D91      		ld r25,X+
 2587 0cd0 0D90      		ld __tmp_reg__,X+
 2588 0cd2 BC91      		ld r27,X
 2589 0cd4 A02D      		mov r26,__tmp_reg__
 2590 0cd6 0081      		ld r16,Z
 2591 0cd8 1181      		ldd r17,Z+1
 2592 0cda 2281      		ldd r18,Z+2
 2593 0cdc 3381      		ldd r19,Z+3
 2594               	.LVL147:
 588:../../emulator/emulator.c **** 					{
 2595               		.loc 1 588 8 view .LVU458
 2596 0cde 8017      		cp r24,r16
 2597 0ce0 9107      		cpc r25,r17
 2598 0ce2 A207      		cpc r26,r18
 2599 0ce4 B307      		cpc r27,r19
 2600 0ce6 04F0      		brlt .+2
 2601 0ce8 00C0      		rjmp .L16
 2602 0cea 00C0      		rjmp .L80
 2603               	.LVL148:
 2604               	.L60:
 600:../../emulator/emulator.c **** 					{
 2605               		.loc 1 600 6 is_stmt 1 view .LVU459
 2606               	.LBE147:
 2607               	.LBB148:
 309:../../emulator/emulator.c **** 			break;
 2608               		.loc 1 309 28 is_stmt 0 view .LVU460
 2609 0cec D401      		movw r26,r8
 2610 0cee 4D91      		ld r20,X+
 2611 0cf0 5D91      		ld r21,X+
 2612 0cf2 6D91      		ld r22,X+
 2613 0cf4 7C91      		ld r23,X
 2614               	.LBE148:
 2615               	.LBB149:
 600:../../emulator/emulator.c **** 					{
 2616               		.loc 1 600 28 view .LVU461
 2617 0cf6 AD85      		ldd r26,Y+13
 2618 0cf8 BE85      		ldd r27,Y+14
 2619 0cfa 1196      		adiw r26,1
 2620 0cfc AA0F      		lsl r26
 2621 0cfe BB1F      		rol r27
 2622 0d00 AA0F      		lsl r26
 2623 0d02 BB1F      		rol r27
 2624 0d04 A80D      		add r26,r8
 2625 0d06 B91D      		adc r27,r9
 600:../../emulator/emulator.c **** 					{
 2626               		.loc 1 600 56 view .LVU462
 2627 0d08 E981      		ldd r30,Y+1
 2628 0d0a FA81      		ldd r31,Y+2
 2629 0d0c 3196      		adiw r30,1
 2630 0d0e EE0F      		lsl r30
 2631 0d10 FF1F      		rol r31
 2632 0d12 EE0F      		lsl r30
 2633 0d14 FF1F      		rol r31
 2634 0d16 E80D      		add r30,r8
 2635 0d18 F91D      		adc r31,r9
 600:../../emulator/emulator.c **** 					{
 2636               		.loc 1 600 8 view .LVU463
 2637 0d1a 8D91      		ld r24,X+
 2638 0d1c 9D91      		ld r25,X+
 2639 0d1e 0D90      		ld __tmp_reg__,X+
 2640 0d20 BC91      		ld r27,X
 2641 0d22 A02D      		mov r26,__tmp_reg__
 2642 0d24 0081      		ld r16,Z
 2643 0d26 1181      		ldd r17,Z+1
 2644 0d28 2281      		ldd r18,Z+2
 2645 0d2a 3381      		ldd r19,Z+3
 2646               	.LVL149:
 600:../../emulator/emulator.c **** 					{
 2647               		.loc 1 600 8 view .LVU464
 2648 0d2c 8017      		cp r24,r16
 2649 0d2e 9107      		cpc r25,r17
 2650 0d30 A207      		cpc r26,r18
 2651 0d32 B307      		cpc r27,r19
 2652 0d34 04F4      		brge .+2
 2653 0d36 00C0      		rjmp .L16
 2654 0d38 00C0      		rjmp .L80
 2655               	.LVL150:
 2656               	.L70:
 624:../../emulator/emulator.c **** 					{
 2657               		.loc 1 624 6 is_stmt 1 view .LVU465
 624:../../emulator/emulator.c **** 					{
 2658               		.loc 1 624 23 is_stmt 0 view .LVU466
 2659 0d3a DC01      		movw r26,r24
 2660 0d3c AA0F      		lsl r26
 2661 0d3e BB1F      		rol r27
 2662 0d40 AA0F      		lsl r26
 2663 0d42 BB1F      		rol r27
 2664 0d44 A80D      		add r26,r8
 2665 0d46 B91D      		adc r27,r9
 624:../../emulator/emulator.c **** 					{
 2666               		.loc 1 624 46 view .LVU467
 2667 0d48 EE0F      		lsl r30
 2668 0d4a FF1F      		rol r31
 2669 0d4c EE0F      		lsl r30
 2670 0d4e FF1F      		rol r31
 2671               	.LVL151:
 624:../../emulator/emulator.c **** 					{
 2672               		.loc 1 624 46 view .LVU468
 2673 0d50 E80D      		add r30,r8
 2674 0d52 F91D      		adc r31,r9
 624:../../emulator/emulator.c **** 					{
 2675               		.loc 1 624 8 view .LVU469
 2676 0d54 8D91      		ld r24,X+
 2677 0d56 9D91      		ld r25,X+
 2678 0d58 0D90      		ld __tmp_reg__,X+
 2679 0d5a BC91      		ld r27,X
 2680 0d5c A02D      		mov r26,__tmp_reg__
 2681 0d5e 4081      		ld r20,Z
 2682 0d60 5181      		ldd r21,Z+1
 2683 0d62 6281      		ldd r22,Z+2
 2684 0d64 7381      		ldd r23,Z+3
 2685 0d66 8417      		cp r24,r20
 2686 0d68 9507      		cpc r25,r21
 2687 0d6a A607      		cpc r26,r22
 2688 0d6c B707      		cpc r27,r23
 2689 0d6e 00F4      		brsh .+2
 2690 0d70 00C0      		rjmp .L16
 626:../../emulator/emulator.c **** 						return 0;
 2691               		.loc 1 626 7 is_stmt 1 view .LVU470
 626:../../emulator/emulator.c **** 						return 0;
 2692               		.loc 1 626 15 is_stmt 0 view .LVU471
 2693 0d72 4C0C      		add r4,r12
 2694 0d74 5D1C      		adc r5,r13
 2695 0d76 6E1C      		adc r6,r14
 2696 0d78 7F1C      		adc r7,r15
 2697               	.LVL152:
 626:../../emulator/emulator.c **** 						return 0;
 2698               		.loc 1 626 15 view .LVU472
 2699 0d7a F401      		movw r30,r8
 2700 0d7c 4082      		st Z,r4
 2701 0d7e 5182      		std Z+1,r5
 2702 0d80 6282      		std Z+2,r6
 2703 0d82 7382      		std Z+3,r7
 627:../../emulator/emulator.c **** 					}
 2704               		.loc 1 627 7 is_stmt 1 view .LVU473
 627:../../emulator/emulator.c **** 					}
 2705               		.loc 1 627 14 is_stmt 0 view .LVU474
 2706 0d84 00C0      		rjmp .L4
 2707               	.LVL153:
 2708               	.L7:
 627:../../emulator/emulator.c **** 					}
 2709               		.loc 1 627 14 view .LVU475
 2710               	.LBE149:
 2711               	.LBB150:
 643:../../emulator/emulator.c **** 			u32 rd, imm;
 2712               		.loc 1 643 4 is_stmt 1 view .LVU476
 644:../../emulator/emulator.c **** 			rd = (instr >> 7) & 0x1F;
 2713               		.loc 1 644 4 view .LVU477
 645:../../emulator/emulator.c **** 
 2714               		.loc 1 645 4 view .LVU478
 647:../../emulator/emulator.c **** 					(instr & 0xFF000) |
 2715               		.loc 1 647 4 view .LVU479
 652:../../emulator/emulator.c **** #ifdef DEBUG
 2716               		.loc 1 652 4 view .LVU480
 656:../../emulator/emulator.c **** 			emu->PC += offset;
 2717               		.loc 1 656 4 view .LVU481
 656:../../emulator/emulator.c **** 			emu->PC += offset;
 2718               		.loc 1 656 28 is_stmt 0 view .LVU482
 2719 0d86 D401      		movw r26,r8
 2720 0d88 CD90      		ld r12,X+
 2721 0d8a DD90      		ld r13,X+
 2722 0d8c ED90      		ld r14,X+
 2723 0d8e FC90      		ld r15,X
 645:../../emulator/emulator.c **** 
 2724               		.loc 1 645 16 view .LVU483
 2725 0d90 DB01      		movw r26,r22
 2726 0d92 CA01      		movw r24,r20
 2727               	.LVL154:
 645:../../emulator/emulator.c **** 
 2728               		.loc 1 645 16 view .LVU484
 2729 0d94 17E0      		ldi r17,7
 2730               		1:
 2731 0d96 B695      		lsr r27
 2732 0d98 A795      		ror r26
 2733 0d9a 9795      		ror r25
 2734 0d9c 8795      		ror r24
 2735 0d9e 1A95      		dec r17
 2736 0da0 01F4      		brne 1b
 645:../../emulator/emulator.c **** 
 2737               		.loc 1 645 7 view .LVU485
 2738 0da2 8F71      		andi r24,31
 2739 0da4 9927      		clr r25
 2740 0da6 AA27      		clr r26
 2741 0da8 BB27      		clr r27
 2742               	.LVL155:
 656:../../emulator/emulator.c **** 			emu->PC += offset;
 2743               		.loc 1 656 23 view .LVU486
 2744 0daa FC01      		movw r30,r24
 2745 0dac 3196      		adiw r30,1
 2746 0dae EE0F      		lsl r30
 2747 0db0 FF1F      		rol r31
 2748 0db2 EE0F      		lsl r30
 2749 0db4 FF1F      		rol r31
 2750 0db6 E80D      		add r30,r8
 2751 0db8 F91D      		adc r31,r9
 656:../../emulator/emulator.c **** 			emu->PC += offset;
 2752               		.loc 1 656 33 view .LVU487
 2753 0dba 9701      		movw r18,r14
 2754 0dbc 8601      		movw r16,r12
 2755 0dbe 0C5F      		subi r16,-4
 2756 0dc0 1F4F      		sbci r17,-1
 2757 0dc2 2F4F      		sbci r18,-1
 2758 0dc4 3F4F      		sbci r19,-1
 656:../../emulator/emulator.c **** 			emu->PC += offset;
 2759               		.loc 1 656 23 view .LVU488
 2760 0dc6 0083      		st Z,r16
 2761 0dc8 1183      		std Z+1,r17
 2762 0dca 2283      		std Z+2,r18
 2763 0dcc 3383      		std Z+3,r19
 657:../../emulator/emulator.c **** 			return 0;
 2764               		.loc 1 657 4 is_stmt 1 view .LVU489
 647:../../emulator/emulator.c **** 					(instr & 0xFF000) |
 2765               		.loc 1 647 32 is_stmt 0 view .LVU490
 2766 0dce DB01      		movw r26,r22
 2767 0dd0 CA01      		movw r24,r20
 2768               	.LVL156:
 647:../../emulator/emulator.c **** 					(instr & 0xFF000) |
 2769               		.loc 1 647 32 view .LVU491
 2770 0dd2 2CE0      		ldi r18,12
 2771               		1:
 2772 0dd4 B695      		lsr r27
 2773 0dd6 A795      		ror r26
 2774 0dd8 9795      		ror r25
 2775 0dda 8795      		ror r24
 2776 0ddc 2A95      		dec r18
 2777 0dde 01F4      		brne 1b
 2778               	.LVL157:
 647:../../emulator/emulator.c **** 					(instr & 0xFF000) |
 2779               		.loc 1 647 32 view .LVU492
 2780 0de0 8827      		clr r24
 2781 0de2 9927      		clr r25
 2782 0de4 A870      		andi r26,8
 2783 0de6 BB27      		clr r27
 2784               	.LVL158:
 649:../../emulator/emulator.c **** 					((instr & 0x7FE00000) >> 20);
 2785               		.loc 1 649 26 view .LVU493
 2786 0de8 8A01      		movw r16,r20
 2787 0dea 9B01      		movw r18,r22
 2788 0dec E9E0      		ldi r30,9
 2789               		1:
 2790 0dee 3695      		lsr r19
 2791 0df0 2795      		ror r18
 2792 0df2 1795      		ror r17
 2793 0df4 0795      		ror r16
 2794 0df6 EA95      		dec r30
 2795 0df8 01F4      		brne 1b
 2796               	.LVL159:
 649:../../emulator/emulator.c **** 					((instr & 0x7FE00000) >> 20);
 2797               		.loc 1 649 26 view .LVU494
 2798 0dfa 0027      		clr r16
 2799 0dfc 1870      		andi r17,8
 2800 0dfe 2227      		clr r18
 2801 0e00 3327      		clr r19
 2802               	.LVL160:
 648:../../emulator/emulator.c **** 					((instr & 0x100000) >> 9) |
 2803               		.loc 1 648 24 view .LVU495
 2804 0e02 802B      		or r24,r16
 2805 0e04 912B      		or r25,r17
 2806 0e06 A22B      		or r26,r18
 2807 0e08 B32B      		or r27,r19
 648:../../emulator/emulator.c **** 					((instr & 0x100000) >> 9) |
 2808               		.loc 1 648 13 view .LVU496
 2809 0e0a 8A01      		movw r16,r20
 2810 0e0c 9B01      		movw r18,r22
 2811 0e0e 0027      		clr r16
 2812 0e10 107F      		andi r17,240
 2813 0e12 2F70      		andi r18,15
 2814 0e14 3327      		clr r19
 648:../../emulator/emulator.c **** 					((instr & 0x100000) >> 9) |
 2815               		.loc 1 648 24 view .LVU497
 2816 0e16 802B      		or r24,r16
 2817 0e18 912B      		or r25,r17
 2818 0e1a A22B      		or r26,r18
 2819 0e1c B32B      		or r27,r19
 650:../../emulator/emulator.c **** 
 2820               		.loc 1 650 28 view .LVU498
 2821 0e1e F4E1      		ldi r31,20
 2822               		1:
 2823 0e20 7695      		lsr r23
 2824 0e22 6795      		ror r22
 2825 0e24 5795      		ror r21
 2826 0e26 4795      		ror r20
 2827 0e28 FA95      		dec r31
 2828 0e2a 01F4      		brne 1b
 2829               	.LVL161:
 650:../../emulator/emulator.c **** 
 2830               		.loc 1 650 28 view .LVU499
 2831 0e2c 4E7F      		andi r20,254
 2832 0e2e 5770      		andi r21,7
 2833 0e30 6627      		clr r22
 2834 0e32 7727      		clr r23
 647:../../emulator/emulator.c **** 					(instr & 0xFF000) |
 2835               		.loc 1 647 8 view .LVU500
 2836 0e34 842B      		or r24,r20
 2837 0e36 952B      		or r25,r21
 2838 0e38 A62B      		or r26,r22
 2839 0e3a B72B      		or r27,r23
 657:../../emulator/emulator.c **** 			return 0;
 2840               		.loc 1 657 12 view .LVU501
 2841 0e3c 8C0D      		add r24,r12
 2842 0e3e 9D1D      		adc r25,r13
 2843 0e40 AE1D      		adc r26,r14
 2844 0e42 BF1D      		adc r27,r15
 2845 0e44 F401      		movw r30,r8
 2846               	.LVL162:
 2847               	.L81:
 657:../../emulator/emulator.c **** 			return 0;
 2848               		.loc 1 657 12 view .LVU502
 2849               	.LBE150:
 692:../../emulator/emulator.c **** 	return 0;
 2850               		.loc 1 692 10 view .LVU503
 2851 0e46 8083      		st Z,r24
 2852 0e48 9183      		std Z+1,r25
 2853 0e4a A283      		std Z+2,r26
 2854 0e4c B383      		std Z+3,r27
 693:../../emulator/emulator.c **** }
 2855               		.loc 1 693 2 is_stmt 1 view .LVU504
 693:../../emulator/emulator.c **** }
 2856               		.loc 1 693 9 is_stmt 0 view .LVU505
 2857 0e4e 00C0      		rjmp .L4
 2858               	.LVL163:
 2859               	.L8:
 2860               	.LBB151:
 663:../../emulator/emulator.c **** 			u32 rd, rs1, imm;
 2861               		.loc 1 663 4 is_stmt 1 view .LVU506
 664:../../emulator/emulator.c **** 			rd = (instr >> 7) & 0x1F;
 2862               		.loc 1 664 4 view .LVU507
 665:../../emulator/emulator.c **** 			rs1 = (instr >> 15) & 0x1F;
 2863               		.loc 1 665 4 view .LVU508
 666:../../emulator/emulator.c **** 			imm = (instr >> 20) & ~1;
 2864               		.loc 1 666 4 view .LVU509
 667:../../emulator/emulator.c **** 
 2865               		.loc 1 667 4 view .LVU510
 669:../../emulator/emulator.c **** #ifdef DEBUG
 2866               		.loc 1 669 4 view .LVU511
 2867               	.LBB152:
 2868               	.LBI152:
  26:../../emulator/emulator.c **** {
 2869               		.loc 1 26 19 view .LVU512
 2870               	.LBB153:
  28:../../emulator/emulator.c **** 	return (value ^ m) - m;
 2871               		.loc 1 28 2 view .LVU513
  29:../../emulator/emulator.c **** }
 2872               		.loc 1 29 2 view .LVU514
  29:../../emulator/emulator.c **** }
 2873               		.loc 1 29 2 is_stmt 0 view .LVU515
 2874               	.LBE153:
 2875               	.LBE152:
 673:../../emulator/emulator.c **** 			emu->PC = emu->Registers[rs1] + offset;
 2876               		.loc 1 673 4 is_stmt 1 view .LVU516
 665:../../emulator/emulator.c **** 			rs1 = (instr >> 15) & 0x1F;
 2877               		.loc 1 665 16 is_stmt 0 view .LVU517
 2878 0e50 DB01      		movw r26,r22
 2879 0e52 CA01      		movw r24,r20
 2880               	.LVL164:
 665:../../emulator/emulator.c **** 			rs1 = (instr >> 15) & 0x1F;
 2881               		.loc 1 665 16 view .LVU518
 2882 0e54 27E0      		ldi r18,7
 2883               		1:
 2884 0e56 B695      		lsr r27
 2885 0e58 A795      		ror r26
 2886 0e5a 9795      		ror r25
 2887 0e5c 8795      		ror r24
 2888 0e5e 2A95      		dec r18
 2889 0e60 01F4      		brne 1b
 665:../../emulator/emulator.c **** 			rs1 = (instr >> 15) & 0x1F;
 2890               		.loc 1 665 7 view .LVU519
 2891 0e62 8F71      		andi r24,31
 2892 0e64 9927      		clr r25
 2893 0e66 AA27      		clr r26
 2894 0e68 BB27      		clr r27
 2895               	.LVL165:
 673:../../emulator/emulator.c **** 			emu->PC = emu->Registers[rs1] + offset;
 2896               		.loc 1 673 23 view .LVU520
 2897 0e6a FC01      		movw r30,r24
 2898 0e6c 3196      		adiw r30,1
 2899 0e6e EE0F      		lsl r30
 2900 0e70 FF1F      		rol r31
 2901 0e72 EE0F      		lsl r30
 2902 0e74 FF1F      		rol r31
 2903 0e76 9F01      		movw r18,r30
 2904 0e78 280D      		add r18,r8
 2905 0e7a 391D      		adc r19,r9
 673:../../emulator/emulator.c **** 			emu->PC = emu->Registers[rs1] + offset;
 2906               		.loc 1 673 33 view .LVU521
 2907 0e7c F401      		movw r30,r8
 2908 0e7e 8081      		ld r24,Z
 2909 0e80 9181      		ldd r25,Z+1
 2910 0e82 A281      		ldd r26,Z+2
 2911 0e84 B381      		ldd r27,Z+3
 2912               	.LVL166:
 673:../../emulator/emulator.c **** 			emu->PC = emu->Registers[rs1] + offset;
 2913               		.loc 1 673 33 view .LVU522
 2914 0e86 0496      		adiw r24,4
 2915 0e88 A11D      		adc r26,__zero_reg__
 2916 0e8a B11D      		adc r27,__zero_reg__
 673:../../emulator/emulator.c **** 			emu->PC = emu->Registers[rs1] + offset;
 2917               		.loc 1 673 23 view .LVU523
 2918 0e8c F901      		movw r30,r18
 2919 0e8e 8083      		st Z,r24
 2920 0e90 9183      		std Z+1,r25
 2921 0e92 A283      		std Z+2,r26
 2922 0e94 B383      		std Z+3,r27
 674:../../emulator/emulator.c **** 			return 0;
 2923               		.loc 1 674 4 is_stmt 1 view .LVU524
 666:../../emulator/emulator.c **** 			imm = (instr >> 20) & ~1;
 2924               		.loc 1 666 17 is_stmt 0 view .LVU525
 2925 0e96 DB01      		movw r26,r22
 2926 0e98 CA01      		movw r24,r20
 2927 0e9a EFE0      		ldi r30,15
 2928               		1:
 2929 0e9c B695      		lsr r27
 2930 0e9e A795      		ror r26
 2931 0ea0 9795      		ror r25
 2932 0ea2 8795      		ror r24
 2933 0ea4 EA95      		dec r30
 2934 0ea6 01F4      		brne 1b
 666:../../emulator/emulator.c **** 			imm = (instr >> 20) & ~1;
 2935               		.loc 1 666 8 view .LVU526
 2936 0ea8 8F71      		andi r24,31
 2937 0eaa 9927      		clr r25
 2938 0eac AA27      		clr r26
 2939 0eae BB27      		clr r27
 2940               	.LVL167:
 674:../../emulator/emulator.c **** 			return 0;
 2941               		.loc 1 674 28 view .LVU527
 2942 0eb0 FC01      		movw r30,r24
 2943 0eb2 3196      		adiw r30,1
 2944 0eb4 EE0F      		lsl r30
 2945 0eb6 FF1F      		rol r31
 2946 0eb8 EE0F      		lsl r30
 2947 0eba FF1F      		rol r31
 2948 0ebc E80D      		add r30,r8
 2949 0ebe F91D      		adc r31,r9
 667:../../emulator/emulator.c **** 
 2950               		.loc 1 667 17 view .LVU528
 2951 0ec0 B4E1      		ldi r27,20
 2952               		1:
 2953 0ec2 7695      		lsr r23
 2954 0ec4 6795      		ror r22
 2955 0ec6 5795      		ror r21
 2956 0ec8 4795      		ror r20
 2957 0eca BA95      		dec r27
 2958 0ecc 01F4      		brne 1b
 2959               	.LVL168:
 667:../../emulator/emulator.c **** 
 2960               		.loc 1 667 8 view .LVU529
 2961 0ece 4E7F      		andi r20,254
 2962               	.LVL169:
 2963               	.LBB155:
 2964               	.LBB154:
  29:../../emulator/emulator.c **** }
 2965               		.loc 1 29 16 view .LVU530
 2966 0ed0 08E0      		ldi r16,8
 2967 0ed2 5027      		eor r21,r16
 2968               	.LVL170:
  29:../../emulator/emulator.c **** }
 2969               		.loc 1 29 16 view .LVU531
 2970               	.LBE154:
 2971               	.LBE155:
 674:../../emulator/emulator.c **** 			return 0;
 2972               		.loc 1 674 34 view .LVU532
 2973 0ed4 8081      		ld r24,Z
 2974 0ed6 9181      		ldd r25,Z+1
 2975 0ed8 A281      		ldd r26,Z+2
 2976 0eda B381      		ldd r27,Z+3
 2977               	.LVL171:
 674:../../emulator/emulator.c **** 			return 0;
 2978               		.loc 1 674 34 view .LVU533
 2979 0edc 840F      		add r24,r20
 2980 0ede 951F      		adc r25,r21
 2981 0ee0 A61F      		adc r26,r22
 2982 0ee2 B71F      		adc r27,r23
 2983 0ee4 AC01      		movw r20,r24
 2984 0ee6 BD01      		movw r22,r26
 2985               	.LVL172:
 674:../../emulator/emulator.c **** 			return 0;
 2986               		.loc 1 674 34 view .LVU534
 2987 0ee8 5850      		subi r21,8
 2988 0eea 6109      		sbc r22,__zero_reg__
 2989 0eec 7109      		sbc r23,__zero_reg__
 674:../../emulator/emulator.c **** 			return 0;
 2990               		.loc 1 674 12 view .LVU535
 2991 0eee D401      		movw r26,r8
 2992 0ef0 4D93      		st X+,r20
 2993 0ef2 5D93      		st X+,r21
 2994 0ef4 6D93      		st X+,r22
 2995 0ef6 7C93      		st X,r23
 2996 0ef8 1397      		sbiw r26,3
 675:../../emulator/emulator.c **** 		}
 2997               		.loc 1 675 4 is_stmt 1 view .LVU536
 675:../../emulator/emulator.c **** 		}
 2998               		.loc 1 675 11 is_stmt 0 view .LVU537
 2999 0efa 00C0      		rjmp .L4
 3000               	.LVL173:
 3001               	.L71:
 675:../../emulator/emulator.c **** 		}
 3002               		.loc 1 675 11 view .LVU538
 3003               	.LBE151:
 3004               	.LBE157:
 3005               	.LBE159:
 723:../../emulator/emulator.c **** 	return 1;
 724:../../emulator/emulator.c **** }
 3006               		.loc 1 724 1 view .LVU539
 3007 0efc 60E0      		ldi r22,0
 3008 0efe 70E0      		ldi r23,0
 3009 0f00 CB01      		movw r24,r22
 3010               	/* epilogue start */
 3011 0f02 6096      		adiw r28,16
 3012 0f04 0FB6      		in __tmp_reg__,__SREG__
 3013 0f06 F894      		cli
 3014 0f08 DEBF      		out __SP_H__,r29
 3015 0f0a 0FBE      		out __SREG__,__tmp_reg__
 3016 0f0c CDBF      		out __SP_L__,r28
 3017 0f0e DF91      		pop r29
 3018 0f10 CF91      		pop r28
 3019 0f12 1F91      		pop r17
 3020 0f14 0F91      		pop r16
 3021 0f16 FF90      		pop r15
 3022 0f18 EF90      		pop r14
 3023 0f1a DF90      		pop r13
 3024 0f1c CF90      		pop r12
 3025 0f1e BF90      		pop r11
 3026 0f20 AF90      		pop r10
 3027 0f22 9F90      		pop r9
 3028 0f24 8F90      		pop r8
 3029               	.LVL174:
 3030               		.loc 1 724 1 view .LVU540
 3031 0f26 7F90      		pop r7
 3032 0f28 6F90      		pop r6
 3033 0f2a 5F90      		pop r5
 3034 0f2c 4F90      		pop r4
 3035 0f2e 3F90      		pop r3
 3036 0f30 2F90      		pop r2
 3037               	.LVL175:
 3038               		.loc 1 724 1 view .LVU541
 3039 0f32 0895      		ret
 3040               		.cfi_endproc
 3041               	.LFE11:
 3043               		.section	.rodata
 3046               	syscalls:
 3047 0000 0000      		.word	gs(syscall_exit)
 3048 0002 0000      		.word	gs(syscall_finish)
 3049 0004 0000      		.word	gs(syscall_event_register)
 3050 0006 0000      		.word	gs(syscall_memcpy)
 3051 0008 0000      		.word	gs(syscall_memmove)
 3052 000a 0000      		.word	gs(syscall_memcmp)
 3053 000c 0000      		.word	gs(syscall_memchr)
 3054 000e 0000      		.word	gs(syscall_memset)
 3055 0010 0000      		.word	gs(syscall_strcpy)
 3056 0012 0000      		.word	gs(syscall_strncpy)
 3057 0014 0000      		.word	gs(syscall_strlen)
 3058 0016 0000      		.word	gs(syscall_strcmp)
 3059 0018 0000      		.word	gs(syscall_strncmp)
 3060 001a 0000      		.word	gs(syscall_strchr)
 3061 001c 0000      		.word	gs(syscall_rand)
 3062 001e 0000      		.word	gs(syscall_gfx_rect)
 3063 0020 0000      		.word	gs(syscall_gfx_image_rgba)
 3064 0022 0000      		.word	gs(syscall_gfx_image_rgb)
 3065 0024 0000      		.word	gs(syscall_gfx_image_rgb565)
 3066 0026 0000      		.word	gs(syscall_gfx_image_grayscale)
 3067 0028 0000      		.word	gs(syscall_gfx_image_1bit)
 3068 002a 0000      		.word	gs(syscall_keyboard_is_key_pressed)
 3069 002c 0000      		.word	gs(syscall_serial_write)
 3070 002e 0000      		.word	gs(syscall_datetime_now)
 3071 0030 0000      		.word	gs(syscall_millis)
 3072               		.local	_finished
 3073               		.comm	_finished,1,1
 3074               		.text
 3075               	.Letext0:
 3076               		.file 2 "/usr/lib/gcc/avr/12.2.0/include/stddef.h"
 3077               		.file 3 "/usr/lib/gcc/avr/12.2.0/include/stdint-gcc.h"
 3078               		.file 4 "../../types/types.h"
 3079               		.file 5 "../../emulator/emulator.h"
 3080               		.file 6 "/usr/avr/include/stdio.h"
 3081               		.file 7 "../../platform/platform.h"
 3082               		.file 8 "/usr/avr/include/stdlib.h"
 3083               		.file 9 "/usr/avr/include/string.h"