   1               		.file	"logger.c"
   2               	__SP_H__ = 0x3e
   3               	__SP_L__ = 0x3d
   4               	__SREG__ = 0x3f
   5               	__tmp_reg__ = 0
   6               	__zero_reg__ = 1
   7               		.text
   8               	.Ltext0:
   9               		.cfi_sections	.debug_frame
  10               		.file 0 "/home/files/osdev/platform/avr" "logger/logger.c"
  11               	.global	log_boot_P
  13               	log_boot_P:
  14               	.LVL0:
  15               	.LFB2:
  16               		.file 1 "logger/logger.c"
   1:logger/logger.c **** /**
   2:logger/logger.c ****  * @file    logger.c
   3:logger/logger.c ****  * @author  Tim Gabrikowski, Anton Tchekov
   4:logger/logger.c ****  * @version 0.1
   5:logger/logger.c ****  * @date    16.05.2023
   6:logger/logger.c ****  */
   7:logger/logger.c **** 
   8:logger/logger.c **** #include <logger.h>
   9:logger/logger.c **** #include <serial.h>
  10:logger/logger.c **** #include <avr/pgmspace.h>
  11:logger/logger.c **** #include <avr/interrupt.h>
  12:logger/logger.c **** #include <stdarg.h>
  13:logger/logger.c **** #include <stdio.h>
  14:logger/logger.c **** 
  15:logger/logger.c **** void log_boot_P(const char *msg, ...)
  16:logger/logger.c **** {
  17               		.loc 1 16 1 view -0
  18               		.cfi_startproc
  19               		.loc 1 16 1 is_stmt 0 view .LVU1
  20 0000 CF93      		push r28
  21               		.cfi_def_cfa_offset 3
  22               		.cfi_offset 28, -2
  23 0002 DF93      		push r29
  24               		.cfi_def_cfa_offset 4
  25               		.cfi_offset 29, -3
  26 0004 CDB7      		in r28,__SP_L__
  27 0006 DEB7      		in r29,__SP_H__
  28               		.cfi_def_cfa_register 28
  29 0008 C058      		subi r28,-128
  30 000a D109      		sbc r29,__zero_reg__
  31               		.cfi_def_cfa_offset 132
  32 000c 0FB6      		in __tmp_reg__,__SREG__
  33 000e F894      		cli
  34 0010 DEBF      		out __SP_H__,r29
  35 0012 0FBE      		out __SREG__,__tmp_reg__
  36 0014 CDBF      		out __SP_L__,r28
  37               	/* prologue: function */
  38               	/* frame size = 128 */
  39               	/* stack size = 130 */
  40               	.L__stack_usage = 130
  41 0016 9E01      		movw r18,r28
  42 0018 2B57      		subi r18,123
  43 001a 3F4F      		sbci r19,-1
  44               	.LVL1:
  45               		.loc 1 16 1 view .LVU2
  46 001c F901      		movw r30,r18
  47 001e 4191      		ld r20,Z+
  48 0020 5191      		ld r21,Z+
  49               	.LVL2:
  50               		.loc 1 16 1 view .LVU3
  51 0022 9F01      		movw r18,r30
  17:logger/logger.c **** 	char buf[128];
  52               		.loc 1 17 2 is_stmt 1 view .LVU4
  18:logger/logger.c **** 	va_list v;
  53               		.loc 1 18 2 view .LVU5
  19:logger/logger.c **** 
  20:logger/logger.c **** 	va_start(v, msg);
  54               		.loc 1 20 2 view .LVU6
  55               	.LVL3:
  21:logger/logger.c **** 	vsnprintf_P(buf, sizeof(buf), msg, v);
  56               		.loc 1 21 2 view .LVU7
  57 0024 60E8      		ldi r22,lo8(-128)
  58 0026 70E0      		ldi r23,0
  59 0028 CE01      		movw r24,r28
  60 002a 0196      		adiw r24,1
  61 002c 0E94 0000 		call vsnprintf_P
  62               	.LVL4:
  22:logger/logger.c **** 	va_end(v);
  63               		.loc 1 22 2 view .LVU8
  23:logger/logger.c **** 
  24:logger/logger.c **** 	serial_tx_str_P(PSTR("[INIT] "));
  64               		.loc 1 24 2 view .LVU9
  65               	.LBB2:
  66               		.loc 1 24 18 view .LVU10
  67               		.loc 1 24 18 view .LVU11
  68               	.LBE2:
  69               		.loc 1 24 2 is_stmt 0 view .LVU12
  70 0030 80E0      		ldi r24,lo8(__c.2)
  71 0032 90E0      		ldi r25,hi8(__c.2)
  72 0034 0E94 0000 		call serial_tx_str_P
  73               	.LVL5:
  25:logger/logger.c **** 	serial_tx_str(buf);
  74               		.loc 1 25 2 is_stmt 1 view .LVU13
  75 0038 CE01      		movw r24,r28
  76 003a 0196      		adiw r24,1
  77 003c 0E94 0000 		call serial_tx_str
  78               	.LVL6:
  26:logger/logger.c **** 	serial_tx('\n');
  79               		.loc 1 26 2 view .LVU14
  80 0040 8AE0      		ldi r24,lo8(10)
  81 0042 0E94 0000 		call serial_tx
  82               	.LVL7:
  83               	/* epilogue start */
  27:logger/logger.c **** }
  84               		.loc 1 27 1 is_stmt 0 view .LVU15
  85 0046 C058      		subi r28,-128
  86 0048 DF4F      		sbci r29,-1
  87 004a 0FB6      		in __tmp_reg__,__SREG__
  88 004c F894      		cli
  89 004e DEBF      		out __SP_H__,r29
  90 0050 0FBE      		out __SREG__,__tmp_reg__
  91 0052 CDBF      		out __SP_L__,r28
  92 0054 DF91      		pop r29
  93 0056 CF91      		pop r28
  94 0058 0895      		ret
  95               		.cfi_endproc
  96               	.LFE2:
  98               	.global	panic
 100               	panic:
 101               	.LVL8:
 102               	.LFB3:
  28:logger/logger.c **** 
  29:logger/logger.c **** void panic(const char *msg, ...)
  30:logger/logger.c **** {
 103               		.loc 1 30 1 is_stmt 1 view -0
 104               		.cfi_startproc
 105               		.loc 1 30 1 is_stmt 0 view .LVU17
 106 005a CF93      		push r28
 107               		.cfi_def_cfa_offset 3
 108               		.cfi_offset 28, -2
 109 005c DF93      		push r29
 110               		.cfi_def_cfa_offset 4
 111               		.cfi_offset 29, -3
 112 005e CDB7      		in r28,__SP_L__
 113 0060 DEB7      		in r29,__SP_H__
 114               		.cfi_def_cfa_register 28
 115 0062 C058      		subi r28,-128
 116 0064 D109      		sbc r29,__zero_reg__
 117               		.cfi_def_cfa_offset 132
 118 0066 0FB6      		in __tmp_reg__,__SREG__
 119 0068 F894      		cli
 120 006a DEBF      		out __SP_H__,r29
 121 006c 0FBE      		out __SREG__,__tmp_reg__
 122 006e CDBF      		out __SP_L__,r28
 123               	/* prologue: function */
 124               	/* frame size = 128 */
 125               	/* stack size = 130 */
 126               	.L__stack_usage = 130
 127 0070 9E01      		movw r18,r28
 128 0072 2B57      		subi r18,123
 129 0074 3F4F      		sbci r19,-1
 130               	.LVL9:
 131               		.loc 1 30 1 view .LVU18
 132 0076 F901      		movw r30,r18
 133 0078 4191      		ld r20,Z+
 134 007a 5191      		ld r21,Z+
 135               	.LVL10:
 136               		.loc 1 30 1 view .LVU19
 137 007c 9F01      		movw r18,r30
  31:logger/logger.c **** 	char buf[128];
 138               		.loc 1 31 2 is_stmt 1 view .LVU20
  32:logger/logger.c **** 	va_list v;
 139               		.loc 1 32 2 view .LVU21
  33:logger/logger.c **** 
  34:logger/logger.c **** 	va_start(v, msg);
 140               		.loc 1 34 2 view .LVU22
 141               	.LVL11:
  35:logger/logger.c **** 	vsnprintf_P(buf, sizeof(buf), msg, v);
 142               		.loc 1 35 2 view .LVU23
 143 007e 60E8      		ldi r22,lo8(-128)
 144 0080 70E0      		ldi r23,0
 145 0082 CE01      		movw r24,r28
 146 0084 0196      		adiw r24,1
 147 0086 0E94 0000 		call vsnprintf_P
 148               	.LVL12:
  36:logger/logger.c **** 	va_end(v);
 149               		.loc 1 36 2 view .LVU24
  37:logger/logger.c **** 
  38:logger/logger.c **** 	serial_tx_str_P(PSTR("[PANIC] "));
 150               		.loc 1 38 2 view .LVU25
 151               	.LBB3:
 152               		.loc 1 38 18 view .LVU26
 153               		.loc 1 38 18 view .LVU27
 154               	.LBE3:
 155               		.loc 1 38 2 is_stmt 0 view .LVU28
 156 008a 80E0      		ldi r24,lo8(__c.1)
 157 008c 90E0      		ldi r25,hi8(__c.1)
 158 008e 0E94 0000 		call serial_tx_str_P
 159               	.LVL13:
  39:logger/logger.c **** 	serial_tx_str(buf);
 160               		.loc 1 39 2 is_stmt 1 view .LVU29
 161 0092 CE01      		movw r24,r28
 162 0094 0196      		adiw r24,1
 163 0096 0E94 0000 		call serial_tx_str
 164               	.LVL14:
  40:logger/logger.c **** 	serial_tx_str_P(PSTR("\n>>> RESET REQUIRED\n"));
 165               		.loc 1 40 2 view .LVU30
 166               	.LBB4:
 167               		.loc 1 40 18 view .LVU31
 168               		.loc 1 40 18 view .LVU32
 169               	.LBE4:
 170               		.loc 1 40 2 is_stmt 0 view .LVU33
 171 009a 80E0      		ldi r24,lo8(__c.0)
 172 009c 90E0      		ldi r25,hi8(__c.0)
 173 009e 0E94 0000 		call serial_tx_str_P
 174               	.LVL15:
  41:logger/logger.c **** 
  42:logger/logger.c **** 	cli();
 175               		.loc 1 42 2 is_stmt 1 view .LVU34
 176               	/* #APP */
 177               	 ;  42 "logger/logger.c" 1
 178 00a2 F894      		cli
 179               	 ;  0 "" 2
 180               	/* #NOAPP */
 181               	.L3:
  43:logger/logger.c **** 
  44:logger/logger.c **** 	/* Infinite loop */
  45:logger/logger.c **** 	for(;;)
 182               		.loc 1 45 2 discriminator 1 view .LVU35
  46:logger/logger.c **** 	{
  47:logger/logger.c **** 	}
 183               		.loc 1 47 2 discriminator 1 view .LVU36
  45:logger/logger.c **** 	{
 184               		.loc 1 45 2 discriminator 1 view .LVU37
 185 00a4 00C0      		rjmp .L3
 186               		.cfi_endproc
 187               	.LFE3:
 189               		.section	.progmem.data,"a",@progbits
 192               	__c.0:
 193 0000 0A3E 3E3E 		.string	"\n>>> RESET REQUIRED\n"
 193      2052 4553 
 193      4554 2052 
 193      4551 5549 
 193      5245 440A 
 196               	__c.1:
 197 0015 5B50 414E 		.string	"[PANIC] "
 197      4943 5D20 
 197      00
 200               	__c.2:
 201 001e 5B49 4E49 		.string	"[INIT] "
 201      545D 2000 
 202               		.text
 203               	.Letext0:
 204               		.file 2 "/usr/lib/gcc/avr/12.2.0/include/stddef.h"
 205               		.file 3 "/usr/lib/gcc/avr/12.2.0/include/stdarg.h"
 206               		.file 4 "serial/serial.h"
 207               		.file 5 "/usr/avr/include/stdio.h"