   1               		.file	"spi.c"
   2               	__SP_H__ = 0x3e
   3               	__SP_L__ = 0x3d
   4               	__SREG__ = 0x3f
   5               	__tmp_reg__ = 0
   6               	__zero_reg__ = 1
   7               		.text
   8               	.Ltext0:
   9               		.cfi_sections	.debug_frame
  10               		.file 0 "/home/files/osdev/platform/avr" "spi/spi.c"
  11               	.global	spi_init
  13               	spi_init:
  14               	.LFB3:
  15               		.file 1 "spi/spi.c"
   1:spi/spi.c     **** /**
   2:spi/spi.c     ****  * @file    spi.c
   3:spi/spi.c     ****  * @author  Anton Tchekov
   4:spi/spi.c     ****  * @version 0.1
   5:spi/spi.c     ****  * @date    16.05.2023
   6:spi/spi.c     ****  */
   7:spi/spi.c     **** 
   8:spi/spi.c     **** #include <spi.h>
   9:spi/spi.c     **** #include <logger.h>
  10:spi/spi.c     **** #include <avr/pgmspace.h>
  11:spi/spi.c     **** 
  12:spi/spi.c     **** void spi_init(void)
  13:spi/spi.c     **** {
  16               		.loc 1 13 1 view -0
  17               		.cfi_startproc
  18               	/* prologue: function */
  19               	/* frame size = 0 */
  20               	/* stack size = 0 */
  21               	.L__stack_usage = 0
  14:spi/spi.c     **** 	SPCR = (1 << SPE) | (1 << MSTR);
  22               		.loc 1 14 2 view .LVU1
  23               		.loc 1 14 7 is_stmt 0 view .LVU2
  24 0000 80E5      		ldi r24,lo8(80)
  25 0002 8CBD      		out 0x2c,r24
  15:spi/spi.c     **** 	log_boot_P(LOG_INIT, PSTR("SPI initialized"));
  26               		.loc 1 15 2 is_stmt 1 view .LVU3
  27               	.LBB2:
  28               		.loc 1 15 23 view .LVU4
  29               		.loc 1 15 23 view .LVU5
  30               	.LBE2:
  31               		.loc 1 15 2 is_stmt 0 view .LVU6
  32 0004 80E0      		ldi r24,lo8(__c.1)
  33 0006 90E0      		ldi r25,hi8(__c.1)
  34 0008 9F93      		push r25
  35               		.cfi_def_cfa_offset 3
  36 000a 8F93      		push r24
  37               		.cfi_def_cfa_offset 4
  38 000c 1F92      		push __zero_reg__
  39               		.cfi_def_cfa_offset 5
  40 000e 0E94 0000 		call log_boot_P
  41               	.LVL0:
  16:spi/spi.c     **** }
  42               		.loc 1 16 1 view .LVU7
  43 0012 0F90      		pop __tmp_reg__
  44 0014 0F90      		pop __tmp_reg__
  45 0016 0F90      		pop __tmp_reg__
  46               		.cfi_def_cfa_offset 2
  47               	/* epilogue start */
  48 0018 0895      		ret
  49               		.cfi_endproc
  50               	.LFE3:
  52               	.global	spi_fast
  54               	spi_fast:
  55               	.LFB4:
  17:spi/spi.c     **** 
  18:spi/spi.c     **** void spi_fast(void)
  19:spi/spi.c     **** {
  56               		.loc 1 19 1 is_stmt 1 view -0
  57               		.cfi_startproc
  58               	/* prologue: function */
  59               	/* frame size = 0 */
  60               	/* stack size = 0 */
  61               	.L__stack_usage = 0
  20:spi/spi.c     **** 	SPCR &= ~((1 << SPR1) | (1 << SPR0));
  62               		.loc 1 20 2 view .LVU9
  63               		.loc 1 20 7 is_stmt 0 view .LVU10
  64 001a 8CB5      		in r24,0x2c
  65 001c 8C7F      		andi r24,lo8(-4)
  66 001e 8CBD      		out 0x2c,r24
  21:spi/spi.c     **** 	SPSR |= (1 << SPI2X);
  67               		.loc 1 21 2 is_stmt 1 view .LVU11
  68 0020 8DB5      		in r24,0x2d
  69               		.loc 1 21 7 is_stmt 0 view .LVU12
  70 0022 8160      		ori r24,lo8(1)
  71 0024 8DBD      		out 0x2d,r24
  72               	/* epilogue start */
  22:spi/spi.c     **** }
  73               		.loc 1 22 1 view .LVU13
  74 0026 0895      		ret
  75               		.cfi_endproc
  76               	.LFE4:
  78               	.global	spi_xchg
  80               	spi_xchg:
  81               	.LVL1:
  82               	.LFB5:
  23:spi/spi.c     **** 
  24:spi/spi.c     **** u8 spi_xchg(u8 byte)
  25:spi/spi.c     **** {
  83               		.loc 1 25 1 is_stmt 1 view -0
  84               		.cfi_startproc
  85               	/* prologue: function */
  86               	/* frame size = 0 */
  87               	/* stack size = 0 */
  88               	.L__stack_usage = 0
  26:spi/spi.c     **** 	u16 cnt = 0;
  89               		.loc 1 26 2 view .LVU15
  27:spi/spi.c     **** 	SPDR = byte;
  90               		.loc 1 27 2 view .LVU16
  91               		.loc 1 27 7 is_stmt 0 view .LVU17
  92 0028 8EBD      		out 0x2e,r24
  28:spi/spi.c     **** 	while(!(SPSR & (1 << SPIF)))
  93               		.loc 1 28 2 is_stmt 1 view .LVU18
  94               	.LVL2:
  95               	.L4:
  25:spi/spi.c     **** 	u16 cnt = 0;
  96               		.loc 1 25 1 is_stmt 0 view .LVU19
  97 002a 80E0      		ldi r24,0
  98 002c 90E0      		ldi r25,0
  99               	.L5:
 100               	.LVL3:
 101               		.loc 1 28 8 is_stmt 1 view .LVU20
 102 002e 0DB4      		in __tmp_reg__,0x2d
 103 0030 07FE      		sbrs __tmp_reg__,7
 104 0032 00C0      		rjmp .L6
  29:spi/spi.c     **** 	{
  30:spi/spi.c     **** 		if(cnt++ == 0xFFFF)
  31:spi/spi.c     **** 		{
  32:spi/spi.c     **** 			panic(PSTR("SPI timeout"));
  33:spi/spi.c     **** 		}
  34:spi/spi.c     **** 	}
  35:spi/spi.c     **** 
  36:spi/spi.c     **** 	return SPDR;
 105               		.loc 1 36 2 view .LVU21
 106               		.loc 1 36 9 is_stmt 0 view .LVU22
 107 0034 8EB5      		in r24,0x2e
 108               	.LVL4:
 109               	/* epilogue start */
  37:spi/spi.c     **** }
 110               		.loc 1 37 1 view .LVU23
 111 0036 0895      		ret
 112               	.LVL5:
 113               	.L6:
  30:spi/spi.c     **** 		{
 114               		.loc 1 30 3 is_stmt 1 view .LVU24
  30:spi/spi.c     **** 		{
 115               		.loc 1 30 5 is_stmt 0 view .LVU25
 116 0038 0197      		sbiw r24,1
 117               	.LVL6:
  30:spi/spi.c     **** 		{
 118               		.loc 1 30 5 view .LVU26
 119 003a 0097      		sbiw r24,0
 120 003c 01F4      		brne .L5
  32:spi/spi.c     **** 		}
 121               		.loc 1 32 4 is_stmt 1 view .LVU27
 122               	.LBB3:
  32:spi/spi.c     **** 		}
 123               		.loc 1 32 10 view .LVU28
  32:spi/spi.c     **** 		}
 124               		.loc 1 32 10 view .LVU29
 125               	.LBE3:
  32:spi/spi.c     **** 		}
 126               		.loc 1 32 4 is_stmt 0 view .LVU30
 127 003e 80E0      		ldi r24,lo8(__c.0)
 128 0040 90E0      		ldi r25,hi8(__c.0)
 129               	.LVL7:
  32:spi/spi.c     **** 		}
 130               		.loc 1 32 4 view .LVU31
 131 0042 9F93      		push r25
 132               		.cfi_def_cfa_offset 3
 133 0044 8F93      		push r24
 134               		.cfi_def_cfa_offset 4
 135 0046 0E94 0000 		call panic
 136               	.LVL8:
 137 004a 0F90      		pop __tmp_reg__
 138 004c 0F90      		pop __tmp_reg__
 139               		.cfi_def_cfa_offset 2
 140 004e 00C0      		rjmp .L4
 141               		.cfi_endproc
 142               	.LFE5:
 144               	.global	spi_xchg_try
 146               	spi_xchg_try:
 147               	.LVL9:
 148               	.LFB6:
  38:spi/spi.c     **** 
  39:spi/spi.c     **** Status spi_xchg_try(u8 in, u8 *out)
  40:spi/spi.c     **** {
 149               		.loc 1 40 1 is_stmt 1 view -0
 150               		.cfi_startproc
 151               	/* prologue: function */
 152               	/* frame size = 0 */
 153               	/* stack size = 0 */
 154               	.L__stack_usage = 0
 155               		.loc 1 40 1 is_stmt 0 view .LVU33
 156 0050 FB01      		movw r30,r22
  41:spi/spi.c     **** 	u16 cnt = 0;
 157               		.loc 1 41 2 is_stmt 1 view .LVU34
 158               	.LVL10:
  42:spi/spi.c     **** 	SPDR = in;
 159               		.loc 1 42 2 view .LVU35
 160               		.loc 1 42 7 is_stmt 0 view .LVU36
 161 0052 8EBD      		out 0x2e,r24
  43:spi/spi.c     **** 	while(!(SPSR & (1 << SPIF)))
 162               		.loc 1 43 2 is_stmt 1 view .LVU37
 163               		.loc 1 43 7 is_stmt 0 view .LVU38
 164 0054 80E0      		ldi r24,0
 165 0056 90E0      		ldi r25,0
 166               	.LVL11:
 167               	.L9:
 168               		.loc 1 43 8 is_stmt 1 view .LVU39
 169 0058 0DB4      		in __tmp_reg__,0x2d
 170 005a 07FE      		sbrs __tmp_reg__,7
 171 005c 00C0      		rjmp .L11
  44:spi/spi.c     **** 	{
  45:spi/spi.c     **** 		if(cnt++ == 0xFFFF)
  46:spi/spi.c     **** 		{
  47:spi/spi.c     **** 			return STATUS_TIMEOUT;
  48:spi/spi.c     **** 		}
  49:spi/spi.c     **** 	}
  50:spi/spi.c     **** 
  51:spi/spi.c     **** 	*out = SPDR;
 172               		.loc 1 51 2 view .LVU40
 173               		.loc 1 51 9 is_stmt 0 view .LVU41
 174 005e 8EB5      		in r24,0x2e
 175               	.LVL12:
 176               		.loc 1 51 7 view .LVU42
 177 0060 8083      		st Z,r24
 178               	.LVL13:
  52:spi/spi.c     **** 	return STATUS_OK;
 179               		.loc 1 52 2 is_stmt 1 view .LVU43
 180               		.loc 1 52 9 is_stmt 0 view .LVU44
 181 0062 80E0      		ldi r24,0
 182 0064 0895      		ret
 183               	.LVL14:
 184               	.L11:
  45:spi/spi.c     **** 		{
 185               		.loc 1 45 3 is_stmt 1 view .LVU45
  45:spi/spi.c     **** 		{
 186               		.loc 1 45 5 is_stmt 0 view .LVU46
 187 0066 0197      		sbiw r24,1
 188               	.LVL15:
  45:spi/spi.c     **** 		{
 189               		.loc 1 45 5 view .LVU47
 190 0068 0097      		sbiw r24,0
 191 006a 01F4      		brne .L9
  47:spi/spi.c     **** 		}
 192               		.loc 1 47 11 view .LVU48
 193 006c 82E0      		ldi r24,lo8(2)
 194               	.LVL16:
 195               	/* epilogue start */
  53:spi/spi.c     **** }
 196               		.loc 1 53 1 view .LVU49
 197 006e 0895      		ret
 198               		.cfi_endproc
 199               	.LFE6:
 201               	.global	spi_tx_try
 203               	spi_tx_try:
 204               	.LVL17:
 205               	.LFB7:
  54:spi/spi.c     **** 
  55:spi/spi.c     **** Status spi_tx_try(u8 in)
  56:spi/spi.c     **** {
 206               		.loc 1 56 1 is_stmt 1 view -0
 207               		.cfi_startproc
 208               		.loc 1 56 1 is_stmt 0 view .LVU51
 209 0070 CF93      		push r28
 210               		.cfi_def_cfa_offset 3
 211               		.cfi_offset 28, -2
 212 0072 DF93      		push r29
 213               		.cfi_def_cfa_offset 4
 214               		.cfi_offset 29, -3
 215 0074 0F92      		push __tmp_reg__
 216               		.cfi_def_cfa_offset 5
 217 0076 CDB7      		in r28,__SP_L__
 218 0078 DEB7      		in r29,__SP_H__
 219               		.cfi_def_cfa_register 28
 220               	/* prologue: function */
 221               	/* frame size = 1 */
 222               	/* stack size = 3 */
 223               	.L__stack_usage = 3
  57:spi/spi.c     **** 	u8 dummy;
 224               		.loc 1 57 2 is_stmt 1 view .LVU52
  58:spi/spi.c     **** 	return spi_xchg_try(in, &dummy);
 225               		.loc 1 58 2 view .LVU53
 226               		.loc 1 58 9 is_stmt 0 view .LVU54
 227 007a BE01      		movw r22,r28
 228 007c 6F5F      		subi r22,-1
 229 007e 7F4F      		sbci r23,-1
 230 0080 0E94 0000 		call spi_xchg_try
 231               	.LVL18:
 232               	/* epilogue start */
  59:spi/spi.c     **** }
 233               		.loc 1 59 1 view .LVU55
 234 0084 0F90      		pop __tmp_reg__
 235 0086 DF91      		pop r29
 236 0088 CF91      		pop r28
 237 008a 0895      		ret
 238               		.cfi_endproc
 239               	.LFE7:
 241               	.global	spi_rx_try
 243               	spi_rx_try:
 244               	.LVL19:
 245               	.LFB8:
  60:spi/spi.c     **** 
  61:spi/spi.c     **** Status spi_rx_try(u8 *out)
  62:spi/spi.c     **** {
 246               		.loc 1 62 1 is_stmt 1 view -0
 247               		.cfi_startproc
 248               	/* prologue: function */
 249               	/* frame size = 0 */
 250               	/* stack size = 0 */
 251               	.L__stack_usage = 0
 252               		.loc 1 62 1 is_stmt 0 view .LVU57
 253 008c BC01      		movw r22,r24
  63:spi/spi.c     **** 	return spi_xchg_try(0xFF, out);
 254               		.loc 1 63 2 is_stmt 1 view .LVU58
 255               		.loc 1 63 9 is_stmt 0 view .LVU59
 256 008e 8FEF      		ldi r24,lo8(-1)
 257               	.LVL20:
 258               		.loc 1 63 9 view .LVU60
 259 0090 0C94 0000 		jmp spi_xchg_try
 260               	.LVL21:
 261               		.loc 1 63 9 view .LVU61
 262               		.cfi_endproc
 263               	.LFE8:
 265               		.section	.progmem.data,"a",@progbits
 268               	__c.0:
 269 0000 5350 4920 		.string	"SPI timeout"
 269      7469 6D65 
 269      6F75 7400 
 272               	__c.1:
 273 000c 5350 4920 		.string	"SPI initialized"
 273      696E 6974 
 273      6961 6C69 
 273      7A65 6400 
 274               		.text
 275               	.Letext0:
 276               		.file 2 "/usr/lib/gcc/avr/12.2.0/include/stdint-gcc.h"
 277               		.file 3 "../../types/types.h"
 278               		.file 4 "../../status/status.h"
 279               		.file 5 "logger/logger.h"